
main:     file format elf32-tradlittlemips


Disassembly of section .text:

a0800200 <_start>:
a0800200:	27bdffe8 	addiu	sp,sp,-24
a0800204:	afbf0014 	sw	ra,20(sp)
a0800208:	afbe0010 	sw	s8,16(sp)
a080020c:	03a0f021 	move	s8,sp
a0800210:	0c2000b4 	jal	a08002d0 <asm_start>
a0800214:	00000000 	nop
a0800218:	0c2009be 	jal	a08026f8 <init_exception>
a080021c:	00000000 	nop
a0800220:	3c02a081 	lui	v0,0xa081
a0800224:	2444e760 	addiu	a0,v0,-6304
a0800228:	0c202b09 	jal	a080ac24 <printk>
a080022c:	00000000 	nop
a0800230:	0c200a21 	jal	a0802884 <init_syscall>
a0800234:	00000000 	nop
a0800238:	3c02a081 	lui	v0,0xa081
a080023c:	2444e79c 	addiu	a0,v0,-6244
a0800240:	0c202b09 	jal	a080ac24 <printk>
a0800244:	00000000 	nop
a0800248:	0c20090c 	jal	a0802430 <init_pcb>
a080024c:	00000000 	nop
a0800250:	3c02a081 	lui	v0,0xa081
a0800254:	2444e7cc 	addiu	a0,v0,-6196
a0800258:	0c202b09 	jal	a080ac24 <printk>
a080025c:	00000000 	nop
a0800260:	0c200f77 	jal	a0803ddc <init_fs>
a0800264:	00000000 	nop
a0800268:	14400007 	bnez	v0,a0800288 <_start+0x88>
a080026c:	00000000 	nop
a0800270:	3c02a081 	lui	v0,0xa081
a0800274:	2444e7f4 	addiu	a0,v0,-6156
a0800278:	0c202b09 	jal	a080ac24 <printk>
a080027c:	00000000 	nop
a0800280:	082000a6 	j	a0800298 <_start+0x98>
a0800284:	00000000 	nop
a0800288:	3c02a081 	lui	v0,0xa081
a080028c:	2444e810 	addiu	a0,v0,-6128
a0800290:	0c202b09 	jal	a080ac24 <printk>
a0800294:	00000000 	nop
a0800298:	0c2003e1 	jal	a0800f84 <init_screen>
a080029c:	00000000 	nop
a08002a0:	3c02a081 	lui	v0,0xa081
a08002a4:	2444e840 	addiu	a0,v0,-6080
a08002a8:	0c202b4d 	jal	a080ad34 <my_printk>
a08002ac:	00000000 	nop
a08002b0:	3c02a081 	lui	v0,0xa081
a08002b4:	8c4200e4 	lw	v0,228(v0)
a08002b8:	00402021 	move	a0,v0
a08002bc:	0c2000d6 	jal	a0800358 <set_cp0_status>
a08002c0:	00000000 	nop
a08002c4:	082000b1 	j	a08002c4 <_start+0xc4>
a08002c8:	00000000 	nop
a08002cc:	00000000 	nop

a08002d0 <asm_start>:
a08002d0:	40806000 	mtc0	zero,c0_sr
a08002d4:	00000000 	nop
a08002d8:	40809000 	mtc0	zero,c0_watchlo
a08002dc:	00000000 	nop
a08002e0:	40809800 	mtc0	zero,c0_watchhi
a08002e4:	00000000 	nop
a08002e8:	40088000 	mfc0	t0,c0_config
a08002ec:	2401fff8 	li	at,-8
a08002f0:	01014024 	and	t0,t0,at
a08002f4:	35080002 	ori	t0,t0,0x2
a08002f8:	40888000 	mtc0	t0,c0_config
a08002fc:	03e00008 	jr	ra
a0800300:	00000000 	nop
a0800304:	00000000 	nop

a0800308 <TLB_flush>:
a0800308:	24070000 	li	a3,0
a080030c:	40802800 	mtc0	zero,c0_pagemask
a0800310:	24060040 	li	a2,64
a0800314:	3c088000 	lui	t0,0x8000
a0800318:	40885000 	mtc0	t0,c0_entryhi
a080031c:	00000000 	nop
a0800320:	40801000 	mtc0	zero,c0_entrylo0
a0800324:	00000000 	nop
a0800328:	40801800 	mtc0	zero,c0_entrylo1
a080032c:	00000000 	nop
a0800330:	40870000 	mtc0	a3,c0_index
a0800334:	24e70001 	addiu	a3,a3,1
a0800338:	14e6fff7 	bne	a3,a2,a0800318 <TLB_flush+0x10>
a080033c:	42000002 	tlbwi
a0800340:	03e00008 	jr	ra
a0800344:	00000000 	nop
a0800348:	00000000 	nop

a080034c <get_cp0_status>:
a080034c:	40026000 	mfc0	v0,c0_sr
a0800350:	03e00008 	jr	ra
a0800354:	00000000 	nop

a0800358 <set_cp0_status>:
a0800358:	40846000 	mtc0	a0,c0_sr
a080035c:	03e00008 	jr	ra
a0800360:	00000000 	nop

a0800364 <get_cp0_cause>:
a0800364:	40026800 	mfc0	v0,c0_cause
a0800368:	03e00008 	jr	ra
a080036c:	00000000 	nop

a0800370 <get_cp0_COUNT>:
a0800370:	40024800 	mfc0	v0,c0_count
a0800374:	03e00008 	jr	ra
a0800378:	00000000 	nop

a080037c <set_cp0_COUNT>:
a080037c:	40844800 	mtc0	a0,c0_count
a0800380:	03e00008 	jr	ra
a0800384:	00000000 	nop

a0800388 <get_cp0_COMPARE>:
a0800388:	40025800 	mfc0	v0,c0_compare
a080038c:	03e00008 	jr	ra
a0800390:	00000000 	nop

a0800394 <get_cp0_epc>:
a0800394:	40027000 	mfc0	v0,c0_epc
a0800398:	03e00008 	jr	ra
a080039c:	00000000 	nop

a08003a0 <set_cp0_COMPARE>:
a08003a0:	40845800 	mtc0	a0,c0_compare
a08003a4:	03e00008 	jr	ra
a08003a8:	00000000 	nop

a08003ac <get_cp0_entryhi>:
a08003ac:	40025000 	mfc0	v0,c0_entryhi
a08003b0:	03e00008 	jr	ra
a08003b4:	00000000 	nop

a08003b8 <get_cp0_context>:
a08003b8:	40022000 	mfc0	v0,c0_context
a08003bc:	03e00008 	jr	ra
a08003c0:	00000000 	nop

a08003c4 <get_cp0_entrylo0>:
a08003c4:	40021000 	mfc0	v0,c0_entrylo0
a08003c8:	03e00008 	jr	ra
a08003cc:	00000000 	nop

a08003d0 <get_cp0_entrylo1>:
a08003d0:	40021800 	mfc0	v0,c0_entrylo1
a08003d4:	03e00008 	jr	ra
a08003d8:	00000000 	nop

a08003dc <get_cp0_index>:
a08003dc:	40020000 	mfc0	v0,c0_index
a08003e0:	03e00008 	jr	ra
a08003e4:	00000000 	nop

a08003e8 <set_cp0_entryhi>:
a08003e8:	40845000 	mtc0	a0,c0_entryhi
a08003ec:	03e00008 	jr	ra
a08003f0:	00000000 	nop

a08003f4 <set_cp0_entrylo0>:
a08003f4:	40841000 	mtc0	a0,c0_entrylo0
a08003f8:	03e00008 	jr	ra
a08003fc:	00000000 	nop

a0800400 <set_cp0_entrylo1>:
a0800400:	40841800 	mtc0	a0,c0_entrylo1
a0800404:	03e00008 	jr	ra
a0800408:	00000000 	nop

a080040c <set_cp0_index>:
a080040c:	40840000 	mtc0	a0,c0_index
a0800410:	03e00008 	jr	ra
a0800414:	00000000 	nop

a0800418 <read_card>:
a0800418:	0c01ec73 	jal	a007b1cc <USER+0xa007b130>
a080041c:	00000000 	nop
a0800420:	03e00008 	jr	ra
a0800424:	00000000 	nop

a0800428 <do_scheduler>:
a0800428:	3c1aa081 	lui	k0,0xa081
a080042c:	8f5a0100 	lw	k0,256(k0)
a0800430:	235a0000 	addi	k0,k0,0
a0800434:	af410004 	sw	at,4(k0)
a0800438:	af420008 	sw	v0,8(k0)
a080043c:	af43000c 	sw	v1,12(k0)
a0800440:	af440010 	sw	a0,16(k0)
a0800444:	af450014 	sw	a1,20(k0)
a0800448:	af460018 	sw	a2,24(k0)
a080044c:	af47001c 	sw	a3,28(k0)
a0800450:	af480020 	sw	t0,32(k0)
a0800454:	af490024 	sw	t1,36(k0)
a0800458:	af4a0028 	sw	t2,40(k0)
a080045c:	af4b002c 	sw	t3,44(k0)
a0800460:	af4c0030 	sw	t4,48(k0)
a0800464:	af4d0034 	sw	t5,52(k0)
a0800468:	af4e0038 	sw	t6,56(k0)
a080046c:	af4f003c 	sw	t7,60(k0)
a0800470:	af500040 	sw	s0,64(k0)
a0800474:	af510044 	sw	s1,68(k0)
a0800478:	af520048 	sw	s2,72(k0)
a080047c:	af53004c 	sw	s3,76(k0)
a0800480:	af540050 	sw	s4,80(k0)
a0800484:	af550054 	sw	s5,84(k0)
a0800488:	af560058 	sw	s6,88(k0)
a080048c:	af57005c 	sw	s7,92(k0)
a0800490:	af580060 	sw	t8,96(k0)
a0800494:	af590064 	sw	t9,100(k0)
a0800498:	af5c0070 	sw	gp,112(k0)
a080049c:	af5d0074 	sw	sp,116(k0)
a08004a0:	af5e0078 	sw	s8,120(k0)
a08004a4:	af5f007c 	sw	ra,124(k0)
a08004a8:	401b6000 	mfc0	k1,c0_sr
a08004ac:	00000000 	nop
a08004b0:	af5b0080 	sw	k1,128(k0)
a08004b4:	401b5000 	mfc0	k1,c0_entryhi
a08004b8:	00000000 	nop
a08004bc:	af5b0084 	sw	k1,132(k0)
a08004c0:	401b4000 	mfc0	k1,c0_badvaddr
a08004c4:	00000000 	nop
a08004c8:	af5b008c 	sw	k1,140(k0)
a08004cc:	401b7000 	mfc0	k1,c0_epc
a08004d0:	00000000 	nop
a08004d4:	0c201e11 	jal	a0807844 <scheduler>
a08004d8:	af5b0094 	sw	k1,148(k0)
a08004dc:	00000000 	nop
a08004e0:	3c1aa081 	lui	k0,0xa081
a08004e4:	8f5a0100 	lw	k0,256(k0)
a08004e8:	235a0000 	addi	k0,k0,0
a08004ec:	8f410004 	lw	at,4(k0)
a08004f0:	8f420008 	lw	v0,8(k0)
a08004f4:	8f43000c 	lw	v1,12(k0)
a08004f8:	8f440010 	lw	a0,16(k0)
a08004fc:	8f450014 	lw	a1,20(k0)
a0800500:	8f460018 	lw	a2,24(k0)
a0800504:	8f47001c 	lw	a3,28(k0)
a0800508:	8f480020 	lw	t0,32(k0)
a080050c:	8f490024 	lw	t1,36(k0)
a0800510:	8f4a0028 	lw	t2,40(k0)
a0800514:	8f4b002c 	lw	t3,44(k0)
a0800518:	8f4c0030 	lw	t4,48(k0)
a080051c:	8f4d0034 	lw	t5,52(k0)
a0800520:	8f4e0038 	lw	t6,56(k0)
a0800524:	8f4f003c 	lw	t7,60(k0)
a0800528:	8f500040 	lw	s0,64(k0)
a080052c:	8f510044 	lw	s1,68(k0)
a0800530:	8f520048 	lw	s2,72(k0)
a0800534:	8f53004c 	lw	s3,76(k0)
a0800538:	8f540050 	lw	s4,80(k0)
a080053c:	8f550054 	lw	s5,84(k0)
a0800540:	8f560058 	lw	s6,88(k0)
a0800544:	8f57005c 	lw	s7,92(k0)
a0800548:	8f580060 	lw	t8,96(k0)
a080054c:	8f590064 	lw	t9,100(k0)
a0800550:	8f5c0070 	lw	gp,112(k0)
a0800554:	8f5d0074 	lw	sp,116(k0)
a0800558:	8f5e0078 	lw	s8,120(k0)
a080055c:	8f5f007c 	lw	ra,124(k0)
a0800560:	8f5b0080 	lw	k1,128(k0)
a0800564:	409b6000 	mtc0	k1,c0_sr
a0800568:	8f5b0084 	lw	k1,132(k0)
a080056c:	409b5000 	mtc0	k1,c0_entryhi
a0800570:	8f5b008c 	lw	k1,140(k0)
a0800574:	409b4000 	mtc0	k1,c0_badvaddr
a0800578:	8f5b0094 	lw	k1,148(k0)
a080057c:	409b7000 	mtc0	k1,c0_epc
a0800580:	03e00008 	jr	ra
a0800584:	00000000 	nop
a0800588:	00000000 	nop

a080058c <TLBexception_handler_entry>:
a080058c:	401a6000 	mfc0	k0,c0_sr
a0800590:	241bfffe 	li	k1,-2
a0800594:	035bd024 	and	k0,k0,k1
a0800598:	409a6000 	mtc0	k0,c0_sr
a080059c:	3c1aa081 	lui	k0,0xa081
a08005a0:	8f5a0100 	lw	k0,256(k0)
a08005a4:	235a009c 	addi	k0,k0,156
a08005a8:	af410004 	sw	at,4(k0)
a08005ac:	af420008 	sw	v0,8(k0)
a08005b0:	af43000c 	sw	v1,12(k0)
a08005b4:	af440010 	sw	a0,16(k0)
a08005b8:	af450014 	sw	a1,20(k0)
a08005bc:	af460018 	sw	a2,24(k0)
a08005c0:	af47001c 	sw	a3,28(k0)
a08005c4:	af480020 	sw	t0,32(k0)
a08005c8:	af490024 	sw	t1,36(k0)
a08005cc:	af4a0028 	sw	t2,40(k0)
a08005d0:	af4b002c 	sw	t3,44(k0)
a08005d4:	af4c0030 	sw	t4,48(k0)
a08005d8:	af4d0034 	sw	t5,52(k0)
a08005dc:	af4e0038 	sw	t6,56(k0)
a08005e0:	af4f003c 	sw	t7,60(k0)
a08005e4:	af500040 	sw	s0,64(k0)
a08005e8:	af510044 	sw	s1,68(k0)
a08005ec:	af520048 	sw	s2,72(k0)
a08005f0:	af53004c 	sw	s3,76(k0)
a08005f4:	af540050 	sw	s4,80(k0)
a08005f8:	af550054 	sw	s5,84(k0)
a08005fc:	af560058 	sw	s6,88(k0)
a0800600:	af57005c 	sw	s7,92(k0)
a0800604:	af580060 	sw	t8,96(k0)
a0800608:	af590064 	sw	t9,100(k0)
a080060c:	af5c0070 	sw	gp,112(k0)
a0800610:	af5d0074 	sw	sp,116(k0)
a0800614:	af5e0078 	sw	s8,120(k0)
a0800618:	af5f007c 	sw	ra,124(k0)
a080061c:	401b6000 	mfc0	k1,c0_sr
a0800620:	00000000 	nop
a0800624:	af5b0080 	sw	k1,128(k0)
a0800628:	401b5000 	mfc0	k1,c0_entryhi
a080062c:	00000000 	nop
a0800630:	af5b0084 	sw	k1,132(k0)
a0800634:	401b4000 	mfc0	k1,c0_badvaddr
a0800638:	00000000 	nop
a080063c:	af5b008c 	sw	k1,140(k0)
a0800640:	401b7000 	mfc0	k1,c0_epc
a0800644:	00000000 	nop
a0800648:	af5b0094 	sw	k1,148(k0)
a080064c:	0820026d 	j	a08009b4 <handle_other>
a0800650:	00000000 	nop

a0800654 <exception_handler_entry>:
a0800654:	401a6000 	mfc0	k0,c0_sr
a0800658:	241bfffe 	li	k1,-2
a080065c:	035bd024 	and	k0,k0,k1
a0800660:	409a6000 	mtc0	k0,c0_sr
a0800664:	00000000 	nop
a0800668:	401a6800 	mfc0	k0,c0_cause
a080066c:	00000000 	nop
a0800670:	335a007c 	andi	k0,k0,0x7c
a0800674:	3c1ba081 	lui	k1,0xa081
a0800678:	277b3170 	addiu	k1,k1,12656
a080067c:	035bd020 	add	k0,k0,k1
a0800680:	8f5a0000 	lw	k0,0(k0)
a0800684:	03400008 	jr	k0
a0800688:	00000000 	nop
a080068c:	00000000 	nop

a0800690 <handle_int>:
a0800690:	3c1aa081 	lui	k0,0xa081
a0800694:	8f5a0100 	lw	k0,256(k0)
a0800698:	235a009c 	addi	k0,k0,156
a080069c:	af410004 	sw	at,4(k0)
a08006a0:	af420008 	sw	v0,8(k0)
a08006a4:	af43000c 	sw	v1,12(k0)
a08006a8:	af440010 	sw	a0,16(k0)
a08006ac:	af450014 	sw	a1,20(k0)
a08006b0:	af460018 	sw	a2,24(k0)
a08006b4:	af47001c 	sw	a3,28(k0)
a08006b8:	af480020 	sw	t0,32(k0)
a08006bc:	af490024 	sw	t1,36(k0)
a08006c0:	af4a0028 	sw	t2,40(k0)
a08006c4:	af4b002c 	sw	t3,44(k0)
a08006c8:	af4c0030 	sw	t4,48(k0)
a08006cc:	af4d0034 	sw	t5,52(k0)
a08006d0:	af4e0038 	sw	t6,56(k0)
a08006d4:	af4f003c 	sw	t7,60(k0)
a08006d8:	af500040 	sw	s0,64(k0)
a08006dc:	af510044 	sw	s1,68(k0)
a08006e0:	af520048 	sw	s2,72(k0)
a08006e4:	af53004c 	sw	s3,76(k0)
a08006e8:	af540050 	sw	s4,80(k0)
a08006ec:	af550054 	sw	s5,84(k0)
a08006f0:	af560058 	sw	s6,88(k0)
a08006f4:	af57005c 	sw	s7,92(k0)
a08006f8:	af580060 	sw	t8,96(k0)
a08006fc:	af590064 	sw	t9,100(k0)
a0800700:	af5c0070 	sw	gp,112(k0)
a0800704:	af5d0074 	sw	sp,116(k0)
a0800708:	af5e0078 	sw	s8,120(k0)
a080070c:	af5f007c 	sw	ra,124(k0)
a0800710:	401b6000 	mfc0	k1,c0_sr
a0800714:	00000000 	nop
a0800718:	af5b0080 	sw	k1,128(k0)
a080071c:	401b5000 	mfc0	k1,c0_entryhi
a0800720:	00000000 	nop
a0800724:	af5b0084 	sw	k1,132(k0)
a0800728:	401b4000 	mfc0	k1,c0_badvaddr
a080072c:	00000000 	nop
a0800730:	af5b008c 	sw	k1,140(k0)
a0800734:	401b7000 	mfc0	k1,c0_epc
a0800738:	00000000 	nop
a080073c:	af5b0094 	sw	k1,148(k0)
a0800740:	40046000 	mfc0	a0,c0_sr
a0800744:	40056800 	mfc0	a1,c0_cause
a0800748:	0c200b50 	jal	a0802d40 <interrupt_helper>
a080074c:	27bdfff8 	addiu	sp,sp,-8
a0800750:	00000000 	nop
a0800754:	27bd0008 	addiu	sp,sp,8

a0800758 <first_run_handle>:
a0800758:	3c1aa081 8f5a0100 235a009c 8f410004     ...<..Z...Z#..A.
a0800768:	8f420008 8f43000c 8f440010 8f450014     ..B...C...D...E.
a0800778:	8f460018 8f47001c 8f480020 8f490024     ..F...G. .H.$.I.
a0800788:	8f4a0028 8f4b002c 8f4c0030 8f4d0034     (.J.,.K.0.L.4.M.
a0800798:	8f4e0038 8f4f003c 8f500040 8f510044     8.N.<.O.@.P.D.Q.
a08007a8:	8f520048 8f53004c 8f540050 8f550054     H.R.L.S.P.T.T.U.
a08007b8:	8f560058 8f57005c 8f580060 8f590064     X.V.\.W.`.X.d.Y.
a08007c8:	8f5c0070 8f5d0074 8f5e0078 8f5f007c     p.\.t.].x.^.|._.
a08007d8:	8f5b0080 409b6000 8f5b0084 409b5000     ..[..`.@..[..P.@
a08007e8:	8f5b008c 409b4000 8f5b0094 409b7000     ..[..@.@..[..p.@
a08007f8:	00000000 40804800 3c1a0003 375a0d40     .....H.@...<@.Z7
a0800808:	409a5800 00000000 401a6000 00000000     .X.@.....`.@....
a0800818:	375a0001 409a6000 42000018 00000000     ..Z7.`.@...B....

a0800828 <handle_syscall>:
a0800828:	3c1aa081 	lui	k0,0xa081
a080082c:	8f5a0100 	lw	k0,256(k0)
a0800830:	235a009c 	addi	k0,k0,156
a0800834:	af410004 	sw	at,4(k0)
a0800838:	af420008 	sw	v0,8(k0)
a080083c:	af43000c 	sw	v1,12(k0)
a0800840:	af440010 	sw	a0,16(k0)
a0800844:	af450014 	sw	a1,20(k0)
a0800848:	af460018 	sw	a2,24(k0)
a080084c:	af47001c 	sw	a3,28(k0)
a0800850:	af480020 	sw	t0,32(k0)
a0800854:	af490024 	sw	t1,36(k0)
a0800858:	af4a0028 	sw	t2,40(k0)
a080085c:	af4b002c 	sw	t3,44(k0)
a0800860:	af4c0030 	sw	t4,48(k0)
a0800864:	af4d0034 	sw	t5,52(k0)
a0800868:	af4e0038 	sw	t6,56(k0)
a080086c:	af4f003c 	sw	t7,60(k0)
a0800870:	af500040 	sw	s0,64(k0)
a0800874:	af510044 	sw	s1,68(k0)
a0800878:	af520048 	sw	s2,72(k0)
a080087c:	af53004c 	sw	s3,76(k0)
a0800880:	af540050 	sw	s4,80(k0)
a0800884:	af550054 	sw	s5,84(k0)
a0800888:	af560058 	sw	s6,88(k0)
a080088c:	af57005c 	sw	s7,92(k0)
a0800890:	af580060 	sw	t8,96(k0)
a0800894:	af590064 	sw	t9,100(k0)
a0800898:	af5c0070 	sw	gp,112(k0)
a080089c:	af5d0074 	sw	sp,116(k0)
a08008a0:	af5e0078 	sw	s8,120(k0)
a08008a4:	af5f007c 	sw	ra,124(k0)
a08008a8:	401b6000 	mfc0	k1,c0_sr
a08008ac:	00000000 	nop
a08008b0:	af5b0080 	sw	k1,128(k0)
a08008b4:	401b5000 	mfc0	k1,c0_entryhi
a08008b8:	00000000 	nop
a08008bc:	af5b0084 	sw	k1,132(k0)
a08008c0:	401b4000 	mfc0	k1,c0_badvaddr
a08008c4:	00000000 	nop
a08008c8:	af5b008c 	sw	k1,140(k0)
a08008cc:	401b7000 	mfc0	k1,c0_epc
a08008d0:	00000000 	nop
a08008d4:	af5b0094 	sw	k1,148(k0)
a08008d8:	00c03820 	add	a3,a2,zero
a08008dc:	00a03020 	add	a2,a1,zero
a08008e0:	00802820 	add	a1,a0,zero
a08008e4:	00402020 	add	a0,v0,zero
a08008e8:	0c202258 	jal	a0808960 <system_call_helper>
a08008ec:	27bdfff0 	addiu	sp,sp,-16
a08008f0:	00000000 	nop
a08008f4:	27bd0010 	addiu	sp,sp,16
a08008f8:	3c1aa081 	lui	k0,0xa081
a08008fc:	8f5a0100 	lw	k0,256(k0)
a0800900:	235a009c 	addi	k0,k0,156
a0800904:	8f410004 	lw	at,4(k0)
a0800908:	8f420008 	lw	v0,8(k0)
a080090c:	8f43000c 	lw	v1,12(k0)
a0800910:	8f440010 	lw	a0,16(k0)
a0800914:	8f450014 	lw	a1,20(k0)
a0800918:	8f460018 	lw	a2,24(k0)
a080091c:	8f47001c 	lw	a3,28(k0)
a0800920:	8f480020 	lw	t0,32(k0)
a0800924:	8f490024 	lw	t1,36(k0)
a0800928:	8f4a0028 	lw	t2,40(k0)
a080092c:	8f4b002c 	lw	t3,44(k0)
a0800930:	8f4c0030 	lw	t4,48(k0)
a0800934:	8f4d0034 	lw	t5,52(k0)
a0800938:	8f4e0038 	lw	t6,56(k0)
a080093c:	8f4f003c 	lw	t7,60(k0)
a0800940:	8f500040 	lw	s0,64(k0)
a0800944:	8f510044 	lw	s1,68(k0)
a0800948:	8f520048 	lw	s2,72(k0)
a080094c:	8f53004c 	lw	s3,76(k0)
a0800950:	8f540050 	lw	s4,80(k0)
a0800954:	8f550054 	lw	s5,84(k0)
a0800958:	8f560058 	lw	s6,88(k0)
a080095c:	8f57005c 	lw	s7,92(k0)
a0800960:	8f580060 	lw	t8,96(k0)
a0800964:	8f590064 	lw	t9,100(k0)
a0800968:	8f5c0070 	lw	gp,112(k0)
a080096c:	8f5d0074 	lw	sp,116(k0)
a0800970:	8f5e0078 	lw	s8,120(k0)
a0800974:	8f5f007c 	lw	ra,124(k0)
a0800978:	8f5b0080 	lw	k1,128(k0)
a080097c:	409b6000 	mtc0	k1,c0_sr
a0800980:	8f5b0084 	lw	k1,132(k0)
a0800984:	409b5000 	mtc0	k1,c0_entryhi
a0800988:	8f5b008c 	lw	k1,140(k0)
a080098c:	409b4000 	mtc0	k1,c0_badvaddr
a0800990:	8f5b0094 	lw	k1,148(k0)
a0800994:	409b7000 	mtc0	k1,c0_epc
a0800998:	00000000 	nop
a080099c:	401a6000 	mfc0	k0,c0_sr
a08009a0:	00000000 	nop
a08009a4:	375a0001 	ori	k0,k0,0x1
a08009a8:	409a6000 	mtc0	k0,c0_sr
a08009ac:	42000018 	eret
a08009b0:	00000000 	nop

a08009b4 <handle_other>:
a08009b4:	3c1aa081 	lui	k0,0xa081
a08009b8:	8f5a0100 	lw	k0,256(k0)
a08009bc:	235a009c 	addi	k0,k0,156
a08009c0:	8f410004 	lw	at,4(k0)
a08009c4:	8f420008 	lw	v0,8(k0)
a08009c8:	8f43000c 	lw	v1,12(k0)
a08009cc:	8f440010 	lw	a0,16(k0)
a08009d0:	8f450014 	lw	a1,20(k0)
a08009d4:	8f460018 	lw	a2,24(k0)
a08009d8:	8f47001c 	lw	a3,28(k0)
a08009dc:	8f480020 	lw	t0,32(k0)
a08009e0:	8f490024 	lw	t1,36(k0)
a08009e4:	8f4a0028 	lw	t2,40(k0)
a08009e8:	8f4b002c 	lw	t3,44(k0)
a08009ec:	8f4c0030 	lw	t4,48(k0)
a08009f0:	8f4d0034 	lw	t5,52(k0)
a08009f4:	8f4e0038 	lw	t6,56(k0)
a08009f8:	8f4f003c 	lw	t7,60(k0)
a08009fc:	8f500040 	lw	s0,64(k0)
a0800a00:	8f510044 	lw	s1,68(k0)
a0800a04:	8f520048 	lw	s2,72(k0)
a0800a08:	8f53004c 	lw	s3,76(k0)
a0800a0c:	8f540050 	lw	s4,80(k0)
a0800a10:	8f550054 	lw	s5,84(k0)
a0800a14:	8f560058 	lw	s6,88(k0)
a0800a18:	8f57005c 	lw	s7,92(k0)
a0800a1c:	8f580060 	lw	t8,96(k0)
a0800a20:	8f590064 	lw	t9,100(k0)
a0800a24:	8f5c0070 	lw	gp,112(k0)
a0800a28:	8f5d0074 	lw	sp,116(k0)
a0800a2c:	8f5e0078 	lw	s8,120(k0)
a0800a30:	8f5f007c 	lw	ra,124(k0)
a0800a34:	8f5b0080 	lw	k1,128(k0)
a0800a38:	409b6000 	mtc0	k1,c0_sr
a0800a3c:	8f5b0084 	lw	k1,132(k0)
a0800a40:	409b5000 	mtc0	k1,c0_entryhi
a0800a44:	8f5b008c 	lw	k1,140(k0)
a0800a48:	409b4000 	mtc0	k1,c0_badvaddr
a0800a4c:	8f5b0094 	lw	k1,148(k0)
a0800a50:	409b7000 	mtc0	k1,c0_epc
a0800a54:	00000000 	nop
a0800a58:	401a6000 	mfc0	k0,c0_sr
a0800a5c:	00000000 	nop
a0800a60:	375a0001 	ori	k0,k0,0x1
a0800a64:	409a6000 	mtc0	k0,c0_sr
a0800a68:	42000018 	eret
a0800a6c:	00000000 	nop

a0800a70 <invoke_syscall>:
a0800a70:	00801020 	add	v0,a0,zero
a0800a74:	00a02020 	add	a0,a1,zero
a0800a78:	00c02820 	add	a1,a2,zero
a0800a7c:	00e03020 	add	a2,a3,zero
a0800a80:	0000000c 	syscall
a0800a84:	03e00008 	jr	ra
a0800a88:	00000000 	nop
a0800a8c:	00000000 	nop

a0800a90 <port_write_ch>:
a0800a90:	27bdffe0 	addiu	sp,sp,-32
a0800a94:	afbf001c 	sw	ra,28(sp)
a0800a98:	afbe0018 	sw	s8,24(sp)
a0800a9c:	03a0f021 	move	s8,sp
a0800aa0:	00801021 	move	v0,a0
a0800aa4:	a3c20020 	sb	v0,32(s8)
a0800aa8:	3c028007 	lui	v0,0x8007
a0800aac:	3442ba00 	ori	v0,v0,0xba00
a0800ab0:	afc20010 	sw	v0,16(s8)
a0800ab4:	83c20020 	lb	v0,32(s8)
a0800ab8:	8fc30010 	lw	v1,16(s8)
a0800abc:	00402021 	move	a0,v0
a0800ac0:	0060f809 	jalr	v1
a0800ac4:	00000000 	nop
a0800ac8:	03c0e821 	move	sp,s8
a0800acc:	8fbf001c 	lw	ra,28(sp)
a0800ad0:	8fbe0018 	lw	s8,24(sp)
a0800ad4:	27bd0020 	addiu	sp,sp,32
a0800ad8:	03e00008 	jr	ra
a0800adc:	00000000 	nop

a0800ae0 <port_write>:
a0800ae0:	27bdffe0 	addiu	sp,sp,-32
a0800ae4:	afbf001c 	sw	ra,28(sp)
a0800ae8:	afbe0018 	sw	s8,24(sp)
a0800aec:	03a0f021 	move	s8,sp
a0800af0:	afc40020 	sw	a0,32(s8)
a0800af4:	3c028007 	lui	v0,0x8007
a0800af8:	3442b980 	ori	v0,v0,0xb980
a0800afc:	afc20010 	sw	v0,16(s8)
a0800b00:	8fc20010 	lw	v0,16(s8)
a0800b04:	8fc40020 	lw	a0,32(s8)
a0800b08:	0040f809 	jalr	v0
a0800b0c:	00000000 	nop
a0800b10:	03c0e821 	move	sp,s8
a0800b14:	8fbf001c 	lw	ra,28(sp)
a0800b18:	8fbe0018 	lw	s8,24(sp)
a0800b1c:	27bd0020 	addiu	sp,sp,32
a0800b20:	03e00008 	jr	ra
a0800b24:	00000000 	nop
	...

a0800b30 <vt100_move_cursor>:
a0800b30:	27bdffe8 	addiu	sp,sp,-24
a0800b34:	afbf0014 	sw	ra,20(sp)
a0800b38:	afbe0010 	sw	s8,16(sp)
a0800b3c:	03a0f021 	move	s8,sp
a0800b40:	afc40018 	sw	a0,24(s8)
a0800b44:	afc5001c 	sw	a1,28(s8)
a0800b48:	3c02a081 	lui	v0,0xa081
a0800b4c:	2444e410 	addiu	a0,v0,-7152
a0800b50:	2405001b 	li	a1,27
a0800b54:	8fc6001c 	lw	a2,28(s8)
a0800b58:	8fc70018 	lw	a3,24(s8)
a0800b5c:	0c202b09 	jal	a080ac24 <printk>
a0800b60:	00000000 	nop
a0800b64:	03c0e821 	move	sp,s8
a0800b68:	8fbf0014 	lw	ra,20(sp)
a0800b6c:	8fbe0010 	lw	s8,16(sp)
a0800b70:	27bd0018 	addiu	sp,sp,24
a0800b74:	03e00008 	jr	ra
a0800b78:	00000000 	nop

a0800b7c <vt100_clear>:
a0800b7c:	27bdffe8 	addiu	sp,sp,-24
a0800b80:	afbf0014 	sw	ra,20(sp)
a0800b84:	afbe0010 	sw	s8,16(sp)
a0800b88:	03a0f021 	move	s8,sp
a0800b8c:	3c02a081 	lui	v0,0xa081
a0800b90:	2444e41c 	addiu	a0,v0,-7140
a0800b94:	2405001b 	li	a1,27
a0800b98:	0c202b09 	jal	a080ac24 <printk>
a0800b9c:	00000000 	nop
a0800ba0:	03c0e821 	move	sp,s8
a0800ba4:	8fbf0014 	lw	ra,20(sp)
a0800ba8:	8fbe0010 	lw	s8,16(sp)
a0800bac:	27bd0018 	addiu	sp,sp,24
a0800bb0:	03e00008 	jr	ra
a0800bb4:	00000000 	nop

a0800bb8 <vt100_hidden_cursor>:
a0800bb8:	27bdffe8 	addiu	sp,sp,-24
a0800bbc:	afbf0014 	sw	ra,20(sp)
a0800bc0:	afbe0010 	sw	s8,16(sp)
a0800bc4:	03a0f021 	move	s8,sp
a0800bc8:	3c02a081 	lui	v0,0xa081
a0800bcc:	2444e424 	addiu	a0,v0,-7132
a0800bd0:	2405001b 	li	a1,27
a0800bd4:	0c202b09 	jal	a080ac24 <printk>
a0800bd8:	00000000 	nop
a0800bdc:	03c0e821 	move	sp,s8
a0800be0:	8fbf0014 	lw	ra,20(sp)
a0800be4:	8fbe0010 	lw	s8,16(sp)
a0800be8:	27bd0018 	addiu	sp,sp,24
a0800bec:	03e00008 	jr	ra
a0800bf0:	00000000 	nop

a0800bf4 <screen_scroll>:
a0800bf4:	27bdfff0 	addiu	sp,sp,-16
a0800bf8:	afbe000c 	sw	s8,12(sp)
a0800bfc:	03a0f021 	move	s8,sp
a0800c00:	afc40010 	sw	a0,16(s8)
a0800c04:	afc50014 	sw	a1,20(s8)
a0800c08:	8fc20010 	lw	v0,16(s8)
a0800c0c:	afc20004 	sw	v0,4(s8)
a0800c10:	0820031d 	j	a0800c74 <screen_scroll+0x80>
a0800c14:	00000000 	nop
a0800c18:	afc00000 	sw	zero,0(s8)
a0800c1c:	08200316 	j	a0800c58 <screen_scroll+0x64>
a0800c20:	00000000 	nop
a0800c24:	8fc20004 	lw	v0,4(s8)
a0800c28:	00021900 	sll	v1,v0,0x4
a0800c2c:	00031080 	sll	v0,v1,0x2
a0800c30:	00621821 	addu	v1,v1,v0
a0800c34:	8fc20000 	lw	v0,0(s8)
a0800c38:	00621821 	addu	v1,v1,v0
a0800c3c:	3c02a081 	lui	v0,0xa081
a0800c40:	24420a80 	addiu	v0,v0,2688
a0800c44:	00621021 	addu	v0,v1,v0
a0800c48:	a0400000 	sb	zero,0(v0)
a0800c4c:	8fc20000 	lw	v0,0(s8)
a0800c50:	24420001 	addiu	v0,v0,1
a0800c54:	afc20000 	sw	v0,0(s8)
a0800c58:	8fc20000 	lw	v0,0(s8)
a0800c5c:	28420050 	slti	v0,v0,80
a0800c60:	1440fff0 	bnez	v0,a0800c24 <screen_scroll+0x30>
a0800c64:	00000000 	nop
a0800c68:	8fc20004 	lw	v0,4(s8)
a0800c6c:	24420001 	addiu	v0,v0,1
a0800c70:	afc20004 	sw	v0,4(s8)
a0800c74:	8fc20004 	lw	v0,4(s8)
a0800c78:	8fc30014 	lw	v1,20(s8)
a0800c7c:	0062102a 	slt	v0,v1,v0
a0800c80:	1040ffe5 	beqz	v0,a0800c18 <screen_scroll+0x24>
a0800c84:	00000000 	nop
a0800c88:	8fc20010 	lw	v0,16(s8)
a0800c8c:	afc20004 	sw	v0,4(s8)
a0800c90:	08200359 	j	a0800d64 <screen_scroll+0x170>
a0800c94:	00000000 	nop
a0800c98:	afc00000 	sw	zero,0(s8)
a0800c9c:	08200352 	j	a0800d48 <screen_scroll+0x154>
a0800ca0:	00000000 	nop
a0800ca4:	8fc30004 	lw	v1,4(s8)
a0800ca8:	8fc20014 	lw	v0,20(s8)
a0800cac:	1462000e 	bne	v1,v0,a0800ce8 <screen_scroll+0xf4>
a0800cb0:	00000000 	nop
a0800cb4:	8fc20004 	lw	v0,4(s8)
a0800cb8:	00021900 	sll	v1,v0,0x4
a0800cbc:	00031080 	sll	v0,v1,0x2
a0800cc0:	00621821 	addu	v1,v1,v0
a0800cc4:	8fc20000 	lw	v0,0(s8)
a0800cc8:	00621821 	addu	v1,v1,v0
a0800ccc:	3c02a081 	lui	v0,0xa081
a0800cd0:	24420120 	addiu	v0,v0,288
a0800cd4:	00621821 	addu	v1,v1,v0
a0800cd8:	24020020 	li	v0,32
a0800cdc:	a0620000 	sb	v0,0(v1)
a0800ce0:	0820034f 	j	a0800d3c <screen_scroll+0x148>
a0800ce4:	00000000 	nop
a0800ce8:	8fc20004 	lw	v0,4(s8)
a0800cec:	00021900 	sll	v1,v0,0x4
a0800cf0:	00031080 	sll	v0,v1,0x2
a0800cf4:	00621821 	addu	v1,v1,v0
a0800cf8:	8fc20000 	lw	v0,0(s8)
a0800cfc:	00622021 	addu	a0,v1,v0
a0800d00:	8fc20004 	lw	v0,4(s8)
a0800d04:	24420001 	addiu	v0,v0,1
a0800d08:	00021900 	sll	v1,v0,0x4
a0800d0c:	00031080 	sll	v0,v1,0x2
a0800d10:	00621821 	addu	v1,v1,v0
a0800d14:	8fc20000 	lw	v0,0(s8)
a0800d18:	00621821 	addu	v1,v1,v0
a0800d1c:	3c02a081 	lui	v0,0xa081
a0800d20:	24420120 	addiu	v0,v0,288
a0800d24:	00621021 	addu	v0,v1,v0
a0800d28:	80430000 	lb	v1,0(v0)
a0800d2c:	3c02a081 	lui	v0,0xa081
a0800d30:	24420120 	addiu	v0,v0,288
a0800d34:	00821021 	addu	v0,a0,v0
a0800d38:	a0430000 	sb	v1,0(v0)
a0800d3c:	8fc20000 	lw	v0,0(s8)
a0800d40:	24420001 	addiu	v0,v0,1
a0800d44:	afc20000 	sw	v0,0(s8)
a0800d48:	8fc20000 	lw	v0,0(s8)
a0800d4c:	28420050 	slti	v0,v0,80
a0800d50:	1440ffd4 	bnez	v0,a0800ca4 <screen_scroll+0xb0>
a0800d54:	00000000 	nop
a0800d58:	8fc20004 	lw	v0,4(s8)
a0800d5c:	24420001 	addiu	v0,v0,1
a0800d60:	afc20004 	sw	v0,4(s8)
a0800d64:	8fc20004 	lw	v0,4(s8)
a0800d68:	8fc30014 	lw	v1,20(s8)
a0800d6c:	0062102a 	slt	v0,v1,v0
a0800d70:	1040ffc9 	beqz	v0,a0800c98 <screen_scroll+0xa4>
a0800d74:	00000000 	nop
a0800d78:	03c0e821 	move	sp,s8
a0800d7c:	8fbe000c 	lw	s8,12(sp)
a0800d80:	27bd0010 	addiu	sp,sp,16
a0800d84:	03e00008 	jr	ra
a0800d88:	00000000 	nop

a0800d8c <screen_write_ch>:
a0800d8c:	27bdffe8 	addiu	sp,sp,-24
a0800d90:	afbf0014 	sw	ra,20(sp)
a0800d94:	afbe0010 	sw	s8,16(sp)
a0800d98:	03a0f021 	move	s8,sp
a0800d9c:	00801021 	move	v0,a0
a0800da0:	a3c20018 	sb	v0,24(s8)
a0800da4:	83c30018 	lb	v1,24(s8)
a0800da8:	2402000a 	li	v0,10
a0800dac:	1462000a 	bne	v1,v0,a0800dd8 <screen_write_ch+0x4c>
a0800db0:	00000000 	nop
a0800db4:	3c02a081 	lui	v0,0xa081
a0800db8:	ac4000a4 	sw	zero,164(v0)
a0800dbc:	3c02a081 	lui	v0,0xa081
a0800dc0:	8c4200a8 	lw	v0,168(v0)
a0800dc4:	24430001 	addiu	v1,v0,1
a0800dc8:	3c02a081 	lui	v0,0xa081
a0800dcc:	ac4300a8 	sw	v1,168(v0)
a0800dd0:	082003b5 	j	a0800ed4 <screen_write_ch+0x148>
a0800dd4:	00000000 	nop
a0800dd8:	83c30018 	lb	v1,24(s8)
a0800ddc:	24020008 	li	v0,8
a0800de0:	10620005 	beq	v1,v0,a0800df8 <screen_write_ch+0x6c>
a0800de4:	00000000 	nop
a0800de8:	83c30018 	lb	v1,24(s8)
a0800dec:	2402007f 	li	v0,127
a0800df0:	14620019 	bne	v1,v0,a0800e58 <screen_write_ch+0xcc>
a0800df4:	00000000 	nop
a0800df8:	3c02a081 	lui	v0,0xa081
a0800dfc:	8c4200a4 	lw	v0,164(v0)
a0800e00:	18400034 	blez	v0,a0800ed4 <screen_write_ch+0x148>
a0800e04:	00000000 	nop
a0800e08:	3c02a081 	lui	v0,0xa081
a0800e0c:	8c4200a4 	lw	v0,164(v0)
a0800e10:	2443ffff 	addiu	v1,v0,-1
a0800e14:	3c02a081 	lui	v0,0xa081
a0800e18:	ac4300a4 	sw	v1,164(v0)
a0800e1c:	3c02a081 	lui	v0,0xa081
a0800e20:	8c4200a8 	lw	v0,168(v0)
a0800e24:	00021900 	sll	v1,v0,0x4
a0800e28:	00031080 	sll	v0,v1,0x2
a0800e2c:	00621821 	addu	v1,v1,v0
a0800e30:	3c02a081 	lui	v0,0xa081
a0800e34:	8c4200a4 	lw	v0,164(v0)
a0800e38:	00621821 	addu	v1,v1,v0
a0800e3c:	3c02a081 	lui	v0,0xa081
a0800e40:	24420120 	addiu	v0,v0,288
a0800e44:	00621821 	addu	v1,v1,v0
a0800e48:	24020020 	li	v0,32
a0800e4c:	a0620000 	sb	v0,0(v1)
a0800e50:	082003b5 	j	a0800ed4 <screen_write_ch+0x148>
a0800e54:	00000000 	nop
a0800e58:	83c30018 	lb	v1,24(s8)
a0800e5c:	2402000d 	li	v0,13
a0800e60:	1462000a 	bne	v1,v0,a0800e8c <screen_write_ch+0x100>
a0800e64:	00000000 	nop
a0800e68:	3c02a081 	lui	v0,0xa081
a0800e6c:	ac4000a4 	sw	zero,164(v0)
a0800e70:	3c02a081 	lui	v0,0xa081
a0800e74:	8c4200a8 	lw	v0,168(v0)
a0800e78:	24430001 	addiu	v1,v0,1
a0800e7c:	3c02a081 	lui	v0,0xa081
a0800e80:	ac4300a8 	sw	v1,168(v0)
a0800e84:	082003b5 	j	a0800ed4 <screen_write_ch+0x148>
a0800e88:	00000000 	nop
a0800e8c:	3c02a081 	lui	v0,0xa081
a0800e90:	8c4200a8 	lw	v0,168(v0)
a0800e94:	00021900 	sll	v1,v0,0x4
a0800e98:	00031080 	sll	v0,v1,0x2
a0800e9c:	00621821 	addu	v1,v1,v0
a0800ea0:	3c02a081 	lui	v0,0xa081
a0800ea4:	8c4200a4 	lw	v0,164(v0)
a0800ea8:	00621821 	addu	v1,v1,v0
a0800eac:	3c02a081 	lui	v0,0xa081
a0800eb0:	24420120 	addiu	v0,v0,288
a0800eb4:	00621821 	addu	v1,v1,v0
a0800eb8:	93c20018 	lbu	v0,24(s8)
a0800ebc:	a0620000 	sb	v0,0(v1)
a0800ec0:	3c02a081 	lui	v0,0xa081
a0800ec4:	8c4200a4 	lw	v0,164(v0)
a0800ec8:	24430001 	addiu	v1,v0,1
a0800ecc:	3c02a081 	lui	v0,0xa081
a0800ed0:	ac4300a4 	sw	v1,164(v0)
a0800ed4:	3c02a081 	lui	v0,0xa081
a0800ed8:	8c4200a4 	lw	v0,164(v0)
a0800edc:	04410003 	bgez	v0,a0800eec <screen_write_ch+0x160>
a0800ee0:	00000000 	nop
a0800ee4:	3c02a081 	lui	v0,0xa081
a0800ee8:	ac4000a4 	sw	zero,164(v0)
a0800eec:	3c02a081 	lui	v0,0xa081
a0800ef0:	8c4200a4 	lw	v0,164(v0)
a0800ef4:	28420050 	slti	v0,v0,80
a0800ef8:	14400008 	bnez	v0,a0800f1c <screen_write_ch+0x190>
a0800efc:	00000000 	nop
a0800f00:	3c02a081 	lui	v0,0xa081
a0800f04:	8c4200a8 	lw	v0,168(v0)
a0800f08:	24430001 	addiu	v1,v0,1
a0800f0c:	3c02a081 	lui	v0,0xa081
a0800f10:	ac4300a8 	sw	v1,168(v0)
a0800f14:	3c02a081 	lui	v0,0xa081
a0800f18:	ac4000a4 	sw	zero,164(v0)
a0800f1c:	3c02a081 	lui	v0,0xa081
a0800f20:	8c4200a8 	lw	v0,168(v0)
a0800f24:	04410003 	bgez	v0,a0800f34 <screen_write_ch+0x1a8>
a0800f28:	00000000 	nop
a0800f2c:	3c02a081 	lui	v0,0xa081
a0800f30:	ac4000a8 	sw	zero,168(v0)
a0800f34:	3c02a081 	lui	v0,0xa081
a0800f38:	8c4200a8 	lw	v0,168(v0)
a0800f3c:	2842001e 	slti	v0,v0,30
a0800f40:	1440000a 	bnez	v0,a0800f6c <screen_write_ch+0x1e0>
a0800f44:	00000000 	nop
a0800f48:	24040010 	li	a0,16
a0800f4c:	2405001d 	li	a1,29
a0800f50:	0c2002fd 	jal	a0800bf4 <screen_scroll>
a0800f54:	00000000 	nop
a0800f58:	3c02a081 	lui	v0,0xa081
a0800f5c:	ac4000a4 	sw	zero,164(v0)
a0800f60:	3c03a081 	lui	v1,0xa081
a0800f64:	2402001d 	li	v0,29
a0800f68:	ac6200a8 	sw	v0,168(v1)
a0800f6c:	03c0e821 	move	sp,s8
a0800f70:	8fbf0014 	lw	ra,20(sp)
a0800f74:	8fbe0010 	lw	s8,16(sp)
a0800f78:	27bd0018 	addiu	sp,sp,24
a0800f7c:	03e00008 	jr	ra
a0800f80:	00000000 	nop

a0800f84 <init_screen>:
a0800f84:	27bdffe8 	addiu	sp,sp,-24
a0800f88:	afbf0014 	sw	ra,20(sp)
a0800f8c:	afbe0010 	sw	s8,16(sp)
a0800f90:	03a0f021 	move	s8,sp
a0800f94:	0c2002ee 	jal	a0800bb8 <vt100_hidden_cursor>
a0800f98:	00000000 	nop
a0800f9c:	0c2002df 	jal	a0800b7c <vt100_clear>
a0800fa0:	00000000 	nop
a0800fa4:	00002021 	move	a0,zero
a0800fa8:	2405001d 	li	a1,29
a0800fac:	0c2003f3 	jal	a0800fcc <screen_clear>
a0800fb0:	00000000 	nop
a0800fb4:	03c0e821 	move	sp,s8
a0800fb8:	8fbf0014 	lw	ra,20(sp)
a0800fbc:	8fbe0010 	lw	s8,16(sp)
a0800fc0:	27bd0018 	addiu	sp,sp,24
a0800fc4:	03e00008 	jr	ra
a0800fc8:	00000000 	nop

a0800fcc <screen_clear>:
a0800fcc:	27bdffe0 	addiu	sp,sp,-32
a0800fd0:	afbf001c 	sw	ra,28(sp)
a0800fd4:	afbe0018 	sw	s8,24(sp)
a0800fd8:	03a0f021 	move	s8,sp
a0800fdc:	afc40020 	sw	a0,32(s8)
a0800fe0:	afc50024 	sw	a1,36(s8)
a0800fe4:	8fc20020 	lw	v0,32(s8)
a0800fe8:	afc20014 	sw	v0,20(s8)
a0800fec:	0820041f 	j	a080107c <screen_clear+0xb0>
a0800ff0:	00000000 	nop
a0800ff4:	afc00010 	sw	zero,16(s8)
a0800ff8:	08200418 	j	a0801060 <screen_clear+0x94>
a0800ffc:	00000000 	nop
a0801000:	8fc20014 	lw	v0,20(s8)
a0801004:	00021900 	sll	v1,v0,0x4
a0801008:	00031080 	sll	v0,v1,0x2
a080100c:	00621821 	addu	v1,v1,v0
a0801010:	8fc20010 	lw	v0,16(s8)
a0801014:	00621821 	addu	v1,v1,v0
a0801018:	3c02a081 	lui	v0,0xa081
a080101c:	24420120 	addiu	v0,v0,288
a0801020:	00621821 	addu	v1,v1,v0
a0801024:	24020020 	li	v0,32
a0801028:	a0620000 	sb	v0,0(v1)
a080102c:	8fc20014 	lw	v0,20(s8)
a0801030:	00021900 	sll	v1,v0,0x4
a0801034:	00031080 	sll	v0,v1,0x2
a0801038:	00621821 	addu	v1,v1,v0
a080103c:	8fc20010 	lw	v0,16(s8)
a0801040:	00621821 	addu	v1,v1,v0
a0801044:	3c02a081 	lui	v0,0xa081
a0801048:	24420a80 	addiu	v0,v0,2688
a080104c:	00621021 	addu	v0,v1,v0
a0801050:	a0400000 	sb	zero,0(v0)
a0801054:	8fc20010 	lw	v0,16(s8)
a0801058:	24420001 	addiu	v0,v0,1
a080105c:	afc20010 	sw	v0,16(s8)
a0801060:	8fc20010 	lw	v0,16(s8)
a0801064:	28420050 	slti	v0,v0,80
a0801068:	1440ffe5 	bnez	v0,a0801000 <screen_clear+0x34>
a080106c:	00000000 	nop
a0801070:	8fc20014 	lw	v0,20(s8)
a0801074:	24420001 	addiu	v0,v0,1
a0801078:	afc20014 	sw	v0,20(s8)
a080107c:	8fc20014 	lw	v0,20(s8)
a0801080:	8fc30024 	lw	v1,36(s8)
a0801084:	0043102a 	slt	v0,v0,v1
a0801088:	1440ffda 	bnez	v0,a0800ff4 <screen_clear+0x28>
a080108c:	00000000 	nop
a0801090:	3c02a081 	lui	v0,0xa081
a0801094:	ac4000a4 	sw	zero,164(v0)
a0801098:	3c02a081 	lui	v0,0xa081
a080109c:	ac4000a8 	sw	zero,168(v0)
a08010a0:	0c200462 	jal	a0801188 <screen_reflush>
a08010a4:	00000000 	nop
a08010a8:	03c0e821 	move	sp,s8
a08010ac:	8fbf001c 	lw	ra,28(sp)
a08010b0:	8fbe0018 	lw	s8,24(sp)
a08010b4:	27bd0020 	addiu	sp,sp,32
a08010b8:	03e00008 	jr	ra
a08010bc:	00000000 	nop

a08010c0 <screen_move_cursor>:
a08010c0:	27bdfff8 	addiu	sp,sp,-8
a08010c4:	afbe0004 	sw	s8,4(sp)
a08010c8:	03a0f021 	move	s8,sp
a08010cc:	afc40008 	sw	a0,8(s8)
a08010d0:	afc5000c 	sw	a1,12(s8)
a08010d4:	3c03a081 	lui	v1,0xa081
a08010d8:	8fc20008 	lw	v0,8(s8)
a08010dc:	ac6200a4 	sw	v0,164(v1)
a08010e0:	3c03a081 	lui	v1,0xa081
a08010e4:	8fc2000c 	lw	v0,12(s8)
a08010e8:	ac6200a8 	sw	v0,168(v1)
a08010ec:	03c0e821 	move	sp,s8
a08010f0:	8fbe0004 	lw	s8,4(sp)
a08010f4:	27bd0008 	addiu	sp,sp,8
a08010f8:	03e00008 	jr	ra
a08010fc:	00000000 	nop

a0801100 <screen_write>:
a0801100:	27bdffe0 	addiu	sp,sp,-32
a0801104:	afbf001c 	sw	ra,28(sp)
a0801108:	afbe0018 	sw	s8,24(sp)
a080110c:	03a0f021 	move	s8,sp
a0801110:	afc40020 	sw	a0,32(s8)
a0801114:	afc00014 	sw	zero,20(s8)
a0801118:	8fc40020 	lw	a0,32(s8)
a080111c:	0c2027e4 	jal	a0809f90 <strlen>
a0801120:	00000000 	nop
a0801124:	afc20010 	sw	v0,16(s8)
a0801128:	afc00014 	sw	zero,20(s8)
a080112c:	08200457 	j	a080115c <screen_write+0x5c>
a0801130:	00000000 	nop
a0801134:	8fc30014 	lw	v1,20(s8)
a0801138:	8fc20020 	lw	v0,32(s8)
a080113c:	00431021 	addu	v0,v0,v1
a0801140:	80420000 	lb	v0,0(v0)
a0801144:	00402021 	move	a0,v0
a0801148:	0c200363 	jal	a0800d8c <screen_write_ch>
a080114c:	00000000 	nop
a0801150:	8fc20014 	lw	v0,20(s8)
a0801154:	24420001 	addiu	v0,v0,1
a0801158:	afc20014 	sw	v0,20(s8)
a080115c:	8fc20014 	lw	v0,20(s8)
a0801160:	8fc30010 	lw	v1,16(s8)
a0801164:	0043102a 	slt	v0,v0,v1
a0801168:	1440fff2 	bnez	v0,a0801134 <screen_write+0x34>
a080116c:	00000000 	nop
a0801170:	03c0e821 	move	sp,s8
a0801174:	8fbf001c 	lw	ra,28(sp)
a0801178:	8fbe0018 	lw	s8,24(sp)
a080117c:	27bd0020 	addiu	sp,sp,32
a0801180:	03e00008 	jr	ra
a0801184:	00000000 	nop

a0801188 <screen_reflush>:
a0801188:	27bdffe0 	addiu	sp,sp,-32
a080118c:	afbf001c 	sw	ra,28(sp)
a0801190:	afbe0018 	sw	s8,24(sp)
a0801194:	03a0f021 	move	s8,sp
a0801198:	afc00014 	sw	zero,20(s8)
a080119c:	082004b5 	j	a08012d4 <screen_reflush+0x14c>
a08011a0:	00000000 	nop
a08011a4:	afc00010 	sw	zero,16(s8)
a08011a8:	082004ae 	j	a08012b8 <screen_reflush+0x130>
a08011ac:	00000000 	nop
a08011b0:	8fc20014 	lw	v0,20(s8)
a08011b4:	00021900 	sll	v1,v0,0x4
a08011b8:	00031080 	sll	v0,v1,0x2
a08011bc:	00621821 	addu	v1,v1,v0
a08011c0:	8fc20010 	lw	v0,16(s8)
a08011c4:	00621821 	addu	v1,v1,v0
a08011c8:	3c02a081 	lui	v0,0xa081
a08011cc:	24420120 	addiu	v0,v0,288
a08011d0:	00621021 	addu	v0,v1,v0
a08011d4:	80440000 	lb	a0,0(v0)
a08011d8:	8fc20014 	lw	v0,20(s8)
a08011dc:	00021900 	sll	v1,v0,0x4
a08011e0:	00031080 	sll	v0,v1,0x2
a08011e4:	00621821 	addu	v1,v1,v0
a08011e8:	8fc20010 	lw	v0,16(s8)
a08011ec:	00621821 	addu	v1,v1,v0
a08011f0:	3c02a081 	lui	v0,0xa081
a08011f4:	24420a80 	addiu	v0,v0,2688
a08011f8:	00621021 	addu	v0,v1,v0
a08011fc:	80420000 	lb	v0,0(v0)
a0801200:	1082002a 	beq	a0,v0,a08012ac <screen_reflush+0x124>
a0801204:	00000000 	nop
a0801208:	8fc20010 	lw	v0,16(s8)
a080120c:	24430001 	addiu	v1,v0,1
a0801210:	8fc20014 	lw	v0,20(s8)
a0801214:	24420001 	addiu	v0,v0,1
a0801218:	00602021 	move	a0,v1
a080121c:	00402821 	move	a1,v0
a0801220:	0c2002cc 	jal	a0800b30 <vt100_move_cursor>
a0801224:	00000000 	nop
a0801228:	8fc20014 	lw	v0,20(s8)
a080122c:	00021900 	sll	v1,v0,0x4
a0801230:	00031080 	sll	v0,v1,0x2
a0801234:	00621821 	addu	v1,v1,v0
a0801238:	8fc20010 	lw	v0,16(s8)
a080123c:	00621821 	addu	v1,v1,v0
a0801240:	3c02a081 	lui	v0,0xa081
a0801244:	24420120 	addiu	v0,v0,288
a0801248:	00621021 	addu	v0,v1,v0
a080124c:	80420000 	lb	v0,0(v0)
a0801250:	00402021 	move	a0,v0
a0801254:	0c2002a4 	jal	a0800a90 <port_write_ch>
a0801258:	00000000 	nop
a080125c:	8fc20014 	lw	v0,20(s8)
a0801260:	00021900 	sll	v1,v0,0x4
a0801264:	00031080 	sll	v0,v1,0x2
a0801268:	00621821 	addu	v1,v1,v0
a080126c:	8fc20010 	lw	v0,16(s8)
a0801270:	00622021 	addu	a0,v1,v0
a0801274:	8fc20014 	lw	v0,20(s8)
a0801278:	00021900 	sll	v1,v0,0x4
a080127c:	00031080 	sll	v0,v1,0x2
a0801280:	00621821 	addu	v1,v1,v0
a0801284:	8fc20010 	lw	v0,16(s8)
a0801288:	00621821 	addu	v1,v1,v0
a080128c:	3c02a081 	lui	v0,0xa081
a0801290:	24420120 	addiu	v0,v0,288
a0801294:	00621021 	addu	v0,v1,v0
a0801298:	80430000 	lb	v1,0(v0)
a080129c:	3c02a081 	lui	v0,0xa081
a08012a0:	24420a80 	addiu	v0,v0,2688
a08012a4:	00821021 	addu	v0,a0,v0
a08012a8:	a0430000 	sb	v1,0(v0)
a08012ac:	8fc20010 	lw	v0,16(s8)
a08012b0:	24420001 	addiu	v0,v0,1
a08012b4:	afc20010 	sw	v0,16(s8)
a08012b8:	8fc20010 	lw	v0,16(s8)
a08012bc:	28420050 	slti	v0,v0,80
a08012c0:	1440ffbb 	bnez	v0,a08011b0 <screen_reflush+0x28>
a08012c4:	00000000 	nop
a08012c8:	8fc20014 	lw	v0,20(s8)
a08012cc:	24420001 	addiu	v0,v0,1
a08012d0:	afc20014 	sw	v0,20(s8)
a08012d4:	8fc20014 	lw	v0,20(s8)
a08012d8:	2842001e 	slti	v0,v0,30
a08012dc:	1440ffb1 	bnez	v0,a08011a4 <screen_reflush+0x1c>
a08012e0:	00000000 	nop
a08012e4:	3c02a081 	lui	v0,0xa081
a08012e8:	8c4300a4 	lw	v1,164(v0)
a08012ec:	3c02a081 	lui	v0,0xa081
a08012f0:	8c4200a8 	lw	v0,168(v0)
a08012f4:	00602021 	move	a0,v1
a08012f8:	00402821 	move	a1,v0
a08012fc:	0c2002cc 	jal	a0800b30 <vt100_move_cursor>
a0801300:	00000000 	nop
a0801304:	03c0e821 	move	sp,s8
a0801308:	8fbf001c 	lw	ra,28(sp)
a080130c:	8fbe0018 	lw	s8,24(sp)
a0801310:	27bd0020 	addiu	sp,sp,32
a0801314:	03e00008 	jr	ra
a0801318:	00000000 	nop
a080131c:	00000000 	nop

a0801320 <reg_read_32>:
a0801320:	27bdfff8 	addiu	sp,sp,-8
a0801324:	afbe0004 	sw	s8,4(sp)
a0801328:	03a0f021 	move	s8,sp
a080132c:	afc40008 	sw	a0,8(s8)
a0801330:	8fc20008 	lw	v0,8(s8)
a0801334:	8c420000 	lw	v0,0(v0)
a0801338:	03c0e821 	move	sp,s8
a080133c:	8fbe0004 	lw	s8,4(sp)
a0801340:	27bd0008 	addiu	sp,sp,8
a0801344:	03e00008 	jr	ra
a0801348:	00000000 	nop

a080134c <read_register>:
a080134c:	27bdfff0 	addiu	sp,sp,-16
a0801350:	afbe000c 	sw	s8,12(sp)
a0801354:	03a0f021 	move	s8,sp
a0801358:	afc40010 	sw	a0,16(s8)
a080135c:	afc50014 	sw	a1,20(s8)
a0801360:	8fc30010 	lw	v1,16(s8)
a0801364:	8fc20014 	lw	v0,20(s8)
a0801368:	00621021 	addu	v0,v1,v0
a080136c:	afc20004 	sw	v0,4(s8)
a0801370:	8fc20004 	lw	v0,4(s8)
a0801374:	8c420000 	lw	v0,0(v0)
a0801378:	afc20000 	sw	v0,0(s8)
a080137c:	8fc20000 	lw	v0,0(s8)
a0801380:	03c0e821 	move	sp,s8
a0801384:	8fbe000c 	lw	s8,12(sp)
a0801388:	27bd0010 	addiu	sp,sp,16
a080138c:	03e00008 	jr	ra
a0801390:	00000000 	nop

a0801394 <reg_write_32>:
a0801394:	27bdfff8 	addiu	sp,sp,-8
a0801398:	afbe0004 	sw	s8,4(sp)
a080139c:	03a0f021 	move	s8,sp
a08013a0:	afc40008 	sw	a0,8(s8)
a08013a4:	afc5000c 	sw	a1,12(s8)
a08013a8:	8fc30008 	lw	v1,8(s8)
a08013ac:	8fc2000c 	lw	v0,12(s8)
a08013b0:	ac620000 	sw	v0,0(v1)
a08013b4:	03c0e821 	move	sp,s8
a08013b8:	8fbe0004 	lw	s8,4(sp)
a08013bc:	27bd0008 	addiu	sp,sp,8
a08013c0:	03e00008 	jr	ra
a08013c4:	00000000 	nop

a08013c8 <gmac_get_mac_addr>:
a08013c8:	27bdffe0 	addiu	sp,sp,-32
a08013cc:	afbf001c 	sw	ra,28(sp)
a08013d0:	afbe0018 	sw	s8,24(sp)
a08013d4:	03a0f021 	move	s8,sp
a08013d8:	afc40020 	sw	a0,32(s8)
a08013dc:	3c04bfe1 	lui	a0,0xbfe1
a08013e0:	24050044 	li	a1,68
a08013e4:	0c2004d3 	jal	a080134c <read_register>
a08013e8:	00000000 	nop
a08013ec:	afc20010 	sw	v0,16(s8)
a08013f0:	8fc20010 	lw	v0,16(s8)
a08013f4:	304300ff 	andi	v1,v0,0xff
a08013f8:	8fc20020 	lw	v0,32(s8)
a08013fc:	a0430000 	sb	v1,0(v0)
a0801400:	8fc20020 	lw	v0,32(s8)
a0801404:	24430001 	addiu	v1,v0,1
a0801408:	8fc20010 	lw	v0,16(s8)
a080140c:	00021202 	srl	v0,v0,0x8
a0801410:	304200ff 	andi	v0,v0,0xff
a0801414:	a0620000 	sb	v0,0(v1)
a0801418:	8fc20020 	lw	v0,32(s8)
a080141c:	24430002 	addiu	v1,v0,2
a0801420:	8fc20010 	lw	v0,16(s8)
a0801424:	00021402 	srl	v0,v0,0x10
a0801428:	304200ff 	andi	v0,v0,0xff
a080142c:	a0620000 	sb	v0,0(v1)
a0801430:	8fc20020 	lw	v0,32(s8)
a0801434:	24430003 	addiu	v1,v0,3
a0801438:	8fc20010 	lw	v0,16(s8)
a080143c:	00021602 	srl	v0,v0,0x18
a0801440:	304200ff 	andi	v0,v0,0xff
a0801444:	a0620000 	sb	v0,0(v1)
a0801448:	3c04bfe1 	lui	a0,0xbfe1
a080144c:	24050040 	li	a1,64
a0801450:	0c2004d3 	jal	a080134c <read_register>
a0801454:	00000000 	nop
a0801458:	afc20010 	sw	v0,16(s8)
a080145c:	8fc20020 	lw	v0,32(s8)
a0801460:	24430004 	addiu	v1,v0,4
a0801464:	8fc20010 	lw	v0,16(s8)
a0801468:	304200ff 	andi	v0,v0,0xff
a080146c:	a0620000 	sb	v0,0(v1)
a0801470:	8fc20020 	lw	v0,32(s8)
a0801474:	24430005 	addiu	v1,v0,5
a0801478:	8fc20010 	lw	v0,16(s8)
a080147c:	00021202 	srl	v0,v0,0x8
a0801480:	304200ff 	andi	v0,v0,0xff
a0801484:	a0620000 	sb	v0,0(v1)
a0801488:	03c0e821 	move	sp,s8
a080148c:	8fbf001c 	lw	ra,28(sp)
a0801490:	8fbe0018 	lw	s8,24(sp)
a0801494:	27bd0020 	addiu	sp,sp,32
a0801498:	03e00008 	jr	ra
a080149c:	00000000 	nop

a08014a0 <print_dma_regs>:
a08014a0:	27bdffe0 	addiu	sp,sp,-32
a08014a4:	afbf001c 	sw	ra,28(sp)
a08014a8:	afbe0018 	sw	s8,24(sp)
a08014ac:	03a0f021 	move	s8,sp
a08014b0:	3c02a081 	lui	v0,0xa081
a08014b4:	2444e430 	addiu	a0,v0,-7120
a08014b8:	0c202b09 	jal	a080ac24 <printk>
a08014bc:	00000000 	nop
a08014c0:	3c02bfe1 	lui	v0,0xbfe1
a08014c4:	34441000 	ori	a0,v0,0x1000
a08014c8:	00002821 	move	a1,zero
a08014cc:	0c2004d3 	jal	a080134c <read_register>
a08014d0:	00000000 	nop
a08014d4:	afc20014 	sw	v0,20(s8)
a08014d8:	3c02a081 	lui	v0,0xa081
a08014dc:	2444e444 	addiu	a0,v0,-7100
a08014e0:	8fc50014 	lw	a1,20(s8)
a08014e4:	0c202b09 	jal	a080ac24 <printk>
a08014e8:	00000000 	nop
a08014ec:	3c02bfe1 	lui	v0,0xbfe1
a08014f0:	34441000 	ori	a0,v0,0x1000
a08014f4:	2405000c 	li	a1,12
a08014f8:	0c2004d3 	jal	a080134c <read_register>
a08014fc:	00000000 	nop
a0801500:	afc20014 	sw	v0,20(s8)
a0801504:	3c02bfe1 	lui	v0,0xbfe1
a0801508:	34441000 	ori	a0,v0,0x1000
a080150c:	24050010 	li	a1,16
a0801510:	0c2004d3 	jal	a080134c <read_register>
a0801514:	00000000 	nop
a0801518:	afc20010 	sw	v0,16(s8)
a080151c:	3c02a081 	lui	v0,0xa081
a0801520:	2444e45c 	addiu	a0,v0,-7076
a0801524:	8fc50010 	lw	a1,16(s8)
a0801528:	8fc60014 	lw	a2,20(s8)
a080152c:	0c202b09 	jal	a080ac24 <printk>
a0801530:	00000000 	nop
a0801534:	3c02bfe1 	lui	v0,0xbfe1
a0801538:	34441000 	ori	a0,v0,0x1000
a080153c:	24050014 	li	a1,20
a0801540:	0c2004d3 	jal	a080134c <read_register>
a0801544:	00000000 	nop
a0801548:	afc20014 	sw	v0,20(s8)
a080154c:	3c02a081 	lui	v0,0xa081
a0801550:	2444e478 	addiu	a0,v0,-7048
a0801554:	8fc50014 	lw	a1,20(s8)
a0801558:	0c202b09 	jal	a080ac24 <printk>
a080155c:	00000000 	nop
a0801560:	3c02bfe1 	lui	v0,0xbfe1
a0801564:	34441000 	ori	a0,v0,0x1000
a0801568:	24050018 	li	a1,24
a080156c:	0c2004d3 	jal	a080134c <read_register>
a0801570:	00000000 	nop
a0801574:	afc20014 	sw	v0,20(s8)
a0801578:	3c02a081 	lui	v0,0xa081
a080157c:	2444e490 	addiu	a0,v0,-7024
a0801580:	8fc50014 	lw	a1,20(s8)
a0801584:	0c202b09 	jal	a080ac24 <printk>
a0801588:	00000000 	nop
a080158c:	3c02bfe1 	lui	v0,0xbfe1
a0801590:	34441000 	ori	a0,v0,0x1000
a0801594:	2405001c 	li	a1,28
a0801598:	0c2004d3 	jal	a080134c <read_register>
a080159c:	00000000 	nop
a08015a0:	afc20014 	sw	v0,20(s8)
a08015a4:	3c02a081 	lui	v0,0xa081
a08015a8:	2444e4a8 	addiu	a0,v0,-7000
a08015ac:	8fc50014 	lw	a1,20(s8)
a08015b0:	0c202b09 	jal	a080ac24 <printk>
a08015b4:	00000000 	nop
a08015b8:	3c02bfe1 	lui	v0,0xbfe1
a08015bc:	34441000 	ori	a0,v0,0x1000
a08015c0:	24050020 	li	a1,32
a08015c4:	0c2004d3 	jal	a080134c <read_register>
a08015c8:	00000000 	nop
a08015cc:	afc20014 	sw	v0,20(s8)
a08015d0:	3c02a081 	lui	v0,0xa081
a08015d4:	2444e4c4 	addiu	a0,v0,-6972
a08015d8:	8fc50014 	lw	a1,20(s8)
a08015dc:	0c202b09 	jal	a080ac24 <printk>
a08015e0:	00000000 	nop
a08015e4:	3c02bfe1 	lui	v0,0xbfe1
a08015e8:	34441000 	ori	a0,v0,0x1000
a08015ec:	24050048 	li	a1,72
a08015f0:	0c2004d3 	jal	a080134c <read_register>
a08015f4:	00000000 	nop
a08015f8:	afc20014 	sw	v0,20(s8)
a08015fc:	3c02bfe1 	lui	v0,0xbfe1
a0801600:	34441000 	ori	a0,v0,0x1000
a0801604:	2405004c 	li	a1,76
a0801608:	0c2004d3 	jal	a080134c <read_register>
a080160c:	00000000 	nop
a0801610:	afc20010 	sw	v0,16(s8)
a0801614:	3c02a081 	lui	v0,0xa081
a0801618:	2444e4dc 	addiu	a0,v0,-6948
a080161c:	8fc50014 	lw	a1,20(s8)
a0801620:	8fc60010 	lw	a2,16(s8)
a0801624:	0c202b09 	jal	a080ac24 <printk>
a0801628:	00000000 	nop
a080162c:	3c02bfe1 	lui	v0,0xbfe1
a0801630:	34441000 	ori	a0,v0,0x1000
a0801634:	24050050 	li	a1,80
a0801638:	0c2004d3 	jal	a080134c <read_register>
a080163c:	00000000 	nop
a0801640:	afc20014 	sw	v0,20(s8)
a0801644:	3c02bfe1 	lui	v0,0xbfe1
a0801648:	34441000 	ori	a0,v0,0x1000
a080164c:	24050054 	li	a1,84
a0801650:	0c2004d3 	jal	a080134c <read_register>
a0801654:	00000000 	nop
a0801658:	afc20010 	sw	v0,16(s8)
a080165c:	3c02a081 	lui	v0,0xa081
a0801660:	2444e514 	addiu	a0,v0,-6892
a0801664:	8fc50014 	lw	a1,20(s8)
a0801668:	8fc60010 	lw	a2,16(s8)
a080166c:	0c202b09 	jal	a080ac24 <printk>
a0801670:	00000000 	nop
a0801674:	03c0e821 	move	sp,s8
a0801678:	8fbf001c 	lw	ra,28(sp)
a080167c:	8fbe0018 	lw	s8,24(sp)
a0801680:	27bd0020 	addiu	sp,sp,32
a0801684:	03e00008 	jr	ra
a0801688:	00000000 	nop

a080168c <print_mac_regs>:
a080168c:	27bdffc8 	addiu	sp,sp,-56
a0801690:	afbf0034 	sw	ra,52(sp)
a0801694:	afbe0030 	sw	s8,48(sp)
a0801698:	03a0f021 	move	s8,sp
a080169c:	3c02a081 	lui	v0,0xa081
a08016a0:	2444e550 	addiu	a0,v0,-6832
a08016a4:	0c202b09 	jal	a080ac24 <printk>
a08016a8:	00000000 	nop
a08016ac:	3c04bfe1 	lui	a0,0xbfe1
a08016b0:	00002821 	move	a1,zero
a08016b4:	0c2004d3 	jal	a080134c <read_register>
a08016b8:	00000000 	nop
a08016bc:	afc20024 	sw	v0,36(s8)
a08016c0:	3c02a081 	lui	v0,0xa081
a08016c4:	2444e564 	addiu	a0,v0,-6812
a08016c8:	8fc50024 	lw	a1,36(s8)
a08016cc:	0c202b09 	jal	a080ac24 <printk>
a08016d0:	00000000 	nop
a08016d4:	3c04bfe1 	lui	a0,0xbfe1
a08016d8:	24050004 	li	a1,4
a08016dc:	0c2004d3 	jal	a080134c <read_register>
a08016e0:	00000000 	nop
a08016e4:	afc20024 	sw	v0,36(s8)
a08016e8:	3c02a081 	lui	v0,0xa081
a08016ec:	2444e580 	addiu	a0,v0,-6784
a08016f0:	8fc50024 	lw	a1,36(s8)
a08016f4:	0c202b09 	jal	a080ac24 <printk>
a08016f8:	00000000 	nop
a08016fc:	3c04bfe1 	lui	a0,0xbfe1
a0801700:	24050008 	li	a1,8
a0801704:	0c2004d3 	jal	a080134c <read_register>
a0801708:	00000000 	nop
a080170c:	afc20024 	sw	v0,36(s8)
a0801710:	3c04bfe1 	lui	a0,0xbfe1
a0801714:	2405000c 	li	a1,12
a0801718:	0c2004d3 	jal	a080134c <read_register>
a080171c:	00000000 	nop
a0801720:	afc20020 	sw	v0,32(s8)
a0801724:	3c02a081 	lui	v0,0xa081
a0801728:	2444e59c 	addiu	a0,v0,-6756
a080172c:	8fc50024 	lw	a1,36(s8)
a0801730:	8fc60020 	lw	a2,32(s8)
a0801734:	0c202b09 	jal	a080ac24 <printk>
a0801738:	00000000 	nop
a080173c:	3c04bfe1 	lui	a0,0xbfe1
a0801740:	24050018 	li	a1,24
a0801744:	0c2004d3 	jal	a080134c <read_register>
a0801748:	00000000 	nop
a080174c:	afc20024 	sw	v0,36(s8)
a0801750:	3c02a081 	lui	v0,0xa081
a0801754:	2444e5c8 	addiu	a0,v0,-6712
a0801758:	8fc50024 	lw	a1,36(s8)
a080175c:	0c202b09 	jal	a080ac24 <printk>
a0801760:	00000000 	nop
a0801764:	3c04bfe1 	lui	a0,0xbfe1
a0801768:	24050020 	li	a1,32
a080176c:	0c2004d3 	jal	a080134c <read_register>
a0801770:	00000000 	nop
a0801774:	afc20024 	sw	v0,36(s8)
a0801778:	3c02a081 	lui	v0,0xa081
a080177c:	2444e5e4 	addiu	a0,v0,-6684
a0801780:	8fc50024 	lw	a1,36(s8)
a0801784:	0c202b09 	jal	a080ac24 <printk>
a0801788:	00000000 	nop
a080178c:	3c04bfe1 	lui	a0,0xbfe1
a0801790:	24050038 	li	a1,56
a0801794:	0c2004d3 	jal	a080134c <read_register>
a0801798:	00000000 	nop
a080179c:	afc20024 	sw	v0,36(s8)
a08017a0:	3c04bfe1 	lui	a0,0xbfe1
a08017a4:	2405003c 	li	a1,60
a08017a8:	0c2004d3 	jal	a080134c <read_register>
a08017ac:	00000000 	nop
a08017b0:	afc20020 	sw	v0,32(s8)
a08017b4:	3c02a081 	lui	v0,0xa081
a08017b8:	2444e5fc 	addiu	a0,v0,-6660
a08017bc:	8fc50024 	lw	a1,36(s8)
a08017c0:	8fc60020 	lw	a2,32(s8)
a08017c4:	0c202b09 	jal	a080ac24 <printk>
a08017c8:	00000000 	nop
a08017cc:	27c20028 	addiu	v0,s8,40
a08017d0:	00402021 	move	a0,v0
a08017d4:	0c2004f2 	jal	a08013c8 <gmac_get_mac_addr>
a08017d8:	00000000 	nop
a08017dc:	93c20028 	lbu	v0,40(s8)
a08017e0:	00402821 	move	a1,v0
a08017e4:	93c20029 	lbu	v0,41(s8)
a08017e8:	00403021 	move	a2,v0
a08017ec:	93c2002a 	lbu	v0,42(s8)
a08017f0:	00403821 	move	a3,v0
a08017f4:	93c2002b 	lbu	v0,43(s8)
a08017f8:	00401821 	move	v1,v0
a08017fc:	93c2002c 	lbu	v0,44(s8)
a0801800:	00402021 	move	a0,v0
a0801804:	93c2002d 	lbu	v0,45(s8)
a0801808:	afa30010 	sw	v1,16(sp)
a080180c:	afa40014 	sw	a0,20(sp)
a0801810:	afa20018 	sw	v0,24(sp)
a0801814:	3c02a081 	lui	v0,0xa081
a0801818:	2444e62c 	addiu	a0,v0,-6612
a080181c:	0c202b09 	jal	a080ac24 <printk>
a0801820:	00000000 	nop
a0801824:	03c0e821 	move	sp,s8
a0801828:	8fbf0034 	lw	ra,52(sp)
a080182c:	8fbe0030 	lw	s8,48(sp)
a0801830:	27bd0038 	addiu	sp,sp,56
a0801834:	03e00008 	jr	ra
a0801838:	00000000 	nop

a080183c <printf_dma_regs>:
a080183c:	27bdffe0 	addiu	sp,sp,-32
a0801840:	afbf001c 	sw	ra,28(sp)
a0801844:	afbe0018 	sw	s8,24(sp)
a0801848:	03a0f021 	move	s8,sp
a080184c:	3c02a081 	lui	v0,0xa081
a0801850:	2444e430 	addiu	a0,v0,-7120
a0801854:	0c202b2b 	jal	a080acac <printf>
a0801858:	00000000 	nop
a080185c:	3c02bfe1 	lui	v0,0xbfe1
a0801860:	34441000 	ori	a0,v0,0x1000
a0801864:	00002821 	move	a1,zero
a0801868:	0c2004d3 	jal	a080134c <read_register>
a080186c:	00000000 	nop
a0801870:	afc20014 	sw	v0,20(s8)
a0801874:	3c02a081 	lui	v0,0xa081
a0801878:	2444e444 	addiu	a0,v0,-7100
a080187c:	8fc50014 	lw	a1,20(s8)
a0801880:	0c202b2b 	jal	a080acac <printf>
a0801884:	00000000 	nop
a0801888:	3c02bfe1 	lui	v0,0xbfe1
a080188c:	34441000 	ori	a0,v0,0x1000
a0801890:	2405000c 	li	a1,12
a0801894:	0c2004d3 	jal	a080134c <read_register>
a0801898:	00000000 	nop
a080189c:	afc20014 	sw	v0,20(s8)
a08018a0:	3c02bfe1 	lui	v0,0xbfe1
a08018a4:	34441000 	ori	a0,v0,0x1000
a08018a8:	24050010 	li	a1,16
a08018ac:	0c2004d3 	jal	a080134c <read_register>
a08018b0:	00000000 	nop
a08018b4:	afc20010 	sw	v0,16(s8)
a08018b8:	3c02a081 	lui	v0,0xa081
a08018bc:	2444e654 	addiu	a0,v0,-6572
a08018c0:	8fc50014 	lw	a1,20(s8)
a08018c4:	8fc60010 	lw	a2,16(s8)
a08018c8:	0c202b2b 	jal	a080acac <printf>
a08018cc:	00000000 	nop
a08018d0:	3c02bfe1 	lui	v0,0xbfe1
a08018d4:	34441000 	ori	a0,v0,0x1000
a08018d8:	24050014 	li	a1,20
a08018dc:	0c2004d3 	jal	a080134c <read_register>
a08018e0:	00000000 	nop
a08018e4:	afc20014 	sw	v0,20(s8)
a08018e8:	3c02a081 	lui	v0,0xa081
a08018ec:	2444e478 	addiu	a0,v0,-7048
a08018f0:	8fc50014 	lw	a1,20(s8)
a08018f4:	0c202b2b 	jal	a080acac <printf>
a08018f8:	00000000 	nop
a08018fc:	3c02bfe1 	lui	v0,0xbfe1
a0801900:	34441000 	ori	a0,v0,0x1000
a0801904:	24050018 	li	a1,24
a0801908:	0c2004d3 	jal	a080134c <read_register>
a080190c:	00000000 	nop
a0801910:	afc20014 	sw	v0,20(s8)
a0801914:	3c02a081 	lui	v0,0xa081
a0801918:	2444e490 	addiu	a0,v0,-7024
a080191c:	8fc50014 	lw	a1,20(s8)
a0801920:	0c202b2b 	jal	a080acac <printf>
a0801924:	00000000 	nop
a0801928:	3c02bfe1 	lui	v0,0xbfe1
a080192c:	34441000 	ori	a0,v0,0x1000
a0801930:	2405001c 	li	a1,28
a0801934:	0c2004d3 	jal	a080134c <read_register>
a0801938:	00000000 	nop
a080193c:	afc20014 	sw	v0,20(s8)
a0801940:	3c02a081 	lui	v0,0xa081
a0801944:	2444e4a8 	addiu	a0,v0,-7000
a0801948:	8fc50014 	lw	a1,20(s8)
a080194c:	0c202b2b 	jal	a080acac <printf>
a0801950:	00000000 	nop
a0801954:	3c02bfe1 	lui	v0,0xbfe1
a0801958:	34441000 	ori	a0,v0,0x1000
a080195c:	24050020 	li	a1,32
a0801960:	0c2004d3 	jal	a080134c <read_register>
a0801964:	00000000 	nop
a0801968:	afc20014 	sw	v0,20(s8)
a080196c:	3c02a081 	lui	v0,0xa081
a0801970:	2444e4c4 	addiu	a0,v0,-6972
a0801974:	8fc50014 	lw	a1,20(s8)
a0801978:	0c202b2b 	jal	a080acac <printf>
a080197c:	00000000 	nop
a0801980:	3c02bfe1 	lui	v0,0xbfe1
a0801984:	34441000 	ori	a0,v0,0x1000
a0801988:	24050048 	li	a1,72
a080198c:	0c2004d3 	jal	a080134c <read_register>
a0801990:	00000000 	nop
a0801994:	afc20014 	sw	v0,20(s8)
a0801998:	3c02bfe1 	lui	v0,0xbfe1
a080199c:	34441000 	ori	a0,v0,0x1000
a08019a0:	2405004c 	li	a1,76
a08019a4:	0c2004d3 	jal	a080134c <read_register>
a08019a8:	00000000 	nop
a08019ac:	afc20010 	sw	v0,16(s8)
a08019b0:	3c02a081 	lui	v0,0xa081
a08019b4:	2444e4dc 	addiu	a0,v0,-6948
a08019b8:	8fc50014 	lw	a1,20(s8)
a08019bc:	8fc60010 	lw	a2,16(s8)
a08019c0:	0c202b2b 	jal	a080acac <printf>
a08019c4:	00000000 	nop
a08019c8:	3c02bfe1 	lui	v0,0xbfe1
a08019cc:	34441000 	ori	a0,v0,0x1000
a08019d0:	24050050 	li	a1,80
a08019d4:	0c2004d3 	jal	a080134c <read_register>
a08019d8:	00000000 	nop
a08019dc:	afc20014 	sw	v0,20(s8)
a08019e0:	3c02bfe1 	lui	v0,0xbfe1
a08019e4:	34441000 	ori	a0,v0,0x1000
a08019e8:	24050054 	li	a1,84
a08019ec:	0c2004d3 	jal	a080134c <read_register>
a08019f0:	00000000 	nop
a08019f4:	afc20010 	sw	v0,16(s8)
a08019f8:	3c02a081 	lui	v0,0xa081
a08019fc:	2444e514 	addiu	a0,v0,-6892
a0801a00:	8fc50014 	lw	a1,20(s8)
a0801a04:	8fc60010 	lw	a2,16(s8)
a0801a08:	0c202b09 	jal	a080ac24 <printk>
a0801a0c:	00000000 	nop
a0801a10:	03c0e821 	move	sp,s8
a0801a14:	8fbf001c 	lw	ra,28(sp)
a0801a18:	8fbe0018 	lw	s8,24(sp)
a0801a1c:	27bd0020 	addiu	sp,sp,32
a0801a20:	03e00008 	jr	ra
a0801a24:	00000000 	nop

a0801a28 <printf_mac_regs>:
a0801a28:	27bdffc8 	addiu	sp,sp,-56
a0801a2c:	afbf0034 	sw	ra,52(sp)
a0801a30:	afbe0030 	sw	s8,48(sp)
a0801a34:	03a0f021 	move	s8,sp
a0801a38:	3c02a081 	lui	v0,0xa081
a0801a3c:	2444e550 	addiu	a0,v0,-6832
a0801a40:	0c202b2b 	jal	a080acac <printf>
a0801a44:	00000000 	nop
a0801a48:	3c04bfe1 	lui	a0,0xbfe1
a0801a4c:	00002821 	move	a1,zero
a0801a50:	0c2004d3 	jal	a080134c <read_register>
a0801a54:	00000000 	nop
a0801a58:	afc20024 	sw	v0,36(s8)
a0801a5c:	3c02a081 	lui	v0,0xa081
a0801a60:	2444e564 	addiu	a0,v0,-6812
a0801a64:	8fc50024 	lw	a1,36(s8)
a0801a68:	0c202b2b 	jal	a080acac <printf>
a0801a6c:	00000000 	nop
a0801a70:	3c04bfe1 	lui	a0,0xbfe1
a0801a74:	24050004 	li	a1,4
a0801a78:	0c2004d3 	jal	a080134c <read_register>
a0801a7c:	00000000 	nop
a0801a80:	afc20024 	sw	v0,36(s8)
a0801a84:	3c02a081 	lui	v0,0xa081
a0801a88:	2444e580 	addiu	a0,v0,-6784
a0801a8c:	8fc50024 	lw	a1,36(s8)
a0801a90:	0c202b2b 	jal	a080acac <printf>
a0801a94:	00000000 	nop
a0801a98:	3c04bfe1 	lui	a0,0xbfe1
a0801a9c:	24050008 	li	a1,8
a0801aa0:	0c2004d3 	jal	a080134c <read_register>
a0801aa4:	00000000 	nop
a0801aa8:	afc20024 	sw	v0,36(s8)
a0801aac:	3c04bfe1 	lui	a0,0xbfe1
a0801ab0:	2405000c 	li	a1,12
a0801ab4:	0c2004d3 	jal	a080134c <read_register>
a0801ab8:	00000000 	nop
a0801abc:	afc20020 	sw	v0,32(s8)
a0801ac0:	3c02a081 	lui	v0,0xa081
a0801ac4:	2444e59c 	addiu	a0,v0,-6756
a0801ac8:	8fc50024 	lw	a1,36(s8)
a0801acc:	8fc60020 	lw	a2,32(s8)
a0801ad0:	0c202b2b 	jal	a080acac <printf>
a0801ad4:	00000000 	nop
a0801ad8:	3c04bfe1 	lui	a0,0xbfe1
a0801adc:	24050018 	li	a1,24
a0801ae0:	0c2004d3 	jal	a080134c <read_register>
a0801ae4:	00000000 	nop
a0801ae8:	afc20024 	sw	v0,36(s8)
a0801aec:	3c02a081 	lui	v0,0xa081
a0801af0:	2444e5c8 	addiu	a0,v0,-6712
a0801af4:	8fc50024 	lw	a1,36(s8)
a0801af8:	0c202b2b 	jal	a080acac <printf>
a0801afc:	00000000 	nop
a0801b00:	3c04bfe1 	lui	a0,0xbfe1
a0801b04:	24050020 	li	a1,32
a0801b08:	0c2004d3 	jal	a080134c <read_register>
a0801b0c:	00000000 	nop
a0801b10:	afc20024 	sw	v0,36(s8)
a0801b14:	3c02a081 	lui	v0,0xa081
a0801b18:	2444e5e4 	addiu	a0,v0,-6684
a0801b1c:	8fc50024 	lw	a1,36(s8)
a0801b20:	0c202b2b 	jal	a080acac <printf>
a0801b24:	00000000 	nop
a0801b28:	3c04bfe1 	lui	a0,0xbfe1
a0801b2c:	24050038 	li	a1,56
a0801b30:	0c2004d3 	jal	a080134c <read_register>
a0801b34:	00000000 	nop
a0801b38:	afc20024 	sw	v0,36(s8)
a0801b3c:	3c04bfe1 	lui	a0,0xbfe1
a0801b40:	2405003c 	li	a1,60
a0801b44:	0c2004d3 	jal	a080134c <read_register>
a0801b48:	00000000 	nop
a0801b4c:	afc20020 	sw	v0,32(s8)
a0801b50:	3c02a081 	lui	v0,0xa081
a0801b54:	2444e5fc 	addiu	a0,v0,-6660
a0801b58:	8fc50024 	lw	a1,36(s8)
a0801b5c:	8fc60020 	lw	a2,32(s8)
a0801b60:	0c202b2b 	jal	a080acac <printf>
a0801b64:	00000000 	nop
a0801b68:	27c20028 	addiu	v0,s8,40
a0801b6c:	00402021 	move	a0,v0
a0801b70:	0c2004f2 	jal	a08013c8 <gmac_get_mac_addr>
a0801b74:	00000000 	nop
a0801b78:	93c20028 	lbu	v0,40(s8)
a0801b7c:	00402821 	move	a1,v0
a0801b80:	93c20029 	lbu	v0,41(s8)
a0801b84:	00403021 	move	a2,v0
a0801b88:	93c2002a 	lbu	v0,42(s8)
a0801b8c:	00403821 	move	a3,v0
a0801b90:	93c2002b 	lbu	v0,43(s8)
a0801b94:	00401821 	move	v1,v0
a0801b98:	93c2002c 	lbu	v0,44(s8)
a0801b9c:	00402021 	move	a0,v0
a0801ba0:	93c2002d 	lbu	v0,45(s8)
a0801ba4:	afa30010 	sw	v1,16(sp)
a0801ba8:	afa40014 	sw	a0,20(sp)
a0801bac:	afa20018 	sw	v0,24(sp)
a0801bb0:	3c02a081 	lui	v0,0xa081
a0801bb4:	2444e62c 	addiu	a0,v0,-6612
a0801bb8:	0c202b2b 	jal	a080acac <printf>
a0801bbc:	00000000 	nop
a0801bc0:	03c0e821 	move	sp,s8
a0801bc4:	8fbf0034 	lw	ra,52(sp)
a0801bc8:	8fbe0030 	lw	s8,48(sp)
a0801bcc:	27bd0038 	addiu	sp,sp,56
a0801bd0:	03e00008 	jr	ra
a0801bd4:	00000000 	nop

a0801bd8 <print_tx_dscrb>:
a0801bd8:	27bdffe0 	addiu	sp,sp,-32
a0801bdc:	afbf001c 	sw	ra,28(sp)
a0801be0:	afbe0018 	sw	s8,24(sp)
a0801be4:	03a0f021 	move	s8,sp
a0801be8:	afc40020 	sw	a0,32(s8)
a0801bec:	8fc20020 	lw	v0,32(s8)
a0801bf0:	8c430010 	lw	v1,16(v0)
a0801bf4:	3c02a081 	lui	v0,0xa081
a0801bf8:	2444e670 	addiu	a0,v0,-6544
a0801bfc:	00602821 	move	a1,v1
a0801c00:	0c202b2b 	jal	a080acac <printf>
a0801c04:	00000000 	nop
a0801c08:	8fc20020 	lw	v0,32(s8)
a0801c0c:	8c430018 	lw	v1,24(v0)
a0801c10:	3c02a081 	lui	v0,0xa081
a0801c14:	2444e690 	addiu	a0,v0,-6512
a0801c18:	00602821 	move	a1,v1
a0801c1c:	0c202b2b 	jal	a080acac <printf>
a0801c20:	00000000 	nop
a0801c24:	8fc20020 	lw	v0,32(s8)
a0801c28:	8c430028 	lw	v1,40(v0)
a0801c2c:	3c02a081 	lui	v0,0xa081
a0801c30:	2444e6a8 	addiu	a0,v0,-6488
a0801c34:	00602821 	move	a1,v1
a0801c38:	0c202b2b 	jal	a080acac <printf>
a0801c3c:	00000000 	nop
a0801c40:	03c0e821 	move	sp,s8
a0801c44:	8fbf001c 	lw	ra,28(sp)
a0801c48:	8fbe0018 	lw	s8,24(sp)
a0801c4c:	27bd0020 	addiu	sp,sp,32
a0801c50:	03e00008 	jr	ra
a0801c54:	00000000 	nop

a0801c58 <print_rx_dscrb>:
a0801c58:	27bdffe0 	addiu	sp,sp,-32
a0801c5c:	afbf001c 	sw	ra,28(sp)
a0801c60:	afbe0018 	sw	s8,24(sp)
a0801c64:	03a0f021 	move	s8,sp
a0801c68:	afc40020 	sw	a0,32(s8)
a0801c6c:	8fc20020 	lw	v0,32(s8)
a0801c70:	8c430014 	lw	v1,20(v0)
a0801c74:	3c02a081 	lui	v0,0xa081
a0801c78:	2444e6c8 	addiu	a0,v0,-6456
a0801c7c:	00602821 	move	a1,v1
a0801c80:	0c202b2b 	jal	a080acac <printf>
a0801c84:	00000000 	nop
a0801c88:	8fc20020 	lw	v0,32(s8)
a0801c8c:	8c43001c 	lw	v1,28(v0)
a0801c90:	3c02a081 	lui	v0,0xa081
a0801c94:	2444e6ec 	addiu	a0,v0,-6420
a0801c98:	00602821 	move	a1,v1
a0801c9c:	0c202b2b 	jal	a080acac <printf>
a0801ca0:	00000000 	nop
a0801ca4:	8fc20020 	lw	v0,32(s8)
a0801ca8:	8c43002c 	lw	v1,44(v0)
a0801cac:	3c02a081 	lui	v0,0xa081
a0801cb0:	2444e704 	addiu	a0,v0,-6396
a0801cb4:	00602821 	move	a1,v1
a0801cb8:	0c202b2b 	jal	a080acac <printf>
a0801cbc:	00000000 	nop
a0801cc0:	8fc20020 	lw	v0,32(s8)
a0801cc4:	8c420024 	lw	v0,36(v0)
a0801cc8:	afc20010 	sw	v0,16(s8)
a0801ccc:	03c0e821 	move	sp,s8
a0801cd0:	8fbf001c 	lw	ra,28(sp)
a0801cd4:	8fbe0018 	lw	s8,24(sp)
a0801cd8:	27bd0020 	addiu	sp,sp,32
a0801cdc:	03e00008 	jr	ra
a0801ce0:	00000000 	nop

a0801ce4 <irq_mac>:
a0801ce4:	27bdffe0 	addiu	sp,sp,-32
a0801ce8:	afbf001c 	sw	ra,28(sp)
a0801cec:	afbe0018 	sw	s8,24(sp)
a0801cf0:	03a0f021 	move	s8,sp
a0801cf4:	3c02a081 	lui	v0,0xa081
a0801cf8:	24440110 	addiu	a0,v0,272
a0801cfc:	0c20214f 	jal	a080853c <queue_is_empty>
a0801d00:	00000000 	nop
a0801d04:	14400005 	bnez	v0,a0801d1c <irq_mac+0x38>
a0801d08:	00000000 	nop
a0801d0c:	3c02a081 	lui	v0,0xa081
a0801d10:	24440110 	addiu	a0,v0,272
a0801d14:	0c201eae 	jal	a0807ab8 <do_unblock_one>
a0801d18:	00000000 	nop
a0801d1c:	3c02a081 	lui	v0,0xa081
a0801d20:	8c426060 	lw	v0,24672(v0)
a0801d24:	afc20010 	sw	v0,16(s8)
a0801d28:	0c20348c 	jal	a080d230 <clear_interrupt>
a0801d2c:	00000000 	nop
a0801d30:	03c0e821 	move	sp,s8
a0801d34:	8fbf001c 	lw	ra,28(sp)
a0801d38:	8fbe0018 	lw	s8,24(sp)
a0801d3c:	27bd0020 	addiu	sp,sp,32
a0801d40:	03e00008 	jr	ra
a0801d44:	00000000 	nop

a0801d48 <irq_enable>:
a0801d48:	27bdffe8 	addiu	sp,sp,-24
a0801d4c:	afbf0014 	sw	ra,20(sp)
a0801d50:	afbe0010 	sw	s8,16(sp)
a0801d54:	03a0f021 	move	s8,sp
a0801d58:	afc40018 	sw	a0,24(s8)
a0801d5c:	3c02bfd0 	lui	v0,0xbfd0
a0801d60:	3444105c 	ori	a0,v0,0x105c
a0801d64:	24050008 	li	a1,8
a0801d68:	0c2004e5 	jal	a0801394 <reg_write_32>
a0801d6c:	00000000 	nop
a0801d70:	03c0e821 	move	sp,s8
a0801d74:	8fbf0014 	lw	ra,20(sp)
a0801d78:	8fbe0010 	lw	s8,16(sp)
a0801d7c:	27bd0018 	addiu	sp,sp,24
a0801d80:	03e00008 	jr	ra
a0801d84:	00000000 	nop

a0801d88 <check_recv>:
a0801d88:	27bdffd0 	addiu	sp,sp,-48
a0801d8c:	afbf002c 	sw	ra,44(sp)
a0801d90:	afbe0028 	sw	s8,40(sp)
a0801d94:	03a0f021 	move	s8,sp
a0801d98:	afc40030 	sw	a0,48(s8)
a0801d9c:	24020003 	li	v0,3
a0801da0:	afc20018 	sw	v0,24(s8)
a0801da4:	afc00014 	sw	zero,20(s8)
a0801da8:	3c02a081 	lui	v0,0xa081
a0801dac:	8c426060 	lw	v0,24672(v0)
a0801db0:	afc20010 	sw	v0,16(s8)
a0801db4:	afc00020 	sw	zero,32(s8)
a0801db8:	08200780 	j	a0801e00 <check_recv+0x78>
a0801dbc:	00000000 	nop
a0801dc0:	8fc20020 	lw	v0,32(s8)
a0801dc4:	00021900 	sll	v1,v0,0x4
a0801dc8:	8fc20010 	lw	v0,16(s8)
a0801dcc:	00431021 	addu	v0,v0,v1
a0801dd0:	8c420000 	lw	v0,0(v0)
a0801dd4:	3042f8cf 	andi	v0,v0,0xf8cf
a0801dd8:	14400006 	bnez	v0,a0801df4 <check_recv+0x6c>
a0801ddc:	00000000 	nop
a0801de0:	3c02a081 	lui	v0,0xa081
a0801de4:	8c420118 	lw	v0,280(v0)
a0801de8:	24430001 	addiu	v1,v0,1
a0801dec:	3c02a081 	lui	v0,0xa081
a0801df0:	ac430118 	sw	v1,280(v0)
a0801df4:	8fc20020 	lw	v0,32(s8)
a0801df8:	24420001 	addiu	v0,v0,1
a0801dfc:	afc20020 	sw	v0,32(s8)
a0801e00:	8fc20020 	lw	v0,32(s8)
a0801e04:	28421000 	slti	v0,v0,4096
a0801e08:	1440ffed 	bnez	v0,a0801dc0 <check_recv+0x38>
a0801e0c:	00000000 	nop
a0801e10:	00002021 	move	a0,zero
a0801e14:	24050006 	li	a1,6
a0801e18:	0c2002cc 	jal	a0800b30 <vt100_move_cursor>
a0801e1c:	00000000 	nop
a0801e20:	3c02a081 	lui	v0,0xa081
a0801e24:	8c430118 	lw	v1,280(v0)
a0801e28:	3c02a081 	lui	v0,0xa081
a0801e2c:	2444e72c 	addiu	a0,v0,-6356
a0801e30:	00602821 	move	a1,v1
a0801e34:	0c202b09 	jal	a080ac24 <printk>
a0801e38:	00000000 	nop
a0801e3c:	03c0e821 	move	sp,s8
a0801e40:	8fbf002c 	lw	ra,44(sp)
a0801e44:	8fbe0028 	lw	s8,40(sp)
a0801e48:	27bd0030 	addiu	sp,sp,48
a0801e4c:	03e00008 	jr	ra
a0801e50:	00000000 	nop

a0801e54 <set_sram_ctr>:
a0801e54:	27bdfff8 	addiu	sp,sp,-8
a0801e58:	afbe0004 	sw	s8,4(sp)
a0801e5c:	03a0f021 	move	s8,sp
a0801e60:	3c02bfd0 	lui	v0,0xbfd0
a0801e64:	34430420 	ori	v1,v0,0x420
a0801e68:	34028000 	li	v0,0x8000
a0801e6c:	ac620000 	sw	v0,0(v1)
a0801e70:	03c0e821 	move	sp,s8
a0801e74:	8fbe0004 	lw	s8,4(sp)
a0801e78:	27bd0008 	addiu	sp,sp,8
a0801e7c:	03e00008 	jr	ra
a0801e80:	00000000 	nop

a0801e84 <s_reset>:
a0801e84:	27bdffe0 	addiu	sp,sp,-32
a0801e88:	afbf001c 	sw	ra,28(sp)
a0801e8c:	afbe0018 	sw	s8,24(sp)
a0801e90:	03a0f021 	move	s8,sp
a0801e94:	afc40020 	sw	a0,32(s8)
a0801e98:	3c02000f 	lui	v0,0xf
a0801e9c:	34424240 	ori	v0,v0,0x4240
a0801ea0:	afc20010 	sw	v0,16(s8)
a0801ea4:	8fc20020 	lw	v0,32(s8)
a0801ea8:	8c42000c 	lw	v0,12(v0)
a0801eac:	00402021 	move	a0,v0
a0801eb0:	24050001 	li	a1,1
a0801eb4:	0c2004e5 	jal	a0801394 <reg_write_32>
a0801eb8:	00000000 	nop
a0801ebc:	082007bf 	j	a0801efc <s_reset+0x78>
a0801ec0:	00000000 	nop
a0801ec4:	8fc20020 	lw	v0,32(s8)
a0801ec8:	8c42000c 	lw	v0,12(v0)
a0801ecc:	00402021 	move	a0,v0
a0801ed0:	24050001 	li	a1,1
a0801ed4:	0c2004e5 	jal	a0801394 <reg_write_32>
a0801ed8:	00000000 	nop
a0801edc:	082007bc 	j	a0801ef0 <s_reset+0x6c>
a0801ee0:	00000000 	nop
a0801ee4:	8fc20010 	lw	v0,16(s8)
a0801ee8:	2442ffff 	addiu	v0,v0,-1
a0801eec:	afc20010 	sw	v0,16(s8)
a0801ef0:	8fc20010 	lw	v0,16(s8)
a0801ef4:	1440fffb 	bnez	v0,a0801ee4 <s_reset+0x60>
a0801ef8:	00000000 	nop
a0801efc:	8fc20020 	lw	v0,32(s8)
a0801f00:	8c42000c 	lw	v0,12(v0)
a0801f04:	00402021 	move	a0,v0
a0801f08:	0c2004c8 	jal	a0801320 <reg_read_32>
a0801f0c:	00000000 	nop
a0801f10:	30420001 	andi	v0,v0,0x1
a0801f14:	304200ff 	andi	v0,v0,0xff
a0801f18:	1440ffea 	bnez	v0,a0801ec4 <s_reset+0x40>
a0801f1c:	00000000 	nop
a0801f20:	03c0e821 	move	sp,s8
a0801f24:	8fbf001c 	lw	ra,28(sp)
a0801f28:	8fbe0018 	lw	s8,24(sp)
a0801f2c:	27bd0020 	addiu	sp,sp,32
a0801f30:	03e00008 	jr	ra
a0801f34:	00000000 	nop

a0801f38 <disable_interrupt_all>:
a0801f38:	27bdffe8 	addiu	sp,sp,-24
a0801f3c:	afbf0014 	sw	ra,20(sp)
a0801f40:	afbe0010 	sw	s8,16(sp)
a0801f44:	03a0f021 	move	s8,sp
a0801f48:	afc40018 	sw	a0,24(s8)
a0801f4c:	8fc20018 	lw	v0,24(s8)
a0801f50:	8c42000c 	lw	v0,12(v0)
a0801f54:	2442001c 	addiu	v0,v0,28
a0801f58:	00402021 	move	a0,v0
a0801f5c:	00002821 	move	a1,zero
a0801f60:	0c2004e5 	jal	a0801394 <reg_write_32>
a0801f64:	00000000 	nop
a0801f68:	03c0e821 	move	sp,s8
a0801f6c:	8fbf0014 	lw	ra,20(sp)
a0801f70:	8fbe0010 	lw	s8,16(sp)
a0801f74:	27bd0018 	addiu	sp,sp,24
a0801f78:	03e00008 	jr	ra
a0801f7c:	00000000 	nop

a0801f80 <set_mac_addr>:
a0801f80:	27bdffd0 	addiu	sp,sp,-48
a0801f84:	afbf002c 	sw	ra,44(sp)
a0801f88:	afbe0028 	sw	s8,40(sp)
a0801f8c:	03a0f021 	move	s8,sp
a0801f90:	afc40030 	sw	a0,48(s8)
a0801f94:	3c03a081 	lui	v1,0xa081
a0801f98:	8c62e74c 	lw	v0,-6324(v1)
a0801f9c:	afc2001c 	sw	v0,28(s8)
a0801fa0:	2462e74c 	addiu	v0,v1,-6324
a0801fa4:	94420004 	lhu	v0,4(v0)
a0801fa8:	a7c20020 	sh	v0,32(s8)
a0801fac:	24020040 	li	v0,64
a0801fb0:	afc20014 	sw	v0,20(s8)
a0801fb4:	24020044 	li	v0,68
a0801fb8:	afc20010 	sw	v0,16(s8)
a0801fbc:	93c20021 	lbu	v0,33(s8)
a0801fc0:	00021a00 	sll	v1,v0,0x8
a0801fc4:	93c20020 	lbu	v0,32(s8)
a0801fc8:	00621025 	or	v0,v1,v0
a0801fcc:	afc20018 	sw	v0,24(s8)
a0801fd0:	8fc20030 	lw	v0,48(s8)
a0801fd4:	8c430008 	lw	v1,8(v0)
a0801fd8:	8fc20014 	lw	v0,20(s8)
a0801fdc:	00621021 	addu	v0,v1,v0
a0801fe0:	00402021 	move	a0,v0
a0801fe4:	8fc50018 	lw	a1,24(s8)
a0801fe8:	0c2004e5 	jal	a0801394 <reg_write_32>
a0801fec:	00000000 	nop
a0801ff0:	93c2001f 	lbu	v0,31(s8)
a0801ff4:	00021e00 	sll	v1,v0,0x18
a0801ff8:	93c2001e 	lbu	v0,30(s8)
a0801ffc:	00021400 	sll	v0,v0,0x10
a0802000:	00621825 	or	v1,v1,v0
a0802004:	93c2001d 	lbu	v0,29(s8)
a0802008:	00021200 	sll	v0,v0,0x8
a080200c:	00621825 	or	v1,v1,v0
a0802010:	93c2001c 	lbu	v0,28(s8)
a0802014:	00621025 	or	v0,v1,v0
a0802018:	afc20018 	sw	v0,24(s8)
a080201c:	8fc20030 	lw	v0,48(s8)
a0802020:	8c430008 	lw	v1,8(v0)
a0802024:	8fc20010 	lw	v0,16(s8)
a0802028:	00621021 	addu	v0,v1,v0
a080202c:	00402021 	move	a0,v0
a0802030:	8fc50018 	lw	a1,24(s8)
a0802034:	0c2004e5 	jal	a0801394 <reg_write_32>
a0802038:	00000000 	nop
a080203c:	03c0e821 	move	sp,s8
a0802040:	8fbf002c 	lw	ra,44(sp)
a0802044:	8fbe0028 	lw	s8,40(sp)
a0802048:	27bd0030 	addiu	sp,sp,48
a080204c:	03e00008 	jr	ra
a0802050:	00000000 	nop

a0802054 <do_net_recv>:
a0802054:	27bdffe0 	addiu	sp,sp,-32
a0802058:	afbf001c 	sw	ra,28(sp)
a080205c:	afbe0018 	sw	s8,24(sp)
a0802060:	03a0f021 	move	s8,sp
a0802064:	afc40020 	sw	a0,32(s8)
a0802068:	afc50024 	sw	a1,36(s8)
a080206c:	afc60028 	sw	a2,40(s8)
a0802070:	3c02bfe1 	lui	v0,0xbfe1
a0802074:	3444100c 	ori	a0,v0,0x100c
a0802078:	8fc50024 	lw	a1,36(s8)
a080207c:	0c2004e5 	jal	a0801394 <reg_write_32>
a0802080:	00000000 	nop
a0802084:	3c04bfe1 	lui	a0,0xbfe1
a0802088:	0c2004c8 	jal	a0801320 <reg_read_32>
a080208c:	00000000 	nop
a0802090:	34420004 	ori	v0,v0,0x4
a0802094:	3c04bfe1 	lui	a0,0xbfe1
a0802098:	00402821 	move	a1,v0
a080209c:	0c2004e5 	jal	a0801394 <reg_write_32>
a08020a0:	00000000 	nop
a08020a4:	3c02bfe1 	lui	v0,0xbfe1
a08020a8:	34441018 	ori	a0,v0,0x1018
a08020ac:	0c2004c8 	jal	a0801320 <reg_read_32>
a08020b0:	00000000 	nop
a08020b4:	00401821 	move	v1,v0
a08020b8:	3c020220 	lui	v0,0x220
a08020bc:	34420002 	ori	v0,v0,0x2
a08020c0:	00621825 	or	v1,v1,v0
a08020c4:	3c02bfe1 	lui	v0,0xbfe1
a08020c8:	34441018 	ori	a0,v0,0x1018
a08020cc:	00602821 	move	a1,v1
a08020d0:	0c2004e5 	jal	a0801394 <reg_write_32>
a08020d4:	00000000 	nop
a08020d8:	3c02bfe1 	lui	v0,0xbfe1
a08020dc:	3444101c 	ori	a0,v0,0x101c
a08020e0:	3c020001 	lui	v0,0x1
a08020e4:	34450041 	ori	a1,v0,0x41
a08020e8:	0c2004e5 	jal	a0801394 <reg_write_32>
a08020ec:	00000000 	nop
a08020f0:	8fc20020 	lw	v0,32(s8)
a08020f4:	afc20010 	sw	v0,16(s8)
a08020f8:	afc00014 	sw	zero,20(s8)
a08020fc:	0820084a 	j	a0802128 <do_net_recv+0xd4>
a0802100:	00000000 	nop
a0802104:	8fc20014 	lw	v0,20(s8)
a0802108:	00021900 	sll	v1,v0,0x4
a080210c:	8fc20010 	lw	v0,16(s8)
a0802110:	00431821 	addu	v1,v0,v1
a0802114:	3c028000 	lui	v0,0x8000
a0802118:	ac620000 	sw	v0,0(v1)
a080211c:	8fc20014 	lw	v0,20(s8)
a0802120:	24420001 	addiu	v0,v0,1
a0802124:	afc20014 	sw	v0,20(s8)
a0802128:	8fc20014 	lw	v0,20(s8)
a080212c:	28421000 	slti	v0,v0,4096
a0802130:	1440fff4 	bnez	v0,a0802104 <do_net_recv+0xb0>
a0802134:	00000000 	nop
a0802138:	afc00014 	sw	zero,20(s8)
a080213c:	08200859 	j	a0802164 <do_net_recv+0x110>
a0802140:	00000000 	nop
a0802144:	3c02bfe1 	lui	v0,0xbfe1
a0802148:	34441008 	ori	a0,v0,0x1008
a080214c:	24050001 	li	a1,1
a0802150:	0c2004e5 	jal	a0801394 <reg_write_32>
a0802154:	00000000 	nop
a0802158:	8fc20014 	lw	v0,20(s8)
a080215c:	24420001 	addiu	v0,v0,1
a0802160:	afc20014 	sw	v0,20(s8)
a0802164:	8fc20014 	lw	v0,20(s8)
a0802168:	28421000 	slti	v0,v0,4096
a080216c:	1440fff5 	bnez	v0,a0802144 <do_net_recv+0xf0>
a0802170:	00000000 	nop
a0802174:	00001021 	move	v0,zero
a0802178:	03c0e821 	move	sp,s8
a080217c:	8fbf001c 	lw	ra,28(sp)
a0802180:	8fbe0018 	lw	s8,24(sp)
a0802184:	27bd0020 	addiu	sp,sp,32
a0802188:	03e00008 	jr	ra
a080218c:	00000000 	nop

a0802190 <do_net_send>:
a0802190:	27bdffe0 	addiu	sp,sp,-32
a0802194:	afbf001c 	sw	ra,28(sp)
a0802198:	afbe0018 	sw	s8,24(sp)
a080219c:	03a0f021 	move	s8,sp
a08021a0:	afc40020 	sw	a0,32(s8)
a08021a4:	afc50024 	sw	a1,36(s8)
a08021a8:	3c02bfe1 	lui	v0,0xbfe1
a08021ac:	34441010 	ori	a0,v0,0x1010
a08021b0:	8fc50024 	lw	a1,36(s8)
a08021b4:	0c2004e5 	jal	a0801394 <reg_write_32>
a08021b8:	00000000 	nop
a08021bc:	3c04bfe1 	lui	a0,0xbfe1
a08021c0:	0c2004c8 	jal	a0801320 <reg_read_32>
a08021c4:	00000000 	nop
a08021c8:	34420008 	ori	v0,v0,0x8
a08021cc:	3c04bfe1 	lui	a0,0xbfe1
a08021d0:	00402821 	move	a1,v0
a08021d4:	0c2004e5 	jal	a0801394 <reg_write_32>
a08021d8:	00000000 	nop
a08021dc:	3c02bfe1 	lui	v0,0xbfe1
a08021e0:	34441018 	ori	a0,v0,0x1018
a08021e4:	0c2004c8 	jal	a0801320 <reg_read_32>
a08021e8:	00000000 	nop
a08021ec:	00401821 	move	v1,v0
a08021f0:	3c020220 	lui	v0,0x220
a08021f4:	34422000 	ori	v0,v0,0x2000
a08021f8:	00621825 	or	v1,v1,v0
a08021fc:	3c02bfe1 	lui	v0,0xbfe1
a0802200:	34441018 	ori	a0,v0,0x1018
a0802204:	00602821 	move	a1,v1
a0802208:	0c2004e5 	jal	a0801394 <reg_write_32>
a080220c:	00000000 	nop
a0802210:	3c02bfe1 	lui	v0,0xbfe1
a0802214:	3444101c 	ori	a0,v0,0x101c
a0802218:	3c020001 	lui	v0,0x1
a080221c:	34450041 	ori	a1,v0,0x41
a0802220:	0c2004e5 	jal	a0801394 <reg_write_32>
a0802224:	00000000 	nop
a0802228:	8fc20020 	lw	v0,32(s8)
a080222c:	afc20010 	sw	v0,16(s8)
a0802230:	afc00014 	sw	zero,20(s8)
a0802234:	08200898 	j	a0802260 <do_net_send+0xd0>
a0802238:	00000000 	nop
a080223c:	8fc20014 	lw	v0,20(s8)
a0802240:	00021900 	sll	v1,v0,0x4
a0802244:	8fc20010 	lw	v0,16(s8)
a0802248:	00431821 	addu	v1,v0,v1
a080224c:	3c028000 	lui	v0,0x8000
a0802250:	ac620000 	sw	v0,0(v1)
a0802254:	8fc20014 	lw	v0,20(s8)
a0802258:	24420001 	addiu	v0,v0,1
a080225c:	afc20014 	sw	v0,20(s8)
a0802260:	8fc20014 	lw	v0,20(s8)
a0802264:	28420040 	slti	v0,v0,64
a0802268:	1440fff4 	bnez	v0,a080223c <do_net_send+0xac>
a080226c:	00000000 	nop
a0802270:	3c02bfe1 	lui	v0,0xbfe1
a0802274:	34441004 	ori	a0,v0,0x1004
a0802278:	24050001 	li	a1,1
a080227c:	0c2004e5 	jal	a0801394 <reg_write_32>
a0802280:	00000000 	nop
a0802284:	afc00014 	sw	zero,20(s8)
a0802288:	082008b7 	j	a08022dc <do_net_send+0x14c>
a080228c:	00000000 	nop
a0802290:	8fc20014 	lw	v0,20(s8)
a0802294:	00021900 	sll	v1,v0,0x4
a0802298:	8fc20010 	lw	v0,16(s8)
a080229c:	00431021 	addu	v0,v0,v1
a08022a0:	8c420000 	lw	v0,0(v0)
a08022a4:	0440000d 	bltz	v0,a08022dc <do_net_send+0x14c>
a08022a8:	00000000 	nop
a08022ac:	8fc20014 	lw	v0,20(s8)
a08022b0:	24420001 	addiu	v0,v0,1
a08022b4:	afc20014 	sw	v0,20(s8)
a08022b8:	8fc20014 	lw	v0,20(s8)
a08022bc:	28420040 	slti	v0,v0,64
a08022c0:	10400006 	beqz	v0,a08022dc <do_net_send+0x14c>
a08022c4:	00000000 	nop
a08022c8:	3c02bfe1 	lui	v0,0xbfe1
a08022cc:	34441004 	ori	a0,v0,0x1004
a08022d0:	24050001 	li	a1,1
a08022d4:	0c2004e5 	jal	a0801394 <reg_write_32>
a08022d8:	00000000 	nop
a08022dc:	8fc20014 	lw	v0,20(s8)
a08022e0:	28420040 	slti	v0,v0,64
a08022e4:	1440ffea 	bnez	v0,a0802290 <do_net_send+0x100>
a08022e8:	00000000 	nop
a08022ec:	03c0e821 	move	sp,s8
a08022f0:	8fbf001c 	lw	ra,28(sp)
a08022f4:	8fbe0018 	lw	s8,24(sp)
a08022f8:	27bd0020 	addiu	sp,sp,32
a08022fc:	03e00008 	jr	ra
a0802300:	00000000 	nop

a0802304 <do_init_mac>:
a0802304:	27bdffb0 	addiu	sp,sp,-80
a0802308:	afbf004c 	sw	ra,76(sp)
a080230c:	afbe0048 	sw	s8,72(sp)
a0802310:	03a0f021 	move	s8,sp
a0802314:	3c02bfe1 	lui	v0,0xbfe1
a0802318:	afc2001c 	sw	v0,28(s8)
a080231c:	3c02bfe1 	lui	v0,0xbfe1
a0802320:	34421000 	ori	v0,v0,0x1000
a0802324:	afc20020 	sw	v0,32(s8)
a0802328:	24020400 	li	v0,1024
a080232c:	afc20014 	sw	v0,20(s8)
a0802330:	24020040 	li	v0,64
a0802334:	afc20018 	sw	v0,24(s8)
a0802338:	0c200795 	jal	a0801e54 <set_sram_ctr>
a080233c:	00000000 	nop
a0802340:	27c20014 	addiu	v0,s8,20
a0802344:	00402021 	move	a0,v0
a0802348:	0c2007a1 	jal	a0801e84 <s_reset>
a080234c:	00000000 	nop
a0802350:	27c20014 	addiu	v0,s8,20
a0802354:	00402021 	move	a0,v0
a0802358:	0c2007ce 	jal	a0801f38 <disable_interrupt_all>
a080235c:	00000000 	nop
a0802360:	27c20014 	addiu	v0,s8,20
a0802364:	00402021 	move	a0,v0
a0802368:	0c2007e0 	jal	a0801f80 <set_mac_addr>
a080236c:	00000000 	nop
a0802370:	3c02bfd0 	lui	v0,0xbfd0
a0802374:	34441064 	ori	a0,v0,0x1064
a0802378:	2405ffff 	li	a1,-1
a080237c:	0c2004e5 	jal	a0801394 <reg_write_32>
a0802380:	00000000 	nop
a0802384:	3c02bfd0 	lui	v0,0xbfd0
a0802388:	34441068 	ori	a0,v0,0x1068
a080238c:	2405ffff 	li	a1,-1
a0802390:	0c2004e5 	jal	a0801394 <reg_write_32>
a0802394:	00000000 	nop
a0802398:	3c02bfd0 	lui	v0,0xbfd0
a080239c:	3444106c 	ori	a0,v0,0x106c
a08023a0:	00002821 	move	a1,zero
a08023a4:	0c2004e5 	jal	a0801394 <reg_write_32>
a08023a8:	00000000 	nop
a08023ac:	03c0e821 	move	sp,s8
a08023b0:	8fbf004c 	lw	ra,76(sp)
a08023b4:	8fbe0048 	lw	s8,72(sp)
a08023b8:	27bd0050 	addiu	sp,sp,80
a08023bc:	03e00008 	jr	ra
a08023c0:	00000000 	nop

a08023c4 <do_wait_recv_package>:
a08023c4:	27bdffe8 	addiu	sp,sp,-24
a08023c8:	afbf0014 	sw	ra,20(sp)
a08023cc:	afbe0010 	sw	s8,16(sp)
a08023d0:	03a0f021 	move	s8,sp
a08023d4:	3c02a081 	lui	v0,0xa081
a08023d8:	8c420100 	lw	v0,256(v0)
a08023dc:	ac400198 	sw	zero,408(v0)
a08023e0:	3c02a081 	lui	v0,0xa081
a08023e4:	8c430100 	lw	v1,256(v0)
a08023e8:	3c02a081 	lui	v0,0xa081
a08023ec:	24420110 	addiu	v0,v0,272
a08023f0:	ac620190 	sw	v0,400(v1)
a08023f4:	3c02a081 	lui	v0,0xa081
a08023f8:	8c430100 	lw	v1,256(v0)
a08023fc:	3c02a081 	lui	v0,0xa081
a0802400:	24440110 	addiu	a0,v0,272
a0802404:	00602821 	move	a1,v1
a0802408:	0c202162 	jal	a0808588 <queue_push>
a080240c:	00000000 	nop
a0802410:	0c20010a 	jal	a0800428 <do_scheduler>
a0802414:	00000000 	nop
a0802418:	03c0e821 	move	sp,s8
a080241c:	8fbf0014 	lw	ra,20(sp)
a0802420:	8fbe0010 	lw	s8,16(sp)
a0802424:	27bd0018 	addiu	sp,sp,24
a0802428:	03e00008 	jr	ra
a080242c:	00000000 	nop

a0802430 <init_pcb>:
a0802430:	27bdffe0 	addiu	sp,sp,-32
a0802434:	afbf001c 	sw	ra,28(sp)
a0802438:	afbe0018 	sw	s8,24(sp)
a080243c:	03a0f021 	move	s8,sp
a0802440:	3c02a081 	lui	v0,0xa081
a0802444:	244400d4 	addiu	a0,v0,212
a0802448:	0c202140 	jal	a0808500 <queue_init>
a080244c:	00000000 	nop
a0802450:	3c02a081 	lui	v0,0xa081
a0802454:	244400e8 	addiu	a0,v0,232
a0802458:	0c202140 	jal	a0808500 <queue_init>
a080245c:	00000000 	nop
a0802460:	3c02a081 	lui	v0,0xa081
a0802464:	244400c8 	addiu	a0,v0,200
a0802468:	0c202140 	jal	a0808500 <queue_init>
a080246c:	00000000 	nop
a0802470:	3c02a081 	lui	v0,0xa081
a0802474:	244241f0 	addiu	v0,v0,16880
a0802478:	ac40018c 	sw	zero,396(v0)
a080247c:	3c02a081 	lui	v0,0xa081
a0802480:	244341f0 	addiu	v1,v0,16880
a0802484:	24020001 	li	v0,1
a0802488:	ac620198 	sw	v0,408(v1)
a080248c:	3c02a081 	lui	v0,0xa081
a0802490:	244341f0 	addiu	v1,v0,16880
a0802494:	2402ffff 	li	v0,-1
a0802498:	ac620150 	sw	v0,336(v1)
a080249c:	3c02a081 	lui	v0,0xa081
a08024a0:	2444435c 	addiu	a0,v0,17244
a08024a4:	0c202140 	jal	a0808500 <queue_init>
a08024a8:	00000000 	nop
a08024ac:	3c02a081 	lui	v0,0xa081
a08024b0:	244241f0 	addiu	v0,v0,16880
a08024b4:	ac400190 	sw	zero,400(v0)
a08024b8:	3c02a081 	lui	v0,0xa081
a08024bc:	244241f0 	addiu	v0,v0,16880
a08024c0:	ac400194 	sw	zero,404(v0)
a08024c4:	3c02a081 	lui	v0,0xa081
a08024c8:	24424394 	addiu	v0,v0,17300
a08024cc:	afc20010 	sw	v0,16(s8)
a08024d0:	8fc20010 	lw	v0,16(s8)
a08024d4:	00402021 	move	a0,v0
a08024d8:	2405009c 	li	a1,156
a08024dc:	0c202833 	jal	a080a0cc <bzero>
a08024e0:	00000000 	nop
a08024e4:	8fc20010 	lw	v0,16(s8)
a08024e8:	2442009c 	addiu	v0,v0,156
a08024ec:	00402021 	move	a0,v0
a08024f0:	2405009c 	li	a1,156
a08024f4:	0c202833 	jal	a080a0cc <bzero>
a08024f8:	00000000 	nop
a08024fc:	0c201f72 	jal	a0807dc8 <new_stack>
a0802500:	00000000 	nop
a0802504:	00401821 	move	v1,v0
a0802508:	8fc20010 	lw	v0,16(s8)
a080250c:	ac430074 	sw	v1,116(v0)
a0802510:	8fc20010 	lw	v0,16(s8)
a0802514:	8c430074 	lw	v1,116(v0)
a0802518:	8fc20010 	lw	v0,16(s8)
a080251c:	ac430138 	sw	v1,312(v0)
a0802520:	0c201f72 	jal	a0807dc8 <new_stack>
a0802524:	00000000 	nop
a0802528:	00401821 	move	v1,v0
a080252c:	8fc20010 	lw	v0,16(s8)
a0802530:	ac430110 	sw	v1,272(v0)
a0802534:	8fc20010 	lw	v0,16(s8)
a0802538:	8c430110 	lw	v1,272(v0)
a080253c:	8fc20010 	lw	v0,16(s8)
a0802540:	ac43013c 	sw	v1,316(v0)
a0802544:	3c02a080 	lui	v0,0xa080
a0802548:	24430758 	addiu	v1,v0,1880
a080254c:	8fc20010 	lw	v0,16(s8)
a0802550:	ac43007c 	sw	v1,124(v0)
a0802554:	8fc30010 	lw	v1,16(s8)
a0802558:	3c021000 	lui	v0,0x1000
a080255c:	34428003 	ori	v0,v0,0x8003
a0802560:	ac620080 	sw	v0,128(v1)
a0802564:	3c02a081 	lui	v0,0xa081
a0802568:	2443b554 	addiu	v1,v0,-19116
a080256c:	8fc20010 	lw	v0,16(s8)
a0802570:	ac430094 	sw	v1,148(v0)
a0802574:	3c02a081 	lui	v0,0xa081
a0802578:	2443b554 	addiu	v1,v0,-19116
a080257c:	8fc20010 	lw	v0,16(s8)
a0802580:	ac430118 	sw	v1,280(v0)
a0802584:	8fc30010 	lw	v1,16(s8)
a0802588:	3c021000 	lui	v0,0x1000
a080258c:	34428003 	ori	v0,v0,0x8003
a0802590:	ac62011c 	sw	v0,284(v1)
a0802594:	3c02a081 	lui	v0,0xa081
a0802598:	2443b554 	addiu	v1,v0,-19116
a080259c:	8fc20010 	lw	v0,16(s8)
a08025a0:	ac430130 	sw	v1,304(v0)
a08025a4:	8fc30010 	lw	v1,16(s8)
a08025a8:	2402ffff 	li	v0,-1
a08025ac:	ac620150 	sw	v0,336(v1)
a08025b0:	8fc20010 	lw	v0,16(s8)
a08025b4:	2442016c 	addiu	v0,v0,364
a08025b8:	00402021 	move	a0,v0
a08025bc:	0c202140 	jal	a0808500 <queue_init>
a08025c0:	00000000 	nop
a08025c4:	8fc30010 	lw	v1,16(s8)
a08025c8:	3c02a081 	lui	v0,0xa081
a08025cc:	244241f0 	addiu	v0,v0,16880
a08025d0:	00621023 	subu	v0,v1,v0
a08025d4:	00021882 	srl	v1,v0,0x2
a08025d8:	3c024e04 	lui	v0,0x4e04
a08025dc:	3442e04f 	ori	v0,v0,0xe04f
a08025e0:	00620019 	multu	v1,v0
a08025e4:	00001010 	mfhi	v0
a08025e8:	00021142 	srl	v0,v0,0x5
a08025ec:	00401821 	move	v1,v0
a08025f0:	8fc20010 	lw	v0,16(s8)
a08025f4:	ac43018c 	sw	v1,396(v0)
a08025f8:	8fc30010 	lw	v1,16(s8)
a08025fc:	3c02a081 	lui	v0,0xa081
a0802600:	244200d4 	addiu	v0,v0,212
a0802604:	ac620190 	sw	v0,400(v1)
a0802608:	8fc30010 	lw	v1,16(s8)
a080260c:	24020002 	li	v0,2
a0802610:	ac620194 	sw	v0,404(v1)
a0802614:	8fc30010 	lw	v1,16(s8)
a0802618:	24020002 	li	v0,2
a080261c:	ac620198 	sw	v0,408(v1)
a0802620:	3c02a081 	lui	v0,0xa081
a0802624:	244400d4 	addiu	a0,v0,212
a0802628:	8fc50010 	lw	a1,16(s8)
a080262c:	0c20218c 	jal	a0808630 <priority_queue_push>
a0802630:	00000000 	nop
a0802634:	3c03a081 	lui	v1,0xa081
a0802638:	24020002 	li	v0,2
a080263c:	ac6200f0 	sw	v0,240(v1)
a0802640:	3c03a081 	lui	v1,0xa081
a0802644:	3c02a081 	lui	v0,0xa081
a0802648:	244241f0 	addiu	v0,v0,16880
a080264c:	ac620100 	sw	v0,256(v1)
a0802650:	03c0e821 	move	sp,s8
a0802654:	8fbf001c 	lw	ra,28(sp)
a0802658:	8fbe0018 	lw	s8,24(sp)
a080265c:	27bd0020 	addiu	sp,sp,32
a0802660:	03e00008 	jr	ra
a0802664:	00000000 	nop

a0802668 <init_exception_handler>:
a0802668:	27bdfff0 	addiu	sp,sp,-16
a080266c:	afbe000c 	sw	s8,12(sp)
a0802670:	03a0f021 	move	s8,sp
a0802674:	3c02a080 	lui	v0,0xa080
a0802678:	24430690 	addiu	v1,v0,1680
a080267c:	3c02a081 	lui	v0,0xa081
a0802680:	ac433170 	sw	v1,12656(v0)
a0802684:	24020001 	li	v0,1
a0802688:	afc20000 	sw	v0,0(s8)
a080268c:	082009b0 	j	a08026c0 <init_exception_handler+0x58>
a0802690:	00000000 	nop
a0802694:	8fc30000 	lw	v1,0(s8)
a0802698:	3c02a080 	lui	v0,0xa080
a080269c:	244409b4 	addiu	a0,v0,2484
a08026a0:	3c02a081 	lui	v0,0xa081
a08026a4:	00031880 	sll	v1,v1,0x2
a08026a8:	24423170 	addiu	v0,v0,12656
a08026ac:	00621021 	addu	v0,v1,v0
a08026b0:	ac440000 	sw	a0,0(v0)
a08026b4:	8fc20000 	lw	v0,0(s8)
a08026b8:	24420001 	addiu	v0,v0,1
a08026bc:	afc20000 	sw	v0,0(s8)
a08026c0:	8fc20000 	lw	v0,0(s8)
a08026c4:	28420020 	slti	v0,v0,32
a08026c8:	1440fff2 	bnez	v0,a0802694 <init_exception_handler+0x2c>
a08026cc:	00000000 	nop
a08026d0:	3c02a080 	lui	v0,0xa080
a08026d4:	24430828 	addiu	v1,v0,2088
a08026d8:	3c02a081 	lui	v0,0xa081
a08026dc:	24423170 	addiu	v0,v0,12656
a08026e0:	ac430020 	sw	v1,32(v0)
a08026e4:	03c0e821 	move	sp,s8
a08026e8:	8fbe000c 	lw	s8,12(sp)
a08026ec:	27bd0010 	addiu	sp,sp,16
a08026f0:	03e00008 	jr	ra
a08026f4:	00000000 	nop

a08026f8 <init_exception>:
a08026f8:	27bdffe8 	addiu	sp,sp,-24
a08026fc:	afbf0014 	sw	ra,20(sp)
a0802700:	afbe0010 	sw	s8,16(sp)
a0802704:	03a0f021 	move	s8,sp
a0802708:	0c20099a 	jal	a0802668 <init_exception_handler>
a080270c:	00000000 	nop
a0802710:	0c2000d3 	jal	a080034c <get_cp0_status>
a0802714:	00000000 	nop
a0802718:	00401821 	move	v1,v0
a080271c:	3c02a081 	lui	v0,0xa081
a0802720:	ac4300e4 	sw	v1,228(v0)
a0802724:	3c02a081 	lui	v0,0xa081
a0802728:	8c4300e4 	lw	v1,228(v0)
a080272c:	3c021000 	lui	v0,0x1000
a0802730:	3442ff01 	ori	v0,v0,0xff01
a0802734:	00621825 	or	v1,v1,v0
a0802738:	3c02a081 	lui	v0,0xa081
a080273c:	ac4300e4 	sw	v1,228(v0)
a0802740:	3c02a081 	lui	v0,0xa081
a0802744:	8c4200e4 	lw	v0,228(v0)
a0802748:	38430001 	xori	v1,v0,0x1
a080274c:	3c02a081 	lui	v0,0xa081
a0802750:	ac4300e4 	sw	v1,228(v0)
a0802754:	3c02a081 	lui	v0,0xa081
a0802758:	8c4200e4 	lw	v0,228(v0)
a080275c:	00402021 	move	a0,v0
a0802760:	0c2000d6 	jal	a0800358 <set_cp0_status>
a0802764:	00000000 	nop
a0802768:	3c02a081 	lui	v0,0xa081
a080276c:	8c4200e4 	lw	v0,228(v0)
a0802770:	34430001 	ori	v1,v0,0x1
a0802774:	3c02a081 	lui	v0,0xa081
a0802778:	ac4300e4 	sw	v1,228(v0)
a080277c:	3c048000 	lui	a0,0x8000
a0802780:	24050180 	li	a1,384
a0802784:	0c202833 	jal	a080a0cc <bzero>
a0802788:	00000000 	nop
a080278c:	3c02a080 	lui	v0,0xa080
a0802790:	24430654 	addiu	v1,v0,1620
a0802794:	3c02a080 	lui	v0,0xa080
a0802798:	2442058c 	addiu	v0,v0,1420
a080279c:	00621823 	subu	v1,v1,v0
a08027a0:	3c048000 	lui	a0,0x8000
a08027a4:	3c02a080 	lui	v0,0xa080
a08027a8:	2445058c 	addiu	a1,v0,1420
a08027ac:	00603021 	move	a2,v1
a08027b0:	0c2027fa 	jal	a0809fe8 <memcpy>
a08027b4:	00000000 	nop
a08027b8:	3c02a080 	lui	v0,0xa080
a08027bc:	24430690 	addiu	v1,v0,1680
a08027c0:	3c02a080 	lui	v0,0xa080
a08027c4:	24420654 	addiu	v0,v0,1620
a08027c8:	00621823 	subu	v1,v1,v0
a08027cc:	3c028000 	lui	v0,0x8000
a08027d0:	34440180 	ori	a0,v0,0x180
a08027d4:	3c02a080 	lui	v0,0xa080
a08027d8:	24450654 	addiu	a1,v0,1620
a08027dc:	00603021 	move	a2,v1
a08027e0:	0c2027fa 	jal	a0809fe8 <memcpy>
a08027e4:	00000000 	nop
a08027e8:	3c04bfc0 	lui	a0,0xbfc0
a08027ec:	24050380 	li	a1,896
a08027f0:	0c202833 	jal	a080a0cc <bzero>
a08027f4:	00000000 	nop
a08027f8:	3c02a080 	lui	v0,0xa080
a08027fc:	24430654 	addiu	v1,v0,1620
a0802800:	3c02a080 	lui	v0,0xa080
a0802804:	2442058c 	addiu	v0,v0,1420
a0802808:	00621823 	subu	v1,v1,v0
a080280c:	3c04bfc0 	lui	a0,0xbfc0
a0802810:	3c02a080 	lui	v0,0xa080
a0802814:	2445058c 	addiu	a1,v0,1420
a0802818:	00603021 	move	a2,v1
a080281c:	0c2027fa 	jal	a0809fe8 <memcpy>
a0802820:	00000000 	nop
a0802824:	3c02a080 	lui	v0,0xa080
a0802828:	24430690 	addiu	v1,v0,1680
a080282c:	3c02a080 	lui	v0,0xa080
a0802830:	24420654 	addiu	v0,v0,1620
a0802834:	00621823 	subu	v1,v1,v0
a0802838:	3c02bfc0 	lui	v0,0xbfc0
a080283c:	34440380 	ori	a0,v0,0x380
a0802840:	3c02a080 	lui	v0,0xa080
a0802844:	24450654 	addiu	a1,v0,1620
a0802848:	00603021 	move	a2,v1
a080284c:	0c2027fa 	jal	a0809fe8 <memcpy>
a0802850:	00000000 	nop
a0802854:	00002021 	move	a0,zero
a0802858:	0c2000df 	jal	a080037c <set_cp0_COUNT>
a080285c:	00000000 	nop
a0802860:	3c040003 	lui	a0,0x3
a0802864:	0c2000e8 	jal	a08003a0 <set_cp0_COMPARE>
a0802868:	00000000 	nop
a080286c:	03c0e821 	move	sp,s8
a0802870:	8fbf0014 	lw	ra,20(sp)
a0802874:	8fbe0010 	lw	s8,16(sp)
a0802878:	27bd0018 	addiu	sp,sp,24
a080287c:	03e00008 	jr	ra
a0802880:	00000000 	nop

a0802884 <init_syscall>:
a0802884:	27bdfff0 	addiu	sp,sp,-16
a0802888:	afbe000c 	sw	s8,12(sp)
a080288c:	03a0f021 	move	s8,sp
a0802890:	afc00000 	sw	zero,0(s8)
a0802894:	08200a32 	j	a08028c8 <init_syscall+0x44>
a0802898:	00000000 	nop
a080289c:	8fc30000 	lw	v1,0(s8)
a08028a0:	3c02a081 	lui	v0,0xa081
a08028a4:	24449628 	addiu	a0,v0,-27096
a08028a8:	3c02a081 	lui	v0,0xa081
a08028ac:	00031880 	sll	v1,v1,0x2
a08028b0:	24422ad0 	addiu	v0,v0,10960
a08028b4:	00621021 	addu	v0,v1,v0
a08028b8:	ac440000 	sw	a0,0(v0)
a08028bc:	8fc20000 	lw	v0,0(s8)
a08028c0:	24420001 	addiu	v0,v0,1
a08028c4:	afc20000 	sw	v0,0(s8)
a08028c8:	8fc20000 	lw	v0,0(s8)
a08028cc:	28420040 	slti	v0,v0,64
a08028d0:	1440fff2 	bnez	v0,a080289c <init_syscall+0x18>
a08028d4:	00000000 	nop
a08028d8:	3c02a080 	lui	v0,0xa080
a08028dc:	244379b4 	addiu	v1,v0,31156
a08028e0:	3c02a081 	lui	v0,0xa081
a08028e4:	24422ad0 	addiu	v0,v0,10960
a08028e8:	ac430008 	sw	v1,8(v0)
a08028ec:	3c02a080 	lui	v0,0xa080
a08028f0:	24437bec 	addiu	v1,v0,31724
a08028f4:	3c02a081 	lui	v0,0xa081
a08028f8:	24422ad0 	addiu	v0,v0,10960
a08028fc:	ac43000c 	sw	v1,12(v0)
a0802900:	3c02a080 	lui	v0,0xa080
a0802904:	24437a50 	addiu	v1,v0,31312
a0802908:	3c02a081 	lui	v0,0xa081
a080290c:	24422ad0 	addiu	v0,v0,10960
a0802910:	ac430028 	sw	v1,40(v0)
a0802914:	3c02a080 	lui	v0,0xa080
a0802918:	24437ab8 	addiu	v1,v0,31416
a080291c:	3c02a081 	lui	v0,0xa081
a0802920:	24422ad0 	addiu	v0,v0,10960
a0802924:	ac43002c 	sw	v1,44(v0)
a0802928:	3c02a080 	lui	v0,0xa080
a080292c:	24437b64 	addiu	v1,v0,31588
a0802930:	3c02a081 	lui	v0,0xa081
a0802934:	24422ad0 	addiu	v0,v0,10960
a0802938:	ac430030 	sw	v1,48(v0)
a080293c:	3c02a080 	lui	v0,0xa080
a0802940:	24431100 	addiu	v1,v0,4352
a0802944:	3c02a081 	lui	v0,0xa081
a0802948:	24422ad0 	addiu	v0,v0,10960
a080294c:	ac430050 	sw	v1,80(v0)
a0802950:	3c02a080 	lui	v0,0xa080
a0802954:	244310c0 	addiu	v1,v0,4288
a0802958:	3c02a081 	lui	v0,0xa081
a080295c:	24422ad0 	addiu	v0,v0,10960
a0802960:	ac430058 	sw	v1,88(v0)
a0802964:	3c02a080 	lui	v0,0xa080
a0802968:	24431188 	addiu	v1,v0,4488
a080296c:	3c02a081 	lui	v0,0xa081
a0802970:	24422ad0 	addiu	v0,v0,10960
a0802974:	ac43005c 	sw	v1,92(v0)
a0802978:	3c02a080 	lui	v0,0xa080
a080297c:	24437c18 	addiu	v1,v0,31768
a0802980:	3c02a081 	lui	v0,0xa081
a0802984:	24422ad0 	addiu	v0,v0,10960
a0802988:	ac430060 	sw	v1,96(v0)
a080298c:	3c02a080 	lui	v0,0xa080
a0802990:	24437d28 	addiu	v1,v0,32040
a0802994:	3c02a081 	lui	v0,0xa081
a0802998:	24422ad0 	addiu	v0,v0,10960
a080299c:	ac430064 	sw	v1,100(v0)
a08029a0:	3c02a080 	lui	v0,0xa080
a08029a4:	24437e54 	addiu	v1,v0,32340
a08029a8:	3c02a081 	lui	v0,0xa081
a08029ac:	24422ad0 	addiu	v0,v0,10960
a08029b0:	ac430068 	sw	v1,104(v0)
a08029b4:	3c02a081 	lui	v0,0xa081
a08029b8:	2443807c 	addiu	v1,v0,-32644
a08029bc:	3c02a081 	lui	v0,0xa081
a08029c0:	24422ad0 	addiu	v0,v0,10960
a08029c4:	ac43006c 	sw	v1,108(v0)
a08029c8:	3c02a081 	lui	v0,0xa081
a08029cc:	24438250 	addiu	v1,v0,-32176
a08029d0:	3c02a081 	lui	v0,0xa081
a08029d4:	24422ad0 	addiu	v0,v0,10960
a08029d8:	ac430070 	sw	v1,112(v0)
a08029dc:	3c02a081 	lui	v0,0xa081
a08029e0:	244383e4 	addiu	v1,v0,-31772
a08029e4:	3c02a081 	lui	v0,0xa081
a08029e8:	24422ad0 	addiu	v0,v0,10960
a08029ec:	ac430074 	sw	v1,116(v0)
a08029f0:	3c02a080 	lui	v0,0xa080
a08029f4:	24433298 	addiu	v1,v0,12952
a08029f8:	3c02a081 	lui	v0,0xa081
a08029fc:	24422ad0 	addiu	v0,v0,10960
a0802a00:	ac430078 	sw	v1,120(v0)
a0802a04:	3c02a080 	lui	v0,0xa080
a0802a08:	244332e0 	addiu	v1,v0,13024
a0802a0c:	3c02a081 	lui	v0,0xa081
a0802a10:	24422ad0 	addiu	v0,v0,10960
a0802a14:	ac43007c 	sw	v1,124(v0)
a0802a18:	3c02a080 	lui	v0,0xa080
a0802a1c:	2443337c 	addiu	v1,v0,13180
a0802a20:	3c02a081 	lui	v0,0xa081
a0802a24:	24422ad0 	addiu	v0,v0,10960
a0802a28:	ac430080 	sw	v1,128(v0)
a0802a2c:	3c02a080 	lui	v0,0xa080
a0802a30:	24437d70 	addiu	v1,v0,32112
a0802a34:	3c02a081 	lui	v0,0xa081
a0802a38:	24422ad0 	addiu	v0,v0,10960
a0802a3c:	ac430084 	sw	v1,132(v0)
a0802a40:	3c02a080 	lui	v0,0xa080
a0802a44:	24432df0 	addiu	v1,v0,11760
a0802a48:	3c02a081 	lui	v0,0xa081
a0802a4c:	24422ad0 	addiu	v0,v0,10960
a0802a50:	ac430088 	sw	v1,136(v0)
a0802a54:	3c02a080 	lui	v0,0xa080
a0802a58:	24432e48 	addiu	v1,v0,11848
a0802a5c:	3c02a081 	lui	v0,0xa081
a0802a60:	24422ad0 	addiu	v0,v0,10960
a0802a64:	ac43008c 	sw	v1,140(v0)
a0802a68:	3c02a080 	lui	v0,0xa080
a0802a6c:	24432ff0 	addiu	v1,v0,12272
a0802a70:	3c02a081 	lui	v0,0xa081
a0802a74:	24422ad0 	addiu	v0,v0,10960
a0802a78:	ac430090 	sw	v1,144(v0)
a0802a7c:	3c02a080 	lui	v0,0xa080
a0802a80:	24433040 	addiu	v1,v0,12352
a0802a84:	3c02a081 	lui	v0,0xa081
a0802a88:	24422ad0 	addiu	v0,v0,10960
a0802a8c:	ac430094 	sw	v1,148(v0)
a0802a90:	3c02a080 	lui	v0,0xa080
a0802a94:	244330ec 	addiu	v1,v0,12524
a0802a98:	3c02a081 	lui	v0,0xa081
a0802a9c:	24422ad0 	addiu	v0,v0,10960
a0802aa0:	ac430098 	sw	v1,152(v0)
a0802aa4:	3c02a080 	lui	v0,0xa080
a0802aa8:	24432ee0 	addiu	v1,v0,12000
a0802aac:	3c02a081 	lui	v0,0xa081
a0802ab0:	24422ad0 	addiu	v0,v0,10960
a0802ab4:	ac43009c 	sw	v1,156(v0)
a0802ab8:	3c02a080 	lui	v0,0xa080
a0802abc:	24432f1c 	addiu	v1,v0,12060
a0802ac0:	3c02a081 	lui	v0,0xa081
a0802ac4:	24422ad0 	addiu	v0,v0,10960
a0802ac8:	ac4300a0 	sw	v1,160(v0)
a0802acc:	3c02a080 	lui	v0,0xa080
a0802ad0:	24432f78 	addiu	v1,v0,12152
a0802ad4:	3c02a081 	lui	v0,0xa081
a0802ad8:	24422ad0 	addiu	v0,v0,10960
a0802adc:	ac4300a4 	sw	v1,164(v0)
a0802ae0:	3c02a080 	lui	v0,0xa080
a0802ae4:	24432fb4 	addiu	v1,v0,12212
a0802ae8:	3c02a081 	lui	v0,0xa081
a0802aec:	24422ad0 	addiu	v0,v0,10960
a0802af0:	ac4300a8 	sw	v1,168(v0)
a0802af4:	3c02a080 	lui	v0,0xa080
a0802af8:	24432304 	addiu	v1,v0,8964
a0802afc:	3c02a081 	lui	v0,0xa081
a0802b00:	24422ad0 	addiu	v0,v0,10960
a0802b04:	ac4300ac 	sw	v1,172(v0)
a0802b08:	3c02a080 	lui	v0,0xa080
a0802b0c:	24432190 	addiu	v1,v0,8592
a0802b10:	3c02a081 	lui	v0,0xa081
a0802b14:	24422ad0 	addiu	v0,v0,10960
a0802b18:	ac4300b0 	sw	v1,176(v0)
a0802b1c:	3c02a080 	lui	v0,0xa080
a0802b20:	24432054 	addiu	v1,v0,8276
a0802b24:	3c02a081 	lui	v0,0xa081
a0802b28:	24422ad0 	addiu	v0,v0,10960
a0802b2c:	ac4300b4 	sw	v1,180(v0)
a0802b30:	3c02a080 	lui	v0,0xa080
a0802b34:	244323c4 	addiu	v1,v0,9156
a0802b38:	3c02a081 	lui	v0,0xa081
a0802b3c:	24422ad0 	addiu	v0,v0,10960
a0802b40:	ac4300b8 	sw	v1,184(v0)
a0802b44:	3c02a081 	lui	v0,0xa081
a0802b48:	24432ad0 	addiu	v1,v0,10960
a0802b4c:	3c02a080 	lui	v0,0xa080
a0802b50:	24423f88 	addiu	v0,v0,16264
a0802b54:	ac6200bc 	sw	v0,188(v1)
a0802b58:	3c02a080 	lui	v0,0xa080
a0802b5c:	244354f0 	addiu	v1,v0,21744
a0802b60:	3c02a081 	lui	v0,0xa081
a0802b64:	24422ad0 	addiu	v0,v0,10960
a0802b68:	ac4300c0 	sw	v1,192(v0)
a0802b6c:	3c02a080 	lui	v0,0xa080
a0802b70:	244344cc 	addiu	v1,v0,17612
a0802b74:	3c02a081 	lui	v0,0xa081
a0802b78:	24422ad0 	addiu	v0,v0,10960
a0802b7c:	ac4300c8 	sw	v1,200(v0)
a0802b80:	3c02a080 	lui	v0,0xa080
a0802b84:	24434a10 	addiu	v1,v0,18960
a0802b88:	3c02a081 	lui	v0,0xa081
a0802b8c:	24422ad0 	addiu	v0,v0,10960
a0802b90:	ac4300cc 	sw	v1,204(v0)
a0802b94:	3c02a080 	lui	v0,0xa080
a0802b98:	24434ea8 	addiu	v1,v0,20136
a0802b9c:	3c02a081 	lui	v0,0xa081
a0802ba0:	24422ad0 	addiu	v0,v0,10960
a0802ba4:	ac4300c4 	sw	v1,196(v0)
a0802ba8:	3c02a080 	lui	v0,0xa080
a0802bac:	24435848 	addiu	v1,v0,22600
a0802bb0:	3c02a081 	lui	v0,0xa081
a0802bb4:	24422ad0 	addiu	v0,v0,10960
a0802bb8:	ac4300d0 	sw	v1,208(v0)
a0802bbc:	3c02a080 	lui	v0,0xa080
a0802bc0:	24435e24 	addiu	v1,v0,24100
a0802bc4:	3c02a081 	lui	v0,0xa081
a0802bc8:	24422ad0 	addiu	v0,v0,10960
a0802bcc:	ac4300d4 	sw	v1,212(v0)
a0802bd0:	3c02a080 	lui	v0,0xa080
a0802bd4:	24436344 	addiu	v1,v0,25412
a0802bd8:	3c02a081 	lui	v0,0xa081
a0802bdc:	24422ad0 	addiu	v0,v0,10960
a0802be0:	ac4300d8 	sw	v1,216(v0)
a0802be4:	3c02a080 	lui	v0,0xa080
a0802be8:	2443669c 	addiu	v1,v0,26268
a0802bec:	3c02a081 	lui	v0,0xa081
a0802bf0:	24422ad0 	addiu	v0,v0,10960
a0802bf4:	ac4300dc 	sw	v1,220(v0)
a0802bf8:	3c02a080 	lui	v0,0xa080
a0802bfc:	24436a34 	addiu	v1,v0,27188
a0802c00:	3c02a081 	lui	v0,0xa081
a0802c04:	24422ad0 	addiu	v0,v0,10960
a0802c08:	ac4300e0 	sw	v1,224(v0)
a0802c0c:	3c02a080 	lui	v0,0xa080
a0802c10:	24436f34 	addiu	v1,v0,28468
a0802c14:	3c02a081 	lui	v0,0xa081
a0802c18:	24422ad0 	addiu	v0,v0,10960
a0802c1c:	ac4300e4 	sw	v1,228(v0)
a0802c20:	3c02a080 	lui	v0,0xa080
a0802c24:	244375cc 	addiu	v1,v0,30156
a0802c28:	3c02a081 	lui	v0,0xa081
a0802c2c:	24422ad0 	addiu	v0,v0,10960
a0802c30:	ac4300e8 	sw	v1,232(v0)
a0802c34:	3c02a080 	lui	v0,0xa080
a0802c38:	244376e8 	addiu	v1,v0,30440
a0802c3c:	3c02a081 	lui	v0,0xa081
a0802c40:	24422ad0 	addiu	v0,v0,10960
a0802c44:	ac4300ec 	sw	v1,236(v0)
a0802c48:	03c0e821 	move	sp,s8
a0802c4c:	8fbe000c 	lw	s8,12(sp)
a0802c50:	27bd0010 	addiu	sp,sp,16
a0802c54:	03e00008 	jr	ra
a0802c58:	00000000 	nop
a0802c5c:	00000000 	nop

a0802c60 <irq_timer>:
a0802c60:	27bdffe8 	addiu	sp,sp,-24
a0802c64:	afbf0014 	sw	ra,20(sp)
a0802c68:	afbe0010 	sw	s8,16(sp)
a0802c6c:	03a0f021 	move	s8,sp
a0802c70:	0c200462 	jal	a0801188 <screen_reflush>
a0802c74:	00000000 	nop
a0802c78:	3c02a081 	lui	v0,0xa081
a0802c7c:	8c431420 	lw	v1,5152(v0)
a0802c80:	3c020003 	lui	v0,0x3
a0802c84:	34420d40 	ori	v0,v0,0xd40
a0802c88:	00621821 	addu	v1,v1,v0
a0802c8c:	3c02a081 	lui	v0,0xa081
a0802c90:	ac431420 	sw	v1,5152(v0)
a0802c94:	3c02a081 	lui	v0,0xa081
a0802c98:	8c430100 	lw	v1,256(v0)
a0802c9c:	3c02a081 	lui	v0,0xa081
a0802ca0:	8c4200a4 	lw	v0,164(v0)
a0802ca4:	ac62017c 	sw	v0,380(v1)
a0802ca8:	3c02a081 	lui	v0,0xa081
a0802cac:	8c430100 	lw	v1,256(v0)
a0802cb0:	3c02a081 	lui	v0,0xa081
a0802cb4:	8c4200a8 	lw	v0,168(v0)
a0802cb8:	ac620180 	sw	v0,384(v1)
a0802cbc:	0c20010a 	jal	a0800428 <do_scheduler>
a0802cc0:	00000000 	nop
a0802cc4:	3c02a081 	lui	v0,0xa081
a0802cc8:	8c420100 	lw	v0,256(v0)
a0802ccc:	8c43017c 	lw	v1,380(v0)
a0802cd0:	3c02a081 	lui	v0,0xa081
a0802cd4:	ac4300a4 	sw	v1,164(v0)
a0802cd8:	3c02a081 	lui	v0,0xa081
a0802cdc:	8c420100 	lw	v0,256(v0)
a0802ce0:	8c430180 	lw	v1,384(v0)
a0802ce4:	3c02a081 	lui	v0,0xa081
a0802ce8:	ac4300a8 	sw	v1,168(v0)
a0802cec:	03c0e821 	move	sp,s8
a0802cf0:	8fbf0014 	lw	ra,20(sp)
a0802cf4:	8fbe0010 	lw	s8,16(sp)
a0802cf8:	27bd0018 	addiu	sp,sp,24
a0802cfc:	03e00008 	jr	ra
a0802d00:	00000000 	nop

a0802d04 <other_exception_handler>:
a0802d04:	27bdfff8 	addiu	sp,sp,-8
a0802d08:	afbe0004 	sw	s8,4(sp)
a0802d0c:	03a0f021 	move	s8,sp
a0802d10:	3c02a081 	lui	v0,0xa081
a0802d14:	8c431420 	lw	v1,5152(v0)
a0802d18:	3c020003 	lui	v0,0x3
a0802d1c:	34420d40 	ori	v0,v0,0xd40
a0802d20:	00621821 	addu	v1,v1,v0
a0802d24:	3c02a081 	lui	v0,0xa081
a0802d28:	ac431420 	sw	v1,5152(v0)
a0802d2c:	03c0e821 	move	sp,s8
a0802d30:	8fbe0004 	lw	s8,4(sp)
a0802d34:	27bd0008 	addiu	sp,sp,8
a0802d38:	03e00008 	jr	ra
a0802d3c:	00000000 	nop

a0802d40 <interrupt_helper>:
a0802d40:	27bdffe0 	addiu	sp,sp,-32
a0802d44:	afbf001c 	sw	ra,28(sp)
a0802d48:	afbe0018 	sw	s8,24(sp)
a0802d4c:	03a0f021 	move	s8,sp
a0802d50:	afc40020 	sw	a0,32(s8)
a0802d54:	afc50024 	sw	a1,36(s8)
a0802d58:	8fc30020 	lw	v1,32(s8)
a0802d5c:	8fc20024 	lw	v0,36(s8)
a0802d60:	00621024 	and	v0,v1,v0
a0802d64:	3042ff00 	andi	v0,v0,0xff00
a0802d68:	afc20010 	sw	v0,16(s8)
a0802d6c:	8fc20010 	lw	v0,16(s8)
a0802d70:	30428000 	andi	v0,v0,0x8000
a0802d74:	10400005 	beqz	v0,a0802d8c <interrupt_helper+0x4c>
a0802d78:	00000000 	nop
a0802d7c:	0c200b18 	jal	a0802c60 <irq_timer>
a0802d80:	00000000 	nop
a0802d84:	08200b74 	j	a0802dd0 <interrupt_helper+0x90>
a0802d88:	00000000 	nop
a0802d8c:	8fc30010 	lw	v1,16(s8)
a0802d90:	24020800 	li	v0,2048
a0802d94:	1462000c 	bne	v1,v0,a0802dc8 <interrupt_helper+0x88>
a0802d98:	00000000 	nop
a0802d9c:	3c02bfd0 	lui	v0,0xbfd0
a0802da0:	34441058 	ori	a0,v0,0x1058
a0802da4:	0c2004c8 	jal	a0801320 <reg_read_32>
a0802da8:	00000000 	nop
a0802dac:	30420008 	andi	v0,v0,0x8
a0802db0:	10400005 	beqz	v0,a0802dc8 <interrupt_helper+0x88>
a0802db4:	00000000 	nop
a0802db8:	0c200739 	jal	a0801ce4 <irq_mac>
a0802dbc:	00000000 	nop
a0802dc0:	08200b74 	j	a0802dd0 <interrupt_helper+0x90>
a0802dc4:	00000000 	nop
a0802dc8:	0c200b41 	jal	a0802d04 <other_exception_handler>
a0802dcc:	00000000 	nop
a0802dd0:	03c0e821 	move	sp,s8
a0802dd4:	8fbf001c 	lw	ra,28(sp)
a0802dd8:	8fbe0018 	lw	s8,24(sp)
a0802ddc:	27bd0020 	addiu	sp,sp,32
a0802de0:	03e00008 	jr	ra
a0802de4:	00000000 	nop
	...

a0802df0 <do_barrier_init>:
a0802df0:	27bdffe8 	addiu	sp,sp,-24
a0802df4:	afbf0014 	sw	ra,20(sp)
a0802df8:	afbe0010 	sw	s8,16(sp)
a0802dfc:	03a0f021 	move	s8,sp
a0802e00:	afc40018 	sw	a0,24(s8)
a0802e04:	afc5001c 	sw	a1,28(s8)
a0802e08:	8fc3001c 	lw	v1,28(s8)
a0802e0c:	8fc20018 	lw	v0,24(s8)
a0802e10:	ac430000 	sw	v1,0(v0)
a0802e14:	8fc20018 	lw	v0,24(s8)
a0802e18:	ac400004 	sw	zero,4(v0)
a0802e1c:	8fc20018 	lw	v0,24(s8)
a0802e20:	24420008 	addiu	v0,v0,8
a0802e24:	00402021 	move	a0,v0
a0802e28:	0c202140 	jal	a0808500 <queue_init>
a0802e2c:	00000000 	nop
a0802e30:	03c0e821 	move	sp,s8
a0802e34:	8fbf0014 	lw	ra,20(sp)
a0802e38:	8fbe0010 	lw	s8,16(sp)
a0802e3c:	27bd0018 	addiu	sp,sp,24
a0802e40:	03e00008 	jr	ra
a0802e44:	00000000 	nop

a0802e48 <do_barrier_wait>:
a0802e48:	27bdffe8 	addiu	sp,sp,-24
a0802e4c:	afbf0014 	sw	ra,20(sp)
a0802e50:	afbe0010 	sw	s8,16(sp)
a0802e54:	03a0f021 	move	s8,sp
a0802e58:	afc40018 	sw	a0,24(s8)
a0802e5c:	8fc20018 	lw	v0,24(s8)
a0802e60:	8c420004 	lw	v0,4(v0)
a0802e64:	24430001 	addiu	v1,v0,1
a0802e68:	8fc20018 	lw	v0,24(s8)
a0802e6c:	ac430004 	sw	v1,4(v0)
a0802e70:	8fc20018 	lw	v0,24(s8)
a0802e74:	8c430004 	lw	v1,4(v0)
a0802e78:	8fc20018 	lw	v0,24(s8)
a0802e7c:	8c420000 	lw	v0,0(v0)
a0802e80:	0062102b 	sltu	v0,v1,v0
a0802e84:	10400008 	beqz	v0,a0802ea8 <do_barrier_wait+0x60>
a0802e88:	00000000 	nop
a0802e8c:	8fc20018 	lw	v0,24(s8)
a0802e90:	24420008 	addiu	v0,v0,8
a0802e94:	00402021 	move	a0,v0
a0802e98:	0c201e94 	jal	a0807a50 <do_block>
a0802e9c:	00000000 	nop
a0802ea0:	08200bb1 	j	a0802ec4 <do_barrier_wait+0x7c>
a0802ea4:	00000000 	nop
a0802ea8:	8fc20018 	lw	v0,24(s8)
a0802eac:	24420008 	addiu	v0,v0,8
a0802eb0:	00402021 	move	a0,v0
a0802eb4:	0c201ed9 	jal	a0807b64 <do_unblock_all>
a0802eb8:	00000000 	nop
a0802ebc:	0c20010a 	jal	a0800428 <do_scheduler>
a0802ec0:	00000000 	nop
a0802ec4:	03c0e821 	move	sp,s8
a0802ec8:	8fbf0014 	lw	ra,20(sp)
a0802ecc:	8fbe0010 	lw	s8,16(sp)
a0802ed0:	27bd0018 	addiu	sp,sp,24
a0802ed4:	03e00008 	jr	ra
a0802ed8:	00000000 	nop
a0802edc:	00000000 	nop

a0802ee0 <do_condition_init>:
a0802ee0:	27bdffe8 	addiu	sp,sp,-24
a0802ee4:	afbf0014 	sw	ra,20(sp)
a0802ee8:	afbe0010 	sw	s8,16(sp)
a0802eec:	03a0f021 	move	s8,sp
a0802ef0:	afc40018 	sw	a0,24(s8)
a0802ef4:	8fc20018 	lw	v0,24(s8)
a0802ef8:	00402021 	move	a0,v0
a0802efc:	0c202140 	jal	a0808500 <queue_init>
a0802f00:	00000000 	nop
a0802f04:	03c0e821 	move	sp,s8
a0802f08:	8fbf0014 	lw	ra,20(sp)
a0802f0c:	8fbe0010 	lw	s8,16(sp)
a0802f10:	27bd0018 	addiu	sp,sp,24
a0802f14:	03e00008 	jr	ra
a0802f18:	00000000 	nop

a0802f1c <do_condition_wait>:
a0802f1c:	27bdffe0 	addiu	sp,sp,-32
a0802f20:	afbf001c 	sw	ra,28(sp)
a0802f24:	afbe0018 	sw	s8,24(sp)
a0802f28:	03a0f021 	move	s8,sp
a0802f2c:	afc40020 	sw	a0,32(s8)
a0802f30:	afc50024 	sw	a1,36(s8)
a0802f34:	afc00010 	sw	zero,16(s8)
a0802f38:	8fc40020 	lw	a0,32(s8)
a0802f3c:	0c200cdf 	jal	a080337c <do_mutex_lock_release>
a0802f40:	00000000 	nop
a0802f44:	8fc20024 	lw	v0,36(s8)
a0802f48:	00402021 	move	a0,v0
a0802f4c:	0c201e94 	jal	a0807a50 <do_block>
a0802f50:	00000000 	nop
a0802f54:	8fc40020 	lw	a0,32(s8)
a0802f58:	0c200cb8 	jal	a08032e0 <do_mutex_lock_acquire>
a0802f5c:	00000000 	nop
a0802f60:	03c0e821 	move	sp,s8
a0802f64:	8fbf001c 	lw	ra,28(sp)
a0802f68:	8fbe0018 	lw	s8,24(sp)
a0802f6c:	27bd0020 	addiu	sp,sp,32
a0802f70:	03e00008 	jr	ra
a0802f74:	00000000 	nop

a0802f78 <do_condition_signal>:
a0802f78:	27bdffe8 	addiu	sp,sp,-24
a0802f7c:	afbf0014 	sw	ra,20(sp)
a0802f80:	afbe0010 	sw	s8,16(sp)
a0802f84:	03a0f021 	move	s8,sp
a0802f88:	afc40018 	sw	a0,24(s8)
a0802f8c:	8fc20018 	lw	v0,24(s8)
a0802f90:	00402021 	move	a0,v0
a0802f94:	0c201eae 	jal	a0807ab8 <do_unblock_one>
a0802f98:	00000000 	nop
a0802f9c:	03c0e821 	move	sp,s8
a0802fa0:	8fbf0014 	lw	ra,20(sp)
a0802fa4:	8fbe0010 	lw	s8,16(sp)
a0802fa8:	27bd0018 	addiu	sp,sp,24
a0802fac:	03e00008 	jr	ra
a0802fb0:	00000000 	nop

a0802fb4 <do_condition_broadcast>:
a0802fb4:	27bdffe8 	addiu	sp,sp,-24
a0802fb8:	afbf0014 	sw	ra,20(sp)
a0802fbc:	afbe0010 	sw	s8,16(sp)
a0802fc0:	03a0f021 	move	s8,sp
a0802fc4:	afc40018 	sw	a0,24(s8)
a0802fc8:	8fc20018 	lw	v0,24(s8)
a0802fcc:	00402021 	move	a0,v0
a0802fd0:	0c201ed9 	jal	a0807b64 <do_unblock_all>
a0802fd4:	00000000 	nop
a0802fd8:	03c0e821 	move	sp,s8
a0802fdc:	8fbf0014 	lw	ra,20(sp)
a0802fe0:	8fbe0010 	lw	s8,16(sp)
a0802fe4:	27bd0018 	addiu	sp,sp,24
a0802fe8:	03e00008 	jr	ra
a0802fec:	00000000 	nop

a0802ff0 <do_semaphore_init>:
a0802ff0:	27bdffe8 	addiu	sp,sp,-24
a0802ff4:	afbf0014 	sw	ra,20(sp)
a0802ff8:	afbe0010 	sw	s8,16(sp)
a0802ffc:	03a0f021 	move	s8,sp
a0803000:	afc40018 	sw	a0,24(s8)
a0803004:	afc5001c 	sw	a1,28(s8)
a0803008:	8fc30018 	lw	v1,24(s8)
a080300c:	8fc2001c 	lw	v0,28(s8)
a0803010:	ac620000 	sw	v0,0(v1)
a0803014:	8fc20018 	lw	v0,24(s8)
a0803018:	24420004 	addiu	v0,v0,4
a080301c:	00402021 	move	a0,v0
a0803020:	0c202140 	jal	a0808500 <queue_init>
a0803024:	00000000 	nop
a0803028:	03c0e821 	move	sp,s8
a080302c:	8fbf0014 	lw	ra,20(sp)
a0803030:	8fbe0010 	lw	s8,16(sp)
a0803034:	27bd0018 	addiu	sp,sp,24
a0803038:	03e00008 	jr	ra
a080303c:	00000000 	nop

a0803040 <do_semaphore_up>:
a0803040:	27bdffe0 	addiu	sp,sp,-32
a0803044:	afbf001c 	sw	ra,28(sp)
a0803048:	afbe0018 	sw	s8,24(sp)
a080304c:	03a0f021 	move	s8,sp
a0803050:	afc40020 	sw	a0,32(s8)
a0803054:	8fc20020 	lw	v0,32(s8)
a0803058:	24420004 	addiu	v0,v0,4
a080305c:	00402021 	move	a0,v0
a0803060:	0c20214f 	jal	a080853c <queue_is_empty>
a0803064:	00000000 	nop
a0803068:	14400015 	bnez	v0,a08030c0 <do_semaphore_up+0x80>
a080306c:	00000000 	nop
a0803070:	8fc20020 	lw	v0,32(s8)
a0803074:	24420004 	addiu	v0,v0,4
a0803078:	00402021 	move	a0,v0
a080307c:	0c2021b6 	jal	a08086d8 <queue_dequeue>
a0803080:	00000000 	nop
a0803084:	afc20010 	sw	v0,16(s8)
a0803088:	8fc30010 	lw	v1,16(s8)
a080308c:	24020002 	li	v0,2
a0803090:	ac620198 	sw	v0,408(v1)
a0803094:	8fc30010 	lw	v1,16(s8)
a0803098:	3c02a081 	lui	v0,0xa081
a080309c:	244200d4 	addiu	v0,v0,212
a08030a0:	ac620190 	sw	v0,400(v1)
a08030a4:	3c02a081 	lui	v0,0xa081
a08030a8:	244400d4 	addiu	a0,v0,212
a08030ac:	8fc50010 	lw	a1,16(s8)
a08030b0:	0c20218c 	jal	a0808630 <priority_queue_push>
a08030b4:	00000000 	nop
a08030b8:	08200c35 	j	a08030d4 <do_semaphore_up+0x94>
a08030bc:	00000000 	nop
a08030c0:	8fc20020 	lw	v0,32(s8)
a08030c4:	8c420000 	lw	v0,0(v0)
a08030c8:	24430001 	addiu	v1,v0,1
a08030cc:	8fc20020 	lw	v0,32(s8)
a08030d0:	ac430000 	sw	v1,0(v0)
a08030d4:	03c0e821 	move	sp,s8
a08030d8:	8fbf001c 	lw	ra,28(sp)
a08030dc:	8fbe0018 	lw	s8,24(sp)
a08030e0:	27bd0020 	addiu	sp,sp,32
a08030e4:	03e00008 	jr	ra
a08030e8:	00000000 	nop

a08030ec <do_semaphore_down>:
a08030ec:	27bdffe8 	addiu	sp,sp,-24
a08030f0:	afbf0014 	sw	ra,20(sp)
a08030f4:	afbe0010 	sw	s8,16(sp)
a08030f8:	03a0f021 	move	s8,sp
a08030fc:	afc40018 	sw	a0,24(s8)
a0803100:	8fc20018 	lw	v0,24(s8)
a0803104:	8c420000 	lw	v0,0(v0)
a0803108:	18400008 	blez	v0,a080312c <do_semaphore_down+0x40>
a080310c:	00000000 	nop
a0803110:	8fc20018 	lw	v0,24(s8)
a0803114:	8c420000 	lw	v0,0(v0)
a0803118:	2443ffff 	addiu	v1,v0,-1
a080311c:	8fc20018 	lw	v0,24(s8)
a0803120:	ac430000 	sw	v1,0(v0)
a0803124:	08200c50 	j	a0803140 <do_semaphore_down+0x54>
a0803128:	00000000 	nop
a080312c:	8fc20018 	lw	v0,24(s8)
a0803130:	24420004 	addiu	v0,v0,4
a0803134:	00402021 	move	a0,v0
a0803138:	0c201e94 	jal	a0807a50 <do_block>
a080313c:	00000000 	nop
a0803140:	03c0e821 	move	sp,s8
a0803144:	8fbf0014 	lw	ra,20(sp)
a0803148:	8fbe0010 	lw	s8,16(sp)
a080314c:	27bd0018 	addiu	sp,sp,24
a0803150:	03e00008 	jr	ra
a0803154:	00000000 	nop
	...

a0803160 <disable_interrupt>:
a0803160:	27bdffe0 	addiu	sp,sp,-32
a0803164:	afbf001c 	sw	ra,28(sp)
a0803168:	afbe0018 	sw	s8,24(sp)
a080316c:	03a0f021 	move	s8,sp
a0803170:	0c2000d3 	jal	a080034c <get_cp0_status>
a0803174:	00000000 	nop
a0803178:	afc20010 	sw	v0,16(s8)
a080317c:	8fc30010 	lw	v1,16(s8)
a0803180:	2402fffe 	li	v0,-2
a0803184:	00621024 	and	v0,v1,v0
a0803188:	afc20010 	sw	v0,16(s8)
a080318c:	8fc40010 	lw	a0,16(s8)
a0803190:	0c2000d6 	jal	a0800358 <set_cp0_status>
a0803194:	00000000 	nop
a0803198:	03c0e821 	move	sp,s8
a080319c:	8fbf001c 	lw	ra,28(sp)
a08031a0:	8fbe0018 	lw	s8,24(sp)
a08031a4:	27bd0020 	addiu	sp,sp,32
a08031a8:	03e00008 	jr	ra
a08031ac:	00000000 	nop

a08031b0 <enable_interrupt>:
a08031b0:	27bdffe0 	addiu	sp,sp,-32
a08031b4:	afbf001c 	sw	ra,28(sp)
a08031b8:	afbe0018 	sw	s8,24(sp)
a08031bc:	03a0f021 	move	s8,sp
a08031c0:	0c2000d3 	jal	a080034c <get_cp0_status>
a08031c4:	00000000 	nop
a08031c8:	afc20010 	sw	v0,16(s8)
a08031cc:	8fc20010 	lw	v0,16(s8)
a08031d0:	34420001 	ori	v0,v0,0x1
a08031d4:	afc20010 	sw	v0,16(s8)
a08031d8:	8fc40010 	lw	a0,16(s8)
a08031dc:	0c2000d6 	jal	a0800358 <set_cp0_status>
a08031e0:	00000000 	nop
a08031e4:	03c0e821 	move	sp,s8
a08031e8:	8fbf001c 	lw	ra,28(sp)
a08031ec:	8fbe0018 	lw	s8,24(sp)
a08031f0:	27bd0020 	addiu	sp,sp,32
a08031f4:	03e00008 	jr	ra
a08031f8:	00000000 	nop

a08031fc <spin_lock_init>:
a08031fc:	27bdfff8 	addiu	sp,sp,-8
a0803200:	afbe0004 	sw	s8,4(sp)
a0803204:	03a0f021 	move	s8,sp
a0803208:	afc40008 	sw	a0,8(s8)
a080320c:	8fc20008 	lw	v0,8(s8)
a0803210:	ac400000 	sw	zero,0(v0)
a0803214:	03c0e821 	move	sp,s8
a0803218:	8fbe0004 	lw	s8,4(sp)
a080321c:	27bd0008 	addiu	sp,sp,8
a0803220:	03e00008 	jr	ra
a0803224:	00000000 	nop

a0803228 <spin_lock_acquire>:
a0803228:	27bdfff8 	addiu	sp,sp,-8
a080322c:	afbe0004 	sw	s8,4(sp)
a0803230:	03a0f021 	move	s8,sp
a0803234:	afc40008 	sw	a0,8(s8)
a0803238:	8fc20008 	lw	v0,8(s8)
a080323c:	8c430000 	lw	v1,0(v0)
a0803240:	24020001 	li	v0,1
a0803244:	1062fffc 	beq	v1,v0,a0803238 <spin_lock_acquire+0x10>
a0803248:	00000000 	nop
a080324c:	8fc30008 	lw	v1,8(s8)
a0803250:	24020001 	li	v0,1
a0803254:	ac620000 	sw	v0,0(v1)
a0803258:	03c0e821 	move	sp,s8
a080325c:	8fbe0004 	lw	s8,4(sp)
a0803260:	27bd0008 	addiu	sp,sp,8
a0803264:	03e00008 	jr	ra
a0803268:	00000000 	nop

a080326c <spin_lock_release>:
a080326c:	27bdfff8 	addiu	sp,sp,-8
a0803270:	afbe0004 	sw	s8,4(sp)
a0803274:	03a0f021 	move	s8,sp
a0803278:	afc40008 	sw	a0,8(s8)
a080327c:	8fc20008 	lw	v0,8(s8)
a0803280:	ac400000 	sw	zero,0(v0)
a0803284:	03c0e821 	move	sp,s8
a0803288:	8fbe0004 	lw	s8,4(sp)
a080328c:	27bd0008 	addiu	sp,sp,8
a0803290:	03e00008 	jr	ra
a0803294:	00000000 	nop

a0803298 <do_mutex_lock_init>:
a0803298:	27bdffe8 	addiu	sp,sp,-24
a080329c:	afbf0014 	sw	ra,20(sp)
a08032a0:	afbe0010 	sw	s8,16(sp)
a08032a4:	03a0f021 	move	s8,sp
a08032a8:	afc40018 	sw	a0,24(s8)
a08032ac:	8fc20018 	lw	v0,24(s8)
a08032b0:	ac400000 	sw	zero,0(v0)
a08032b4:	8fc20018 	lw	v0,24(s8)
a08032b8:	24420004 	addiu	v0,v0,4
a08032bc:	00402021 	move	a0,v0
a08032c0:	0c202140 	jal	a0808500 <queue_init>
a08032c4:	00000000 	nop
a08032c8:	03c0e821 	move	sp,s8
a08032cc:	8fbf0014 	lw	ra,20(sp)
a08032d0:	8fbe0010 	lw	s8,16(sp)
a08032d4:	27bd0018 	addiu	sp,sp,24
a08032d8:	03e00008 	jr	ra
a08032dc:	00000000 	nop

a08032e0 <do_mutex_lock_acquire>:
a08032e0:	27bdffe8 	addiu	sp,sp,-24
a08032e4:	afbf0014 	sw	ra,20(sp)
a08032e8:	afbe0010 	sw	s8,16(sp)
a08032ec:	03a0f021 	move	s8,sp
a08032f0:	afc40018 	sw	a0,24(s8)
a08032f4:	08200cc4 	j	a0803310 <do_mutex_lock_acquire+0x30>
a08032f8:	00000000 	nop
a08032fc:	8fc20018 	lw	v0,24(s8)
a0803300:	24420004 	addiu	v0,v0,4
a0803304:	00402021 	move	a0,v0
a0803308:	0c201e94 	jal	a0807a50 <do_block>
a080330c:	00000000 	nop
a0803310:	8fc20018 	lw	v0,24(s8)
a0803314:	8c430000 	lw	v1,0(v0)
a0803318:	24020001 	li	v0,1
a080331c:	1062fff7 	beq	v1,v0,a08032fc <do_mutex_lock_acquire+0x1c>
a0803320:	00000000 	nop
a0803324:	8fc30018 	lw	v1,24(s8)
a0803328:	24020001 	li	v0,1
a080332c:	ac620000 	sw	v0,0(v1)
a0803330:	3c02a081 	lui	v0,0xa081
a0803334:	8c440100 	lw	a0,256(v0)
a0803338:	3c02a081 	lui	v0,0xa081
a080333c:	8c420100 	lw	v0,256(v0)
a0803340:	8c430150 	lw	v1,336(v0)
a0803344:	24630001 	addiu	v1,v1,1
a0803348:	ac430150 	sw	v1,336(v0)
a080334c:	8c420150 	lw	v0,336(v0)
a0803350:	24420050 	addiu	v0,v0,80
a0803354:	00021080 	sll	v0,v0,0x2
a0803358:	00821821 	addu	v1,a0,v0
a080335c:	8fc20018 	lw	v0,24(s8)
a0803360:	ac620000 	sw	v0,0(v1)
a0803364:	03c0e821 	move	sp,s8
a0803368:	8fbf0014 	lw	ra,20(sp)
a080336c:	8fbe0010 	lw	s8,16(sp)
a0803370:	27bd0018 	addiu	sp,sp,24
a0803374:	03e00008 	jr	ra
a0803378:	00000000 	nop

a080337c <do_mutex_lock_release>:
a080337c:	27bdffe0 	addiu	sp,sp,-32
a0803380:	afbf001c 	sw	ra,28(sp)
a0803384:	afbe0018 	sw	s8,24(sp)
a0803388:	03a0f021 	move	s8,sp
a080338c:	afc40020 	sw	a0,32(s8)
a0803390:	afc00014 	sw	zero,20(s8)
a0803394:	08200d19 	j	a0803464 <do_mutex_lock_release+0xe8>
a0803398:	00000000 	nop
a080339c:	3c02a081 	lui	v0,0xa081
a08033a0:	8c430100 	lw	v1,256(v0)
a08033a4:	8fc20014 	lw	v0,20(s8)
a08033a8:	24420050 	addiu	v0,v0,80
a08033ac:	00021080 	sll	v0,v0,0x2
a08033b0:	00621021 	addu	v0,v1,v0
a08033b4:	8c430000 	lw	v1,0(v0)
a08033b8:	8fc20020 	lw	v0,32(s8)
a08033bc:	14620026 	bne	v1,v0,a0803458 <do_mutex_lock_release+0xdc>
a08033c0:	00000000 	nop
a08033c4:	8fc20014 	lw	v0,20(s8)
a08033c8:	24420001 	addiu	v0,v0,1
a08033cc:	afc20010 	sw	v0,16(s8)
a08033d0:	08200d08 	j	a0803420 <do_mutex_lock_release+0xa4>
a08033d4:	00000000 	nop
a08033d8:	3c02a081 	lui	v0,0xa081
a08033dc:	8c450100 	lw	a1,256(v0)
a08033e0:	8fc20010 	lw	v0,16(s8)
a08033e4:	2444ffff 	addiu	a0,v0,-1
a08033e8:	3c02a081 	lui	v0,0xa081
a08033ec:	8c430100 	lw	v1,256(v0)
a08033f0:	8fc20010 	lw	v0,16(s8)
a08033f4:	24420050 	addiu	v0,v0,80
a08033f8:	00021080 	sll	v0,v0,0x2
a08033fc:	00621021 	addu	v0,v1,v0
a0803400:	8c430000 	lw	v1,0(v0)
a0803404:	24820050 	addiu	v0,a0,80
a0803408:	00021080 	sll	v0,v0,0x2
a080340c:	00a21021 	addu	v0,a1,v0
a0803410:	ac430000 	sw	v1,0(v0)
a0803414:	8fc20010 	lw	v0,16(s8)
a0803418:	24420001 	addiu	v0,v0,1
a080341c:	afc20010 	sw	v0,16(s8)
a0803420:	3c02a081 	lui	v0,0xa081
a0803424:	8c420100 	lw	v0,256(v0)
a0803428:	8c430150 	lw	v1,336(v0)
a080342c:	8fc20010 	lw	v0,16(s8)
a0803430:	0062102a 	slt	v0,v1,v0
a0803434:	1040ffe8 	beqz	v0,a08033d8 <do_mutex_lock_release+0x5c>
a0803438:	00000000 	nop
a080343c:	3c02a081 	lui	v0,0xa081
a0803440:	8c430100 	lw	v1,256(v0)
a0803444:	8c620150 	lw	v0,336(v1)
a0803448:	2442ffff 	addiu	v0,v0,-1
a080344c:	ac620150 	sw	v0,336(v1)
a0803450:	08200d20 	j	a0803480 <do_mutex_lock_release+0x104>
a0803454:	00000000 	nop
a0803458:	8fc20014 	lw	v0,20(s8)
a080345c:	24420001 	addiu	v0,v0,1
a0803460:	afc20014 	sw	v0,20(s8)
a0803464:	3c02a081 	lui	v0,0xa081
a0803468:	8c420100 	lw	v0,256(v0)
a080346c:	8c430150 	lw	v1,336(v0)
a0803470:	8fc20014 	lw	v0,20(s8)
a0803474:	0062102a 	slt	v0,v1,v0
a0803478:	1040ffc8 	beqz	v0,a080339c <do_mutex_lock_release+0x20>
a080347c:	00000000 	nop
a0803480:	8fc20020 	lw	v0,32(s8)
a0803484:	24420004 	addiu	v0,v0,4
a0803488:	00402021 	move	a0,v0
a080348c:	0c20214f 	jal	a080853c <queue_is_empty>
a0803490:	00000000 	nop
a0803494:	14400006 	bnez	v0,a08034b0 <do_mutex_lock_release+0x134>
a0803498:	00000000 	nop
a080349c:	8fc20020 	lw	v0,32(s8)
a08034a0:	24420004 	addiu	v0,v0,4
a08034a4:	00402021 	move	a0,v0
a08034a8:	0c201eae 	jal	a0807ab8 <do_unblock_one>
a08034ac:	00000000 	nop
a08034b0:	8fc20020 	lw	v0,32(s8)
a08034b4:	ac400000 	sw	zero,0(v0)
a08034b8:	03c0e821 	move	sp,s8
a08034bc:	8fbf001c 	lw	ra,28(sp)
a08034c0:	8fbe0018 	lw	s8,24(sp)
a08034c4:	27bd0020 	addiu	sp,sp,32
a08034c8:	03e00008 	jr	ra
a08034cc:	00000000 	nop

a08034d0 <alloc_inode>:
a08034d0:	27bdffd8 	addiu	sp,sp,-40
a08034d4:	afbf0024 	sw	ra,36(sp)
a08034d8:	afbe0020 	sw	s8,32(sp)
a08034dc:	03a0f021 	move	s8,sp
a08034e0:	3c02a081 	lui	v0,0xa081
a08034e4:	8c421408 	lw	v0,5128(v0)
a08034e8:	afc20018 	sw	v0,24(s8)
a08034ec:	3c02a081 	lui	v0,0xa081
a08034f0:	8c4300fc 	lw	v1,252(v0)
a08034f4:	8fc20018 	lw	v0,24(s8)
a08034f8:	000210c2 	srl	v0,v0,0x3
a08034fc:	00622821 	addu	a1,v1,v0
a0803500:	3c02a081 	lui	v0,0xa081
a0803504:	8c4300fc 	lw	v1,252(v0)
a0803508:	8fc20018 	lw	v0,24(s8)
a080350c:	000210c2 	srl	v0,v0,0x3
a0803510:	00621021 	addu	v0,v1,v0
a0803514:	90420000 	lbu	v0,0(v0)
a0803518:	00022600 	sll	a0,v0,0x18
a080351c:	00042603 	sra	a0,a0,0x18
a0803520:	8fc20018 	lw	v0,24(s8)
a0803524:	30430007 	andi	v1,v0,0x7
a0803528:	24020001 	li	v0,1
a080352c:	00621004 	sllv	v0,v0,v1
a0803530:	00021600 	sll	v0,v0,0x18
a0803534:	00021603 	sra	v0,v0,0x18
a0803538:	00821024 	and	v0,a0,v0
a080353c:	00021600 	sll	v0,v0,0x18
a0803540:	00021603 	sra	v0,v0,0x18
a0803544:	304200ff 	andi	v0,v0,0xff
a0803548:	a0a20000 	sb	v0,0(a1)
a080354c:	3c02a081 	lui	v0,0xa081
a0803550:	8c4200fc 	lw	v0,252(v0)
a0803554:	00402021 	move	a0,v0
a0803558:	3c021000 	lui	v0,0x1000
a080355c:	34454200 	ori	a1,v0,0x4200
a0803560:	24060200 	li	a2,512
a0803564:	0c203716 	jal	a080dc58 <.pic.sdwrite>
a0803568:	00000000 	nop
a080356c:	8fc20018 	lw	v0,24(s8)
a0803570:	00021182 	srl	v0,v0,0x6
a0803574:	00401821 	move	v1,v0
a0803578:	24020001 	li	v0,1
a080357c:	00621004 	sllv	v0,v0,v1
a0803580:	00021fc3 	sra	v1,v0,0x1f
a0803584:	00402021 	move	a0,v0
a0803588:	00602821 	move	a1,v1
a080358c:	3c02a081 	lui	v0,0xa081
a0803590:	8c461400 	lw	a2,5120(v0)
a0803594:	8c471404 	lw	a3,5124(v0)
a0803598:	00861024 	and	v0,a0,a2
a080359c:	00a71824 	and	v1,a1,a3
a08035a0:	00402021 	move	a0,v0
a08035a4:	00832025 	or	a0,a0,v1
a08035a8:	14800025 	bnez	a0,a0803640 <alloc_inode+0x170>
a08035ac:	00000000 	nop
a08035b0:	8fc20018 	lw	v0,24(s8)
a08035b4:	00021182 	srl	v0,v0,0x6
a08035b8:	00021b00 	sll	v1,v0,0xc
a08035bc:	3c02a0f0 	lui	v0,0xa0f0
a08035c0:	34424600 	ori	v0,v0,0x4600
a08035c4:	00621021 	addu	v0,v1,v0
a08035c8:	afc20014 	sw	v0,20(s8)
a08035cc:	8fc20018 	lw	v0,24(s8)
a08035d0:	00021182 	srl	v0,v0,0x6
a08035d4:	00021b00 	sll	v1,v0,0xc
a08035d8:	3c021000 	lui	v0,0x1000
a08035dc:	34424400 	ori	v0,v0,0x4400
a08035e0:	00621021 	addu	v0,v1,v0
a08035e4:	afc20010 	sw	v0,16(s8)
a08035e8:	8fc20014 	lw	v0,20(s8)
a08035ec:	00402021 	move	a0,v0
a08035f0:	8fc50010 	lw	a1,16(s8)
a08035f4:	24061000 	li	a2,4096
a08035f8:	0c203792 	jal	a080de48 <.pic.sdread>
a08035fc:	00000000 	nop
a0803600:	8fc20018 	lw	v0,24(s8)
a0803604:	00021182 	srl	v0,v0,0x6
a0803608:	00401821 	move	v1,v0
a080360c:	24020001 	li	v0,1
a0803610:	00621004 	sllv	v0,v0,v1
a0803614:	00021fc3 	sra	v1,v0,0x1f
a0803618:	00402021 	move	a0,v0
a080361c:	00602821 	move	a1,v1
a0803620:	3c02a081 	lui	v0,0xa081
a0803624:	8c461400 	lw	a2,5120(v0)
a0803628:	8c471404 	lw	a3,5124(v0)
a080362c:	00861024 	and	v0,a0,a2
a0803630:	00a71824 	and	v1,a1,a3
a0803634:	3c04a081 	lui	a0,0xa081
a0803638:	ac821400 	sw	v0,5120(a0)
a080363c:	ac831404 	sw	v1,5124(a0)
a0803640:	3c02a081 	lui	v0,0xa081
a0803644:	8c421408 	lw	v0,5128(v0)
a0803648:	24430001 	addiu	v1,v0,1
a080364c:	3c02a081 	lui	v0,0xa081
a0803650:	ac431408 	sw	v1,5128(v0)
a0803654:	8fc20018 	lw	v0,24(s8)
a0803658:	03c0e821 	move	sp,s8
a080365c:	8fbf0024 	lw	ra,36(sp)
a0803660:	8fbe0020 	lw	s8,32(sp)
a0803664:	27bd0028 	addiu	sp,sp,40
a0803668:	03e00008 	jr	ra
a080366c:	00000000 	nop

a0803670 <free_inode>:
a0803670:	27bdffe0 	addiu	sp,sp,-32
a0803674:	afbf001c 	sw	ra,28(sp)
a0803678:	afbe0018 	sw	s8,24(sp)
a080367c:	03a0f021 	move	s8,sp
a0803680:	afc40020 	sw	a0,32(s8)
a0803684:	afc00010 	sw	zero,16(s8)
a0803688:	08200e09 	j	a0803824 <free_inode+0x1b4>
a080368c:	00000000 	nop
a0803690:	3c02a081 	lui	v0,0xa081
a0803694:	8c4300f8 	lw	v1,248(v0)
a0803698:	8fc20020 	lw	v0,32(s8)
a080369c:	00021180 	sll	v0,v0,0x6
a08036a0:	00621821 	addu	v1,v1,v0
a08036a4:	8fc20010 	lw	v0,16(s8)
a08036a8:	24420006 	addiu	v0,v0,6
a08036ac:	00021080 	sll	v0,v0,0x2
a08036b0:	00621021 	addu	v0,v1,v0
a08036b4:	8c420000 	lw	v0,0(v0)
a08036b8:	10400057 	beqz	v0,a0803818 <free_inode+0x1a8>
a08036bc:	00000000 	nop
a08036c0:	3c02a081 	lui	v0,0xa081
a08036c4:	8c4400e0 	lw	a0,224(v0)
a08036c8:	3c02a081 	lui	v0,0xa081
a08036cc:	8c4300f8 	lw	v1,248(v0)
a08036d0:	8fc20020 	lw	v0,32(s8)
a08036d4:	00021180 	sll	v0,v0,0x6
a08036d8:	00621821 	addu	v1,v1,v0
a08036dc:	8fc20010 	lw	v0,16(s8)
a08036e0:	24420006 	addiu	v0,v0,6
a08036e4:	00021080 	sll	v0,v0,0x2
a08036e8:	00621021 	addu	v0,v1,v0
a08036ec:	8c430000 	lw	v1,0(v0)
a08036f0:	3c02efff 	lui	v0,0xefff
a08036f4:	3442bc00 	ori	v0,v0,0xbc00
a08036f8:	00621021 	addu	v0,v1,v0
a08036fc:	00021bc2 	srl	v1,v0,0xf
a0803700:	00832021 	addu	a0,a0,v1
a0803704:	3c02a081 	lui	v0,0xa081
a0803708:	8c4200e0 	lw	v0,224(v0)
a080370c:	00431021 	addu	v0,v0,v1
a0803710:	90420000 	lbu	v0,0(v0)
a0803714:	00022e00 	sll	a1,v0,0x18
a0803718:	00052e03 	sra	a1,a1,0x18
a080371c:	3c02a081 	lui	v0,0xa081
a0803720:	8c4300f8 	lw	v1,248(v0)
a0803724:	8fc20020 	lw	v0,32(s8)
a0803728:	00021180 	sll	v0,v0,0x6
a080372c:	00621821 	addu	v1,v1,v0
a0803730:	8fc20010 	lw	v0,16(s8)
a0803734:	24420006 	addiu	v0,v0,6
a0803738:	00021080 	sll	v0,v0,0x2
a080373c:	00621021 	addu	v0,v1,v0
a0803740:	8c430000 	lw	v1,0(v0)
a0803744:	3c02efff 	lui	v0,0xefff
a0803748:	3442bc00 	ori	v0,v0,0xbc00
a080374c:	00621021 	addu	v0,v1,v0
a0803750:	00021302 	srl	v0,v0,0xc
a0803754:	30430007 	andi	v1,v0,0x7
a0803758:	24020001 	li	v0,1
a080375c:	00621004 	sllv	v0,v0,v1
a0803760:	00021600 	sll	v0,v0,0x18
a0803764:	00021603 	sra	v0,v0,0x18
a0803768:	00021027 	nor	v0,zero,v0
a080376c:	00021600 	sll	v0,v0,0x18
a0803770:	00021603 	sra	v0,v0,0x18
a0803774:	00a21024 	and	v0,a1,v0
a0803778:	00021600 	sll	v0,v0,0x18
a080377c:	00021603 	sra	v0,v0,0x18
a0803780:	304200ff 	andi	v0,v0,0xff
a0803784:	a0820000 	sb	v0,0(a0)
a0803788:	3c02a081 	lui	v0,0xa081
a080378c:	8c4300f8 	lw	v1,248(v0)
a0803790:	8fc20020 	lw	v0,32(s8)
a0803794:	00021180 	sll	v0,v0,0x6
a0803798:	00621821 	addu	v1,v1,v0
a080379c:	8fc20010 	lw	v0,16(s8)
a08037a0:	24420006 	addiu	v0,v0,6
a08037a4:	00021080 	sll	v0,v0,0x2
a08037a8:	00621021 	addu	v0,v1,v0
a08037ac:	8c430000 	lw	v1,0(v0)
a08037b0:	3c02efff 	lui	v0,0xefff
a08037b4:	3442bc00 	ori	v0,v0,0xbc00
a08037b8:	00621021 	addu	v0,v1,v0
a08037bc:	00021bc2 	srl	v1,v0,0xf
a08037c0:	3c02a0f0 	lui	v0,0xa0f0
a08037c4:	34424400 	ori	v0,v0,0x4400
a08037c8:	00621821 	addu	v1,v1,v0
a08037cc:	2402fe00 	li	v0,-512
a08037d0:	00621024 	and	v0,v1,v0
a08037d4:	00402021 	move	a0,v0
a08037d8:	3c02a081 	lui	v0,0xa081
a08037dc:	8c4300f8 	lw	v1,248(v0)
a08037e0:	8fc20020 	lw	v0,32(s8)
a08037e4:	00021180 	sll	v0,v0,0x6
a08037e8:	00621821 	addu	v1,v1,v0
a08037ec:	8fc20010 	lw	v0,16(s8)
a08037f0:	24420006 	addiu	v0,v0,6
a08037f4:	00021080 	sll	v0,v0,0x2
a08037f8:	00621021 	addu	v0,v1,v0
a08037fc:	8c430000 	lw	v1,0(v0)
a0803800:	2402fe00 	li	v0,-512
a0803804:	00621024 	and	v0,v1,v0
a0803808:	00402821 	move	a1,v0
a080380c:	24060200 	li	a2,512
a0803810:	0c203716 	jal	a080dc58 <.pic.sdwrite>
a0803814:	00000000 	nop
a0803818:	8fc20010 	lw	v0,16(s8)
a080381c:	24420001 	addiu	v0,v0,1
a0803820:	afc20010 	sw	v0,16(s8)
a0803824:	8fc20010 	lw	v0,16(s8)
a0803828:	28420008 	slti	v0,v0,8
a080382c:	1440ff98 	bnez	v0,a0803690 <free_inode+0x20>
a0803830:	00000000 	nop
a0803834:	3c02a081 	lui	v0,0xa081
a0803838:	8c4300f8 	lw	v1,248(v0)
a080383c:	8fc20020 	lw	v0,32(s8)
a0803840:	00021180 	sll	v0,v0,0x6
a0803844:	00621021 	addu	v0,v1,v0
a0803848:	8c420038 	lw	v0,56(v0)
a080384c:	10400047 	beqz	v0,a080396c <free_inode+0x2fc>
a0803850:	00000000 	nop
a0803854:	3c02a081 	lui	v0,0xa081
a0803858:	8c4400e0 	lw	a0,224(v0)
a080385c:	3c02a081 	lui	v0,0xa081
a0803860:	8c4300f8 	lw	v1,248(v0)
a0803864:	8fc20020 	lw	v0,32(s8)
a0803868:	00021180 	sll	v0,v0,0x6
a080386c:	00621021 	addu	v0,v1,v0
a0803870:	8c430038 	lw	v1,56(v0)
a0803874:	3c02efff 	lui	v0,0xefff
a0803878:	3442bc00 	ori	v0,v0,0xbc00
a080387c:	00621021 	addu	v0,v1,v0
a0803880:	00021bc2 	srl	v1,v0,0xf
a0803884:	00832021 	addu	a0,a0,v1
a0803888:	3c02a081 	lui	v0,0xa081
a080388c:	8c4200e0 	lw	v0,224(v0)
a0803890:	00431021 	addu	v0,v0,v1
a0803894:	90420000 	lbu	v0,0(v0)
a0803898:	00022e00 	sll	a1,v0,0x18
a080389c:	00052e03 	sra	a1,a1,0x18
a08038a0:	3c02a081 	lui	v0,0xa081
a08038a4:	8c4300f8 	lw	v1,248(v0)
a08038a8:	8fc20020 	lw	v0,32(s8)
a08038ac:	00021180 	sll	v0,v0,0x6
a08038b0:	00621021 	addu	v0,v1,v0
a08038b4:	8c430038 	lw	v1,56(v0)
a08038b8:	3c02efff 	lui	v0,0xefff
a08038bc:	3442bc00 	ori	v0,v0,0xbc00
a08038c0:	00621021 	addu	v0,v1,v0
a08038c4:	00021302 	srl	v0,v0,0xc
a08038c8:	30430007 	andi	v1,v0,0x7
a08038cc:	24020001 	li	v0,1
a08038d0:	00621004 	sllv	v0,v0,v1
a08038d4:	00021600 	sll	v0,v0,0x18
a08038d8:	00021603 	sra	v0,v0,0x18
a08038dc:	00021027 	nor	v0,zero,v0
a08038e0:	00021600 	sll	v0,v0,0x18
a08038e4:	00021603 	sra	v0,v0,0x18
a08038e8:	00a21024 	and	v0,a1,v0
a08038ec:	00021600 	sll	v0,v0,0x18
a08038f0:	00021603 	sra	v0,v0,0x18
a08038f4:	304200ff 	andi	v0,v0,0xff
a08038f8:	a0820000 	sb	v0,0(a0)
a08038fc:	3c02a081 	lui	v0,0xa081
a0803900:	8c4300f8 	lw	v1,248(v0)
a0803904:	8fc20020 	lw	v0,32(s8)
a0803908:	00021180 	sll	v0,v0,0x6
a080390c:	00621021 	addu	v0,v1,v0
a0803910:	8c430038 	lw	v1,56(v0)
a0803914:	3c02efff 	lui	v0,0xefff
a0803918:	3442bc00 	ori	v0,v0,0xbc00
a080391c:	00621021 	addu	v0,v1,v0
a0803920:	00021bc2 	srl	v1,v0,0xf
a0803924:	3c02a0f0 	lui	v0,0xa0f0
a0803928:	34424400 	ori	v0,v0,0x4400
a080392c:	00621821 	addu	v1,v1,v0
a0803930:	2402fe00 	li	v0,-512
a0803934:	00621024 	and	v0,v1,v0
a0803938:	00402021 	move	a0,v0
a080393c:	3c02a081 	lui	v0,0xa081
a0803940:	8c4300f8 	lw	v1,248(v0)
a0803944:	8fc20020 	lw	v0,32(s8)
a0803948:	00021180 	sll	v0,v0,0x6
a080394c:	00621021 	addu	v0,v1,v0
a0803950:	8c430038 	lw	v1,56(v0)
a0803954:	2402fe00 	li	v0,-512
a0803958:	00621024 	and	v0,v1,v0
a080395c:	00402821 	move	a1,v0
a0803960:	24060200 	li	a2,512
a0803964:	0c203716 	jal	a080dc58 <.pic.sdwrite>
a0803968:	00000000 	nop
a080396c:	3c02a081 	lui	v0,0xa081
a0803970:	8c4300f8 	lw	v1,248(v0)
a0803974:	8fc20020 	lw	v0,32(s8)
a0803978:	00021180 	sll	v0,v0,0x6
a080397c:	00621021 	addu	v0,v1,v0
a0803980:	8c42003c 	lw	v0,60(v0)
a0803984:	10400047 	beqz	v0,a0803aa4 <free_inode+0x434>
a0803988:	00000000 	nop
a080398c:	3c02a081 	lui	v0,0xa081
a0803990:	8c4400e0 	lw	a0,224(v0)
a0803994:	3c02a081 	lui	v0,0xa081
a0803998:	8c4300f8 	lw	v1,248(v0)
a080399c:	8fc20020 	lw	v0,32(s8)
a08039a0:	00021180 	sll	v0,v0,0x6
a08039a4:	00621021 	addu	v0,v1,v0
a08039a8:	8c43003c 	lw	v1,60(v0)
a08039ac:	3c02efff 	lui	v0,0xefff
a08039b0:	3442bc00 	ori	v0,v0,0xbc00
a08039b4:	00621021 	addu	v0,v1,v0
a08039b8:	00021bc2 	srl	v1,v0,0xf
a08039bc:	00832021 	addu	a0,a0,v1
a08039c0:	3c02a081 	lui	v0,0xa081
a08039c4:	8c4200e0 	lw	v0,224(v0)
a08039c8:	00431021 	addu	v0,v0,v1
a08039cc:	90420000 	lbu	v0,0(v0)
a08039d0:	00022e00 	sll	a1,v0,0x18
a08039d4:	00052e03 	sra	a1,a1,0x18
a08039d8:	3c02a081 	lui	v0,0xa081
a08039dc:	8c4300f8 	lw	v1,248(v0)
a08039e0:	8fc20020 	lw	v0,32(s8)
a08039e4:	00021180 	sll	v0,v0,0x6
a08039e8:	00621021 	addu	v0,v1,v0
a08039ec:	8c43003c 	lw	v1,60(v0)
a08039f0:	3c02efff 	lui	v0,0xefff
a08039f4:	3442bc00 	ori	v0,v0,0xbc00
a08039f8:	00621021 	addu	v0,v1,v0
a08039fc:	00021302 	srl	v0,v0,0xc
a0803a00:	30430007 	andi	v1,v0,0x7
a0803a04:	24020001 	li	v0,1
a0803a08:	00621004 	sllv	v0,v0,v1
a0803a0c:	00021600 	sll	v0,v0,0x18
a0803a10:	00021603 	sra	v0,v0,0x18
a0803a14:	00021027 	nor	v0,zero,v0
a0803a18:	00021600 	sll	v0,v0,0x18
a0803a1c:	00021603 	sra	v0,v0,0x18
a0803a20:	00a21024 	and	v0,a1,v0
a0803a24:	00021600 	sll	v0,v0,0x18
a0803a28:	00021603 	sra	v0,v0,0x18
a0803a2c:	304200ff 	andi	v0,v0,0xff
a0803a30:	a0820000 	sb	v0,0(a0)
a0803a34:	3c02a081 	lui	v0,0xa081
a0803a38:	8c4300f8 	lw	v1,248(v0)
a0803a3c:	8fc20020 	lw	v0,32(s8)
a0803a40:	00021180 	sll	v0,v0,0x6
a0803a44:	00621021 	addu	v0,v1,v0
a0803a48:	8c43003c 	lw	v1,60(v0)
a0803a4c:	3c02efff 	lui	v0,0xefff
a0803a50:	3442bc00 	ori	v0,v0,0xbc00
a0803a54:	00621021 	addu	v0,v1,v0
a0803a58:	00021bc2 	srl	v1,v0,0xf
a0803a5c:	3c02a0f0 	lui	v0,0xa0f0
a0803a60:	34424400 	ori	v0,v0,0x4400
a0803a64:	00621821 	addu	v1,v1,v0
a0803a68:	2402fe00 	li	v0,-512
a0803a6c:	00621024 	and	v0,v1,v0
a0803a70:	00402021 	move	a0,v0
a0803a74:	3c02a081 	lui	v0,0xa081
a0803a78:	8c4300f8 	lw	v1,248(v0)
a0803a7c:	8fc20020 	lw	v0,32(s8)
a0803a80:	00021180 	sll	v0,v0,0x6
a0803a84:	00621021 	addu	v0,v1,v0
a0803a88:	8c43003c 	lw	v1,60(v0)
a0803a8c:	2402fe00 	li	v0,-512
a0803a90:	00621024 	and	v0,v1,v0
a0803a94:	00402821 	move	a1,v0
a0803a98:	24060200 	li	a2,512
a0803a9c:	0c203716 	jal	a080dc58 <.pic.sdwrite>
a0803aa0:	00000000 	nop
a0803aa4:	3c02a081 	lui	v0,0xa081
a0803aa8:	8c4500fc 	lw	a1,252(v0)
a0803aac:	8fc30020 	lw	v1,32(s8)
a0803ab0:	000317c3 	sra	v0,v1,0x1f
a0803ab4:	00021742 	srl	v0,v0,0x1d
a0803ab8:	00431021 	addu	v0,v0,v1
a0803abc:	000210c3 	sra	v0,v0,0x3
a0803ac0:	00402021 	move	a0,v0
a0803ac4:	00801021 	move	v0,a0
a0803ac8:	00a22821 	addu	a1,a1,v0
a0803acc:	3c02a081 	lui	v0,0xa081
a0803ad0:	8c4300fc 	lw	v1,252(v0)
a0803ad4:	00801021 	move	v0,a0
a0803ad8:	00621021 	addu	v0,v1,v0
a0803adc:	90420000 	lbu	v0,0(v0)
a0803ae0:	00023600 	sll	a2,v0,0x18
a0803ae4:	00063603 	sra	a2,a2,0x18
a0803ae8:	8fc30020 	lw	v1,32(s8)
a0803aec:	000317c3 	sra	v0,v1,0x1f
a0803af0:	00022742 	srl	a0,v0,0x1d
a0803af4:	00641021 	addu	v0,v1,a0
a0803af8:	30420007 	andi	v0,v0,0x7
a0803afc:	00441023 	subu	v0,v0,a0
a0803b00:	00401821 	move	v1,v0
a0803b04:	24020001 	li	v0,1
a0803b08:	00621004 	sllv	v0,v0,v1
a0803b0c:	00021600 	sll	v0,v0,0x18
a0803b10:	00021603 	sra	v0,v0,0x18
a0803b14:	00021027 	nor	v0,zero,v0
a0803b18:	00021600 	sll	v0,v0,0x18
a0803b1c:	00021603 	sra	v0,v0,0x18
a0803b20:	00c21024 	and	v0,a2,v0
a0803b24:	00021600 	sll	v0,v0,0x18
a0803b28:	00021603 	sra	v0,v0,0x18
a0803b2c:	304200ff 	andi	v0,v0,0xff
a0803b30:	a0a20000 	sb	v0,0(a1)
a0803b34:	3c02a0f0 	lui	v0,0xa0f0
a0803b38:	34444400 	ori	a0,v0,0x4400
a0803b3c:	3c021000 	lui	v0,0x1000
a0803b40:	34454200 	ori	a1,v0,0x4200
a0803b44:	24060200 	li	a2,512
a0803b48:	0c203716 	jal	a080dc58 <.pic.sdwrite>
a0803b4c:	00000000 	nop
a0803b50:	03c0e821 	move	sp,s8
a0803b54:	8fbf001c 	lw	ra,28(sp)
a0803b58:	8fbe0018 	lw	s8,24(sp)
a0803b5c:	27bd0020 	addiu	sp,sp,32
a0803b60:	03e00008 	jr	ra
a0803b64:	00000000 	nop

a0803b68 <alloc_datablk>:
a0803b68:	27bdffe0 	addiu	sp,sp,-32
a0803b6c:	afbf001c 	sw	ra,28(sp)
a0803b70:	afbe0018 	sw	s8,24(sp)
a0803b74:	03a0f021 	move	s8,sp
a0803b78:	3c02a081 	lui	v0,0xa081
a0803b7c:	8c42f780 	lw	v0,-2176(v0)
a0803b80:	afc20010 	sw	v0,16(s8)
a0803b84:	24430001 	addiu	v1,v0,1
a0803b88:	3c02a081 	lui	v0,0xa081
a0803b8c:	ac43f780 	sw	v1,-2176(v0)
a0803b90:	3c02a081 	lui	v0,0xa081
a0803b94:	8c4300e0 	lw	v1,224(v0)
a0803b98:	8fc20010 	lw	v0,16(s8)
a0803b9c:	000210c2 	srl	v0,v0,0x3
a0803ba0:	00622821 	addu	a1,v1,v0
a0803ba4:	3c02a081 	lui	v0,0xa081
a0803ba8:	8c4300e0 	lw	v1,224(v0)
a0803bac:	8fc20010 	lw	v0,16(s8)
a0803bb0:	000210c2 	srl	v0,v0,0x3
a0803bb4:	00621021 	addu	v0,v1,v0
a0803bb8:	90420000 	lbu	v0,0(v0)
a0803bbc:	00022600 	sll	a0,v0,0x18
a0803bc0:	00042603 	sra	a0,a0,0x18
a0803bc4:	8fc20010 	lw	v0,16(s8)
a0803bc8:	30430007 	andi	v1,v0,0x7
a0803bcc:	24020001 	li	v0,1
a0803bd0:	00621004 	sllv	v0,v0,v1
a0803bd4:	00021600 	sll	v0,v0,0x18
a0803bd8:	00021603 	sra	v0,v0,0x18
a0803bdc:	00821024 	and	v0,a0,v0
a0803be0:	00021600 	sll	v0,v0,0x18
a0803be4:	00021603 	sra	v0,v0,0x18
a0803be8:	304200ff 	andi	v0,v0,0xff
a0803bec:	a0a20000 	sb	v0,0(a1)
a0803bf0:	3c02a081 	lui	v0,0xa081
a0803bf4:	8c4300e0 	lw	v1,224(v0)
a0803bf8:	8fc20010 	lw	v0,16(s8)
a0803bfc:	000210c2 	srl	v0,v0,0x3
a0803c00:	00621021 	addu	v0,v1,v0
a0803c04:	00401821 	move	v1,v0
a0803c08:	2402fe00 	li	v0,-512
a0803c0c:	00621024 	and	v0,v1,v0
a0803c10:	00402021 	move	a0,v0
a0803c14:	8fc20010 	lw	v0,16(s8)
a0803c18:	00021b02 	srl	v1,v0,0xc
a0803c1c:	3c020008 	lui	v0,0x8
a0803c20:	34420001 	ori	v0,v0,0x1
a0803c24:	00621021 	addu	v0,v1,v0
a0803c28:	00021240 	sll	v0,v0,0x9
a0803c2c:	00402821 	move	a1,v0
a0803c30:	24060200 	li	a2,512
a0803c34:	0c203716 	jal	a080dc58 <.pic.sdwrite>
a0803c38:	00000000 	nop
a0803c3c:	8fc30010 	lw	v1,16(s8)
a0803c40:	3c02000f 	lui	v0,0xf
a0803c44:	3442ffbf 	ori	v0,v0,0xffbf
a0803c48:	00621021 	addu	v0,v1,v0
a0803c4c:	00021b00 	sll	v1,v0,0xc
a0803c50:	3c021004 	lui	v0,0x1004
a0803c54:	34424400 	ori	v0,v0,0x4400
a0803c58:	00621021 	addu	v0,v1,v0
a0803c5c:	03c0e821 	move	sp,s8
a0803c60:	8fbf001c 	lw	ra,28(sp)
a0803c64:	8fbe0018 	lw	s8,24(sp)
a0803c68:	27bd0020 	addiu	sp,sp,32
a0803c6c:	03e00008 	jr	ra
a0803c70:	00000000 	nop

a0803c74 <init_entry>:
a0803c74:	27bdffe0 	addiu	sp,sp,-32
a0803c78:	afbf001c 	sw	ra,28(sp)
a0803c7c:	afbe0018 	sw	s8,24(sp)
a0803c80:	03a0f021 	move	s8,sp
a0803c84:	afc40020 	sw	a0,32(s8)
a0803c88:	afc50024 	sw	a1,36(s8)
a0803c8c:	afc60028 	sw	a2,40(s8)
a0803c90:	3c02a081 	lui	v0,0xa081
a0803c94:	244431f0 	addiu	a0,v0,12784
a0803c98:	24051000 	li	a1,4096
a0803c9c:	0c202833 	jal	a080a0cc <bzero>
a0803ca0:	00000000 	nop
a0803ca4:	3c02a081 	lui	v0,0xa081
a0803ca8:	244231f0 	addiu	v0,v0,12784
a0803cac:	afc20010 	sw	v0,16(s8)
a0803cb0:	8fc20010 	lw	v0,16(s8)
a0803cb4:	00402021 	move	a0,v0
a0803cb8:	3c02a081 	lui	v0,0xa081
a0803cbc:	2445e870 	addiu	a1,v0,-6032
a0803cc0:	0c20287a 	jal	a080a1e8 <strcpy>
a0803cc4:	00000000 	nop
a0803cc8:	8fc30010 	lw	v1,16(s8)
a0803ccc:	24020003 	li	v0,3
a0803cd0:	ac620018 	sw	v0,24(v1)
a0803cd4:	8fc30010 	lw	v1,16(s8)
a0803cd8:	8fc20024 	lw	v0,36(s8)
a0803cdc:	ac62001c 	sw	v0,28(v1)
a0803ce0:	8fc20010 	lw	v0,16(s8)
a0803ce4:	24420020 	addiu	v0,v0,32
a0803ce8:	00402021 	move	a0,v0
a0803cec:	3c02a081 	lui	v0,0xa081
a0803cf0:	2445e874 	addiu	a1,v0,-6028
a0803cf4:	0c20287a 	jal	a080a1e8 <strcpy>
a0803cf8:	00000000 	nop
a0803cfc:	8fc20010 	lw	v0,16(s8)
a0803d00:	24430020 	addiu	v1,v0,32
a0803d04:	24020004 	li	v0,4
a0803d08:	ac620018 	sw	v0,24(v1)
a0803d0c:	8fc20010 	lw	v0,16(s8)
a0803d10:	24430020 	addiu	v1,v0,32
a0803d14:	8fc20028 	lw	v0,40(s8)
a0803d18:	ac62001c 	sw	v0,28(v1)
a0803d1c:	3c02a081 	lui	v0,0xa081
a0803d20:	244231f0 	addiu	v0,v0,12784
a0803d24:	00402021 	move	a0,v0
a0803d28:	8fc50020 	lw	a1,32(s8)
a0803d2c:	24061000 	li	a2,4096
a0803d30:	0c203716 	jal	a080dc58 <.pic.sdwrite>
a0803d34:	00000000 	nop
a0803d38:	03c0e821 	move	sp,s8
a0803d3c:	8fbf001c 	lw	ra,28(sp)
a0803d40:	8fbe0018 	lw	s8,24(sp)
a0803d44:	27bd0020 	addiu	sp,sp,32
a0803d48:	03e00008 	jr	ra
a0803d4c:	00000000 	nop

a0803d50 <alloc_fd>:
a0803d50:	27bdffe8 	addiu	sp,sp,-24
a0803d54:	afbe0014 	sw	s8,20(sp)
a0803d58:	03a0f021 	move	s8,sp
a0803d5c:	afc00000 	sw	zero,0(s8)
a0803d60:	08200f6b 	j	a0803dac <alloc_fd+0x5c>
a0803d64:	00000000 	nop
a0803d68:	8fc20000 	lw	v0,0(s8)
a0803d6c:	3c04a081 	lui	a0,0xa081
a0803d70:	00021080 	sll	v0,v0,0x2
a0803d74:	00021880 	sll	v1,v0,0x2
a0803d78:	00431021 	addu	v0,v0,v1
a0803d7c:	24832c70 	addiu	v1,a0,11376
a0803d80:	00431021 	addu	v0,v0,v1
a0803d84:	8c420000 	lw	v0,0(v0)
a0803d88:	14400005 	bnez	v0,a0803da0 <alloc_fd+0x50>
a0803d8c:	00000000 	nop
a0803d90:	8fc20000 	lw	v0,0(s8)
a0803d94:	afc20008 	sw	v0,8(s8)
a0803d98:	08200f71 	j	a0803dc4 <alloc_fd+0x74>
a0803d9c:	00000000 	nop
a0803da0:	8fc20000 	lw	v0,0(s8)
a0803da4:	24420001 	addiu	v0,v0,1
a0803da8:	afc20000 	sw	v0,0(s8)
a0803dac:	8fc20000 	lw	v0,0(s8)
a0803db0:	28420040 	slti	v0,v0,64
a0803db4:	1440ffec 	bnez	v0,a0803d68 <alloc_fd+0x18>
a0803db8:	00000000 	nop
a0803dbc:	2402ffff 	li	v0,-1
a0803dc0:	afc20008 	sw	v0,8(s8)
a0803dc4:	8fc20008 	lw	v0,8(s8)
a0803dc8:	03c0e821 	move	sp,s8
a0803dcc:	8fbe0014 	lw	s8,20(sp)
a0803dd0:	27bd0018 	addiu	sp,sp,24
a0803dd4:	03e00008 	jr	ra
a0803dd8:	00000000 	nop

a0803ddc <init_fs>:
a0803ddc:	27bdffd8 	addiu	sp,sp,-40
a0803de0:	afbf0024 	sw	ra,36(sp)
a0803de4:	afbe0020 	sw	s8,32(sp)
a0803de8:	03a0f021 	move	s8,sp
a0803dec:	3c03a081 	lui	v1,0xa081
a0803df0:	3c02a0f0 	lui	v0,0xa0f0
a0803df4:	34420200 	ori	v0,v0,0x200
a0803df8:	ac6200dc 	sw	v0,220(v1)
a0803dfc:	3c03a081 	lui	v1,0xa081
a0803e00:	3c02a0f0 	lui	v0,0xa0f0
a0803e04:	34420200 	ori	v0,v0,0x200
a0803e08:	ac6200c4 	sw	v0,196(v1)
a0803e0c:	3c02a0f0 	lui	v0,0xa0f0
a0803e10:	34440200 	ori	a0,v0,0x200
a0803e14:	3c051000 	lui	a1,0x1000
a0803e18:	24060200 	li	a2,512
a0803e1c:	0c203792 	jal	a080de48 <.pic.sdread>
a0803e20:	00000000 	nop
a0803e24:	3c03a081 	lui	v1,0xa081
a0803e28:	2402ffff 	li	v0,-1
a0803e2c:	ac6200d0 	sw	v0,208(v1)
a0803e30:	afc00010 	sw	zero,16(s8)
a0803e34:	08200f9a 	j	a0803e68 <init_fs+0x8c>
a0803e38:	00000000 	nop
a0803e3c:	8fc20010 	lw	v0,16(s8)
a0803e40:	3c04a081 	lui	a0,0xa081
a0803e44:	000218c0 	sll	v1,v0,0x3
a0803e48:	00031080 	sll	v0,v1,0x2
a0803e4c:	00431023 	subu	v0,v0,v1
a0803e50:	24832a70 	addiu	v1,a0,10864
a0803e54:	00431021 	addu	v0,v0,v1
a0803e58:	a0400000 	sb	zero,0(v0)
a0803e5c:	8fc20010 	lw	v0,16(s8)
a0803e60:	24420001 	addiu	v0,v0,1
a0803e64:	afc20010 	sw	v0,16(s8)
a0803e68:	8fc20010 	lw	v0,16(s8)
a0803e6c:	28420004 	slti	v0,v0,4
a0803e70:	1440fff2 	bnez	v0,a0803e3c <init_fs+0x60>
a0803e74:	00000000 	nop
a0803e78:	3c02a081 	lui	v0,0xa081
a0803e7c:	8c4200c4 	lw	v0,196(v0)
a0803e80:	8c430000 	lw	v1,0(v0)
a0803e84:	3c024649 	lui	v0,0x4649
a0803e88:	34424c45 	ori	v0,v0,0x4c45
a0803e8c:	10620004 	beq	v1,v0,a0803ea0 <init_fs+0xc4>
a0803e90:	00000000 	nop
a0803e94:	afc00018 	sw	zero,24(s8)
a0803e98:	08200fdb 	j	a0803f6c <init_fs+0x190>
a0803e9c:	00000000 	nop
a0803ea0:	3c03a081 	lui	v1,0xa081
a0803ea4:	3c02a0f0 	lui	v0,0xa0f0
a0803ea8:	34420400 	ori	v0,v0,0x400
a0803eac:	ac6200e0 	sw	v0,224(v1)
a0803eb0:	3c02a0f0 	lui	v0,0xa0f0
a0803eb4:	34440400 	ori	a0,v0,0x400
a0803eb8:	3c021000 	lui	v0,0x1000
a0803ebc:	34450200 	ori	a1,v0,0x200
a0803ec0:	24064000 	li	a2,16384
a0803ec4:	0c203792 	jal	a080de48 <.pic.sdread>
a0803ec8:	00000000 	nop
a0803ecc:	3c03a081 	lui	v1,0xa081
a0803ed0:	3c02a0f0 	lui	v0,0xa0f0
a0803ed4:	34424400 	ori	v0,v0,0x4400
a0803ed8:	ac6200fc 	sw	v0,252(v1)
a0803edc:	3c02a0f0 	lui	v0,0xa0f0
a0803ee0:	34444400 	ori	a0,v0,0x4400
a0803ee4:	3c021000 	lui	v0,0x1000
a0803ee8:	34454200 	ori	a1,v0,0x4200
a0803eec:	24060200 	li	a2,512
a0803ef0:	0c203792 	jal	a080de48 <.pic.sdread>
a0803ef4:	00000000 	nop
a0803ef8:	3c03a081 	lui	v1,0xa081
a0803efc:	3c02a0f0 	lui	v0,0xa0f0
a0803f00:	34424600 	ori	v0,v0,0x4600
a0803f04:	ac6200c0 	sw	v0,192(v1)
a0803f08:	3c02a081 	lui	v0,0xa081
a0803f0c:	8c4200c0 	lw	v0,192(v0)
a0803f10:	00401821 	move	v1,v0
a0803f14:	3c02a081 	lui	v0,0xa081
a0803f18:	ac4300f8 	sw	v1,248(v0)
a0803f1c:	3c02a0f0 	lui	v0,0xa0f0
a0803f20:	34444600 	ori	a0,v0,0x4600
a0803f24:	3c021000 	lui	v0,0x1000
a0803f28:	34454400 	ori	a1,v0,0x4400
a0803f2c:	24062000 	li	a2,8192
a0803f30:	0c203792 	jal	a080de48 <.pic.sdread>
a0803f34:	00000000 	nop
a0803f38:	3c02a081 	lui	v0,0xa081
a0803f3c:	8c4300f8 	lw	v1,248(v0)
a0803f40:	3c02a081 	lui	v0,0xa081
a0803f44:	ac4300f4 	sw	v1,244(v0)
a0803f48:	3c02a081 	lui	v0,0xa081
a0803f4c:	ac4000bc 	sw	zero,188(v0)
a0803f50:	3c02a081 	lui	v0,0xa081
a0803f54:	24442c70 	addiu	a0,v0,11376
a0803f58:	24050500 	li	a1,1280
a0803f5c:	0c202833 	jal	a080a0cc <bzero>
a0803f60:	00000000 	nop
a0803f64:	24020001 	li	v0,1
a0803f68:	afc20018 	sw	v0,24(s8)
a0803f6c:	8fc20018 	lw	v0,24(s8)
a0803f70:	03c0e821 	move	sp,s8
a0803f74:	8fbf0024 	lw	ra,36(sp)
a0803f78:	8fbe0020 	lw	s8,32(sp)
a0803f7c:	27bd0028 	addiu	sp,sp,40
a0803f80:	03e00008 	jr	ra
a0803f84:	00000000 	nop

a0803f88 <do_mkfs>:
a0803f88:	27bdffd0 	addiu	sp,sp,-48
a0803f8c:	afbf002c 	sw	ra,44(sp)
a0803f90:	afbe0028 	sw	s8,40(sp)
a0803f94:	afb00024 	sw	s0,36(sp)
a0803f98:	03a0f021 	move	s8,sp
a0803f9c:	3c02a081 	lui	v0,0xa081
a0803fa0:	8c4200c4 	lw	v0,196(v0)
a0803fa4:	8c430000 	lw	v1,0(v0)
a0803fa8:	3c024649 	lui	v0,0x4649
a0803fac:	34424c45 	ori	v0,v0,0x4c45
a0803fb0:	14620004 	bne	v1,v0,a0803fc4 <do_mkfs+0x3c>
a0803fb4:	00000000 	nop
a0803fb8:	afc00018 	sw	zero,24(s8)
a0803fbc:	0820112b 	j	a08044ac <do_mkfs+0x524>
a0803fc0:	00000000 	nop
a0803fc4:	3c02a081 	lui	v0,0xa081
a0803fc8:	2444e878 	addiu	a0,v0,-6024
a0803fcc:	0c202b4d 	jal	a080ad34 <my_printk>
a0803fd0:	00000000 	nop
a0803fd4:	3c02a081 	lui	v0,0xa081
a0803fd8:	2444e8a8 	addiu	a0,v0,-5976
a0803fdc:	0c202b4d 	jal	a080ad34 <my_printk>
a0803fe0:	00000000 	nop
a0803fe4:	0c200462 	jal	a0801188 <screen_reflush>
a0803fe8:	00000000 	nop
a0803fec:	3c03a081 	lui	v1,0xa081
a0803ff0:	3c02a0f0 	lui	v0,0xa0f0
a0803ff4:	34420200 	ori	v0,v0,0x200
a0803ff8:	ac6200dc 	sw	v0,220(v1)
a0803ffc:	3c02a081 	lui	v0,0xa081
a0804000:	8c4200dc 	lw	v0,220(v0)
a0804004:	00402021 	move	a0,v0
a0804008:	24050200 	li	a1,512
a080400c:	0c202833 	jal	a080a0cc <bzero>
a0804010:	00000000 	nop
a0804014:	3c02a081 	lui	v0,0xa081
a0804018:	8c4300dc 	lw	v1,220(v0)
a080401c:	3c024649 	lui	v0,0x4649
a0804020:	34424c45 	ori	v0,v0,0x4c45
a0804024:	ac620000 	sw	v0,0(v1)
a0804028:	3c02a081 	lui	v0,0xa081
a080402c:	8c4200dc 	lw	v0,220(v0)
a0804030:	24430004 	addiu	v1,v0,4
a0804034:	3c022000 	lui	v0,0x2000
a0804038:	ac620000 	sw	v0,0(v1)
a080403c:	3c02a081 	lui	v0,0xa081
a0804040:	8c4200dc 	lw	v0,220(v0)
a0804044:	24430008 	addiu	v1,v0,8
a0804048:	3c020008 	lui	v0,0x8
a080404c:	ac620000 	sw	v0,0(v1)
a0804050:	3c02a081 	lui	v0,0xa081
a0804054:	8c4200dc 	lw	v0,220(v0)
a0804058:	2443000c 	addiu	v1,v0,12
a080405c:	3c02a0f0 	lui	v0,0xa0f0
a0804060:	34420400 	ori	v0,v0,0x400
a0804064:	ac620000 	sw	v0,0(v1)
a0804068:	3c02a081 	lui	v0,0xa081
a080406c:	8c4200dc 	lw	v0,220(v0)
a0804070:	24430010 	addiu	v1,v0,16
a0804074:	24020001 	li	v0,1
a0804078:	ac620000 	sw	v0,0(v1)
a080407c:	3c02a081 	lui	v0,0xa081
a0804080:	8c4200dc 	lw	v0,220(v0)
a0804084:	24430014 	addiu	v1,v0,20
a0804088:	3c020002 	lui	v0,0x2
a080408c:	ac620000 	sw	v0,0(v1)
a0804090:	3c02a081 	lui	v0,0xa081
a0804094:	8c4200dc 	lw	v0,220(v0)
a0804098:	24430018 	addiu	v1,v0,24
a080409c:	3c02a0f0 	lui	v0,0xa0f0
a08040a0:	34424400 	ori	v0,v0,0x4400
a08040a4:	ac620000 	sw	v0,0(v1)
a08040a8:	3c02a081 	lui	v0,0xa081
a08040ac:	8c4200dc 	lw	v0,220(v0)
a08040b0:	2443001c 	addiu	v1,v0,28
a08040b4:	24020021 	li	v0,33
a08040b8:	ac620000 	sw	v0,0(v1)
a08040bc:	3c02a081 	lui	v0,0xa081
a08040c0:	8c4200dc 	lw	v0,220(v0)
a08040c4:	24430020 	addiu	v1,v0,32
a08040c8:	24021000 	li	v0,4096
a08040cc:	ac620000 	sw	v0,0(v1)
a08040d0:	3c02a081 	lui	v0,0xa081
a08040d4:	8c4200dc 	lw	v0,220(v0)
a08040d8:	24430024 	addiu	v1,v0,36
a08040dc:	3c02a0f0 	lui	v0,0xa0f0
a08040e0:	34424600 	ori	v0,v0,0x4600
a08040e4:	ac620000 	sw	v0,0(v1)
a08040e8:	3c02a081 	lui	v0,0xa081
a08040ec:	8c4200dc 	lw	v0,220(v0)
a08040f0:	24430028 	addiu	v1,v0,40
a08040f4:	24020022 	li	v0,34
a08040f8:	ac620000 	sw	v0,0(v1)
a08040fc:	3c02a081 	lui	v0,0xa081
a0804100:	8c4200dc 	lw	v0,220(v0)
a0804104:	2443002c 	addiu	v1,v0,44
a0804108:	24021000 	li	v0,4096
a080410c:	ac620000 	sw	v0,0(v1)
a0804110:	3c02a081 	lui	v0,0xa081
a0804114:	8c4200dc 	lw	v0,220(v0)
a0804118:	24430030 	addiu	v1,v0,48
a080411c:	3c02a0f4 	lui	v0,0xa0f4
a0804120:	34424600 	ori	v0,v0,0x4600
a0804124:	ac620000 	sw	v0,0(v1)
a0804128:	3c02a081 	lui	v0,0xa081
a080412c:	8c4200dc 	lw	v0,220(v0)
a0804130:	24430034 	addiu	v1,v0,52
a0804134:	24020222 	li	v0,546
a0804138:	ac620000 	sw	v0,0(v1)
a080413c:	3c02a081 	lui	v0,0xa081
a0804140:	8c4200dc 	lw	v0,220(v0)
a0804144:	24430038 	addiu	v1,v0,56
a0804148:	3c020001 	lui	v0,0x1
a080414c:	3442ffc0 	ori	v0,v0,0xffc0
a0804150:	ac620000 	sw	v0,0(v1)
a0804154:	3c02a081 	lui	v0,0xa081
a0804158:	8c4200dc 	lw	v0,220(v0)
a080415c:	00401821 	move	v1,v0
a0804160:	3c02a081 	lui	v0,0xa081
a0804164:	ac4300c4 	sw	v1,196(v0)
a0804168:	3c02a081 	lui	v0,0xa081
a080416c:	8c4200dc 	lw	v0,220(v0)
a0804170:	00402021 	move	a0,v0
a0804174:	3c051000 	lui	a1,0x1000
a0804178:	24060200 	li	a2,512
a080417c:	0c203716 	jal	a080dc58 <.pic.sdwrite>
a0804180:	00000000 	nop
a0804184:	3c02a081 	lui	v0,0xa081
a0804188:	2444e8d8 	addiu	a0,v0,-5928
a080418c:	0c202b4d 	jal	a080ad34 <my_printk>
a0804190:	00000000 	nop
a0804194:	0c200462 	jal	a0801188 <screen_reflush>
a0804198:	00000000 	nop
a080419c:	3c03a081 	lui	v1,0xa081
a08041a0:	3c02a0f0 	lui	v0,0xa0f0
a08041a4:	34424400 	ori	v0,v0,0x4400
a08041a8:	ac6200fc 	sw	v0,252(v1)
a08041ac:	3c02a081 	lui	v0,0xa081
a08041b0:	8c4300fc 	lw	v1,252(v0)
a08041b4:	3c02a081 	lui	v0,0xa081
a08041b8:	8c4200c4 	lw	v0,196(v0)
a08041bc:	8c420020 	lw	v0,32(v0)
a08041c0:	000210c2 	srl	v0,v0,0x3
a08041c4:	00602021 	move	a0,v1
a08041c8:	00402821 	move	a1,v0
a08041cc:	0c202833 	jal	a080a0cc <bzero>
a08041d0:	00000000 	nop
a08041d4:	3c02a081 	lui	v0,0xa081
a08041d8:	8c4300fc 	lw	v1,252(v0)
a08041dc:	24020001 	li	v0,1
a08041e0:	a0620000 	sb	v0,0(v1)
a08041e4:	3c02a081 	lui	v0,0xa081
a08041e8:	8c4200fc 	lw	v0,252(v0)
a08041ec:	00401821 	move	v1,v0
a08041f0:	3c02a081 	lui	v0,0xa081
a08041f4:	8c4200c4 	lw	v0,196(v0)
a08041f8:	8c420020 	lw	v0,32(v0)
a08041fc:	000230c2 	srl	a2,v0,0x3
a0804200:	00602021 	move	a0,v1
a0804204:	3c021000 	lui	v0,0x1000
a0804208:	34454200 	ori	a1,v0,0x4200
a080420c:	0c203716 	jal	a080dc58 <.pic.sdwrite>
a0804210:	00000000 	nop
a0804214:	3c02a081 	lui	v0,0xa081
a0804218:	2444e908 	addiu	a0,v0,-5880
a080421c:	0c202b4d 	jal	a080ad34 <my_printk>
a0804220:	00000000 	nop
a0804224:	0c200462 	jal	a0801188 <screen_reflush>
a0804228:	00000000 	nop
a080422c:	3c03a081 	lui	v1,0xa081
a0804230:	3c02a0f0 	lui	v0,0xa0f0
a0804234:	34420400 	ori	v0,v0,0x400
a0804238:	ac6200e0 	sw	v0,224(v1)
a080423c:	3c02a081 	lui	v0,0xa081
a0804240:	8c4300e0 	lw	v1,224(v0)
a0804244:	3c02a081 	lui	v0,0xa081
a0804248:	8c4200c4 	lw	v0,196(v0)
a080424c:	8c420014 	lw	v0,20(v0)
a0804250:	000210c2 	srl	v0,v0,0x3
a0804254:	00602021 	move	a0,v1
a0804258:	00402821 	move	a1,v0
a080425c:	0c202833 	jal	a080a0cc <bzero>
a0804260:	00000000 	nop
a0804264:	3c02a081 	lui	v0,0xa081
a0804268:	8c4300e0 	lw	v1,224(v0)
a080426c:	24020001 	li	v0,1
a0804270:	a0620000 	sb	v0,0(v1)
a0804274:	3c02a081 	lui	v0,0xa081
a0804278:	8c4200e0 	lw	v0,224(v0)
a080427c:	24430010 	addiu	v1,v0,16
a0804280:	24020001 	li	v0,1
a0804284:	a0620000 	sb	v0,0(v1)
a0804288:	3c02a081 	lui	v0,0xa081
a080428c:	8c4200e0 	lw	v0,224(v0)
a0804290:	00401821 	move	v1,v0
a0804294:	3c02a081 	lui	v0,0xa081
a0804298:	8c4200c4 	lw	v0,196(v0)
a080429c:	8c420014 	lw	v0,20(v0)
a08042a0:	000230c2 	srl	a2,v0,0x3
a08042a4:	00602021 	move	a0,v1
a08042a8:	3c021000 	lui	v0,0x1000
a08042ac:	34450200 	ori	a1,v0,0x200
a08042b0:	0c203716 	jal	a080dc58 <.pic.sdwrite>
a08042b4:	00000000 	nop
a08042b8:	3c02a081 	lui	v0,0xa081
a08042bc:	2444e938 	addiu	a0,v0,-5832
a08042c0:	0c202b4d 	jal	a080ad34 <my_printk>
a08042c4:	00000000 	nop
a08042c8:	0c200462 	jal	a0801188 <screen_reflush>
a08042cc:	00000000 	nop
a08042d0:	3c03a081 	lui	v1,0xa081
a08042d4:	3c02a0f0 	lui	v0,0xa0f0
a08042d8:	34424600 	ori	v0,v0,0x4600
a08042dc:	ac6200c0 	sw	v0,192(v1)
a08042e0:	3c02a081 	lui	v0,0xa081
a08042e4:	8c4200c0 	lw	v0,192(v0)
a08042e8:	00402021 	move	a0,v0
a08042ec:	24051000 	li	a1,4096
a08042f0:	0c202833 	jal	a080a0cc <bzero>
a08042f4:	00000000 	nop
a08042f8:	3c02a081 	lui	v0,0xa081
a08042fc:	8c4200c0 	lw	v0,192(v0)
a0804300:	00401821 	move	v1,v0
a0804304:	3c02a081 	lui	v0,0xa081
a0804308:	ac4300f8 	sw	v1,248(v0)
a080430c:	3c02a081 	lui	v0,0xa081
a0804310:	ac401408 	sw	zero,5128(v0)
a0804314:	3c02a081 	lui	v0,0xa081
a0804318:	8c4300f8 	lw	v1,248(v0)
a080431c:	3c02a081 	lui	v0,0xa081
a0804320:	8c421408 	lw	v0,5128(v0)
a0804324:	ac620000 	sw	v0,0(v1)
a0804328:	24430001 	addiu	v1,v0,1
a080432c:	3c02a081 	lui	v0,0xa081
a0804330:	ac431408 	sw	v1,5128(v0)
a0804334:	3c02a081 	lui	v0,0xa081
a0804338:	8c4300f8 	lw	v1,248(v0)
a080433c:	24020002 	li	v0,2
a0804340:	a4620004 	sh	v0,4(v1)
a0804344:	3c02a081 	lui	v0,0xa081
a0804348:	8c4200f8 	lw	v0,248(v0)
a080434c:	a4400006 	sh	zero,6(v0)
a0804350:	3c02a081 	lui	v0,0xa081
a0804354:	8c4300f8 	lw	v1,248(v0)
a0804358:	24020008 	li	v0,8
a080435c:	ac620008 	sw	v0,8(v1)
a0804360:	3c02a081 	lui	v0,0xa081
a0804364:	8c4400f8 	lw	a0,248(v0)
a0804368:	3c02a081 	lui	v0,0xa081
a080436c:	8c431420 	lw	v1,5152(v0)
a0804370:	3c026b5f 	lui	v0,0x6b5f
a0804374:	3442ca6b 	ori	v0,v0,0xca6b
a0804378:	00620019 	multu	v1,v0
a080437c:	00001010 	mfhi	v0
a0804380:	00021582 	srl	v0,v0,0x16
a0804384:	ac82000c 	sw	v0,12(a0)
a0804388:	3c02a081 	lui	v0,0xa081
a080438c:	8c4400f8 	lw	a0,248(v0)
a0804390:	3c02a081 	lui	v0,0xa081
a0804394:	8c431420 	lw	v1,5152(v0)
a0804398:	3c026b5f 	lui	v0,0x6b5f
a080439c:	3442ca6b 	ori	v0,v0,0xca6b
a08043a0:	00620019 	multu	v1,v0
a08043a4:	00001010 	mfhi	v0
a08043a8:	00021582 	srl	v0,v0,0x16
a08043ac:	ac820010 	sw	v0,16(a0)
a08043b0:	3c02a081 	lui	v0,0xa081
a08043b4:	8c4300f8 	lw	v1,248(v0)
a08043b8:	24020002 	li	v0,2
a08043bc:	ac620014 	sw	v0,20(v1)
a08043c0:	3c02a081 	lui	v0,0xa081
a08043c4:	8c5000f8 	lw	s0,248(v0)
a08043c8:	0c200eda 	jal	a0803b68 <alloc_datablk>
a08043cc:	00000000 	nop
a08043d0:	ae020018 	sw	v0,24(s0)
a08043d4:	24020001 	li	v0,1
a08043d8:	afc20010 	sw	v0,16(s8)
a08043dc:	08201103 	j	a080440c <do_mkfs+0x484>
a08043e0:	00000000 	nop
a08043e4:	3c02a081 	lui	v0,0xa081
a08043e8:	8c4300f8 	lw	v1,248(v0)
a08043ec:	8fc20010 	lw	v0,16(s8)
a08043f0:	24420006 	addiu	v0,v0,6
a08043f4:	00021080 	sll	v0,v0,0x2
a08043f8:	00621021 	addu	v0,v1,v0
a08043fc:	ac400000 	sw	zero,0(v0)
a0804400:	8fc20010 	lw	v0,16(s8)
a0804404:	24420001 	addiu	v0,v0,1
a0804408:	afc20010 	sw	v0,16(s8)
a080440c:	8fc20010 	lw	v0,16(s8)
a0804410:	28420008 	slti	v0,v0,8
a0804414:	1440fff3 	bnez	v0,a08043e4 <do_mkfs+0x45c>
a0804418:	00000000 	nop
a080441c:	3c02a081 	lui	v0,0xa081
a0804420:	8c4300f8 	lw	v1,248(v0)
a0804424:	3c02a081 	lui	v0,0xa081
a0804428:	8c4200f8 	lw	v0,248(v0)
a080442c:	ac40003c 	sw	zero,60(v0)
a0804430:	8c42003c 	lw	v0,60(v0)
a0804434:	ac620038 	sw	v0,56(v1)
a0804438:	3c02a0f0 	lui	v0,0xa0f0
a080443c:	34444600 	ori	a0,v0,0x4600
a0804440:	3c021000 	lui	v0,0x1000
a0804444:	34454400 	ori	a1,v0,0x4400
a0804448:	24061000 	li	a2,4096
a080444c:	0c203716 	jal	a080dc58 <.pic.sdwrite>
a0804450:	00000000 	nop
a0804454:	3c02a081 	lui	v0,0xa081
a0804458:	8c4200f8 	lw	v0,248(v0)
a080445c:	8c420018 	lw	v0,24(v0)
a0804460:	00402021 	move	a0,v0
a0804464:	00002821 	move	a1,zero
a0804468:	2406ffff 	li	a2,-1
a080446c:	0c200f1d 	jal	a0803c74 <init_entry>
a0804470:	00000000 	nop
a0804474:	3c02a081 	lui	v0,0xa081
a0804478:	2444e968 	addiu	a0,v0,-5784
a080447c:	0c202b4d 	jal	a080ad34 <my_printk>
a0804480:	00000000 	nop
a0804484:	0c200462 	jal	a0801188 <screen_reflush>
a0804488:	00000000 	nop
a080448c:	3c02a081 	lui	v0,0xa081
a0804490:	8c4300f8 	lw	v1,248(v0)
a0804494:	3c02a081 	lui	v0,0xa081
a0804498:	ac4300f4 	sw	v1,244(v0)
a080449c:	3c02a081 	lui	v0,0xa081
a08044a0:	ac4000bc 	sw	zero,188(v0)
a08044a4:	24020001 	li	v0,1
a08044a8:	afc20018 	sw	v0,24(s8)
a08044ac:	8fc20018 	lw	v0,24(s8)
a08044b0:	03c0e821 	move	sp,s8
a08044b4:	8fbf002c 	lw	ra,44(sp)
a08044b8:	8fbe0028 	lw	s8,40(sp)
a08044bc:	8fb00024 	lw	s0,36(sp)
a08044c0:	27bd0030 	addiu	sp,sp,48
a08044c4:	03e00008 	jr	ra
a08044c8:	00000000 	nop

a08044cc <do_mkdir>:
a08044cc:	27bdffc8 	addiu	sp,sp,-56
a08044d0:	afbf0034 	sw	ra,52(sp)
a08044d4:	afbe0030 	sw	s8,48(sp)
a08044d8:	afb0002c 	sw	s0,44(sp)
a08044dc:	03a0f021 	move	s8,sp
a08044e0:	afc40038 	sw	a0,56(s8)
a08044e4:	3c02a081 	lui	v0,0xa081
a08044e8:	8c4200c4 	lw	v0,196(v0)
a08044ec:	8c430000 	lw	v1,0(v0)
a08044f0:	3c024649 	lui	v0,0x4649
a08044f4:	34424c45 	ori	v0,v0,0x4c45
a08044f8:	10620009 	beq	v1,v0,a0804520 <do_mkdir+0x54>
a08044fc:	00000000 	nop
a0804500:	3c02a081 	lui	v0,0xa081
a0804504:	2444e998 	addiu	a0,v0,-5736
a0804508:	0c202b4d 	jal	a080ad34 <my_printk>
a080450c:	00000000 	nop
a0804510:	2402ffff 	li	v0,-1
a0804514:	afc20020 	sw	v0,32(s8)
a0804518:	0820127c 	j	a08049f0 <do_mkdir+0x524>
a080451c:	00000000 	nop
a0804520:	afc0001c 	sw	zero,28(s8)
a0804524:	afc00018 	sw	zero,24(s8)
a0804528:	08201184 	j	a0804610 <do_mkdir+0x144>
a080452c:	00000000 	nop
a0804530:	8fc3001c 	lw	v1,28(s8)
a0804534:	000317c3 	sra	v0,v1,0x1f
a0804538:	00021682 	srl	v0,v0,0x1a
a080453c:	00431021 	addu	v0,v0,v1
a0804540:	00021183 	sra	v0,v0,0x6
a0804544:	afc20018 	sw	v0,24(s8)
a0804548:	8fc3001c 	lw	v1,28(s8)
a080454c:	000317c3 	sra	v0,v1,0x1f
a0804550:	00022682 	srl	a0,v0,0x1a
a0804554:	00641021 	addu	v0,v1,a0
a0804558:	3042003f 	andi	v0,v0,0x3f
a080455c:	00441023 	subu	v0,v0,a0
a0804560:	afc20014 	sw	v0,20(s8)
a0804564:	8fc20014 	lw	v0,20(s8)
a0804568:	14400011 	bnez	v0,a08045b0 <do_mkdir+0xe4>
a080456c:	00000000 	nop
a0804570:	3c02a081 	lui	v0,0xa081
a0804574:	244431f0 	addiu	a0,v0,12784
a0804578:	3c02a081 	lui	v0,0xa081
a080457c:	8c4300f4 	lw	v1,244(v0)
a0804580:	8fc20018 	lw	v0,24(s8)
a0804584:	24420006 	addiu	v0,v0,6
a0804588:	00021080 	sll	v0,v0,0x2
a080458c:	00621021 	addu	v0,v1,v0
a0804590:	8c420000 	lw	v0,0(v0)
a0804594:	00402821 	move	a1,v0
a0804598:	24061000 	li	a2,4096
a080459c:	0c203792 	jal	a080de48 <.pic.sdread>
a08045a0:	00000000 	nop
a08045a4:	3c02a081 	lui	v0,0xa081
a08045a8:	244231f0 	addiu	v0,v0,12784
a08045ac:	afc20010 	sw	v0,16(s8)
a08045b0:	8fc20014 	lw	v0,20(s8)
a08045b4:	00021940 	sll	v1,v0,0x5
a08045b8:	8fc20010 	lw	v0,16(s8)
a08045bc:	00431021 	addu	v0,v0,v1
a08045c0:	8c430018 	lw	v1,24(v0)
a08045c4:	24020002 	li	v0,2
a08045c8:	1462000e 	bne	v1,v0,a0804604 <do_mkdir+0x138>
a08045cc:	00000000 	nop
a08045d0:	8fc20014 	lw	v0,20(s8)
a08045d4:	00021940 	sll	v1,v0,0x5
a08045d8:	8fc20010 	lw	v0,16(s8)
a08045dc:	00431021 	addu	v0,v0,v1
a08045e0:	00402021 	move	a0,v0
a08045e4:	8fc50038 	lw	a1,56(s8)
a08045e8:	0c202844 	jal	a080a110 <strcmp>
a08045ec:	00000000 	nop
a08045f0:	14400004 	bnez	v0,a0804604 <do_mkdir+0x138>
a08045f4:	00000000 	nop
a08045f8:	afc00020 	sw	zero,32(s8)
a08045fc:	0820127c 	j	a08049f0 <do_mkdir+0x524>
a0804600:	00000000 	nop
a0804604:	8fc2001c 	lw	v0,28(s8)
a0804608:	24420001 	addiu	v0,v0,1
a080460c:	afc2001c 	sw	v0,28(s8)
a0804610:	8fc3001c 	lw	v1,28(s8)
a0804614:	3c02a081 	lui	v0,0xa081
a0804618:	8c4200f4 	lw	v0,244(v0)
a080461c:	8c420014 	lw	v0,20(v0)
a0804620:	0062102b 	sltu	v0,v1,v0
a0804624:	1440ffc2 	bnez	v0,a0804530 <do_mkdir+0x64>
a0804628:	00000000 	nop
a080462c:	8fc3001c 	lw	v1,28(s8)
a0804630:	000317c3 	sra	v0,v1,0x1f
a0804634:	00021682 	srl	v0,v0,0x1a
a0804638:	00431021 	addu	v0,v0,v1
a080463c:	00021183 	sra	v0,v0,0x6
a0804640:	afc20018 	sw	v0,24(s8)
a0804644:	8fc3001c 	lw	v1,28(s8)
a0804648:	000317c3 	sra	v0,v1,0x1f
a080464c:	00022682 	srl	a0,v0,0x1a
a0804650:	00641021 	addu	v0,v1,a0
a0804654:	3042003f 	andi	v0,v0,0x3f
a0804658:	00441023 	subu	v0,v0,a0
a080465c:	afc20014 	sw	v0,20(s8)
a0804660:	8fc20014 	lw	v0,20(s8)
a0804664:	14400011 	bnez	v0,a08046ac <do_mkdir+0x1e0>
a0804668:	00000000 	nop
a080466c:	3c02a081 	lui	v0,0xa081
a0804670:	244431f0 	addiu	a0,v0,12784
a0804674:	3c02a081 	lui	v0,0xa081
a0804678:	8c4300f4 	lw	v1,244(v0)
a080467c:	8fc20018 	lw	v0,24(s8)
a0804680:	24420006 	addiu	v0,v0,6
a0804684:	00021080 	sll	v0,v0,0x2
a0804688:	00621021 	addu	v0,v1,v0
a080468c:	8c420000 	lw	v0,0(v0)
a0804690:	00402821 	move	a1,v0
a0804694:	24061000 	li	a2,4096
a0804698:	0c203792 	jal	a080de48 <.pic.sdread>
a080469c:	00000000 	nop
a08046a0:	3c02a081 	lui	v0,0xa081
a08046a4:	244231f0 	addiu	v0,v0,12784
a08046a8:	afc20010 	sw	v0,16(s8)
a08046ac:	8fc20014 	lw	v0,20(s8)
a08046b0:	00021940 	sll	v1,v0,0x5
a08046b4:	8fc20010 	lw	v0,16(s8)
a08046b8:	00431021 	addu	v0,v0,v1
a08046bc:	00402021 	move	a0,v0
a08046c0:	8fc50038 	lw	a1,56(s8)
a08046c4:	0c20287a 	jal	a080a1e8 <strcpy>
a08046c8:	00000000 	nop
a08046cc:	8fc20014 	lw	v0,20(s8)
a08046d0:	00021940 	sll	v1,v0,0x5
a08046d4:	8fc20010 	lw	v0,16(s8)
a08046d8:	00431821 	addu	v1,v0,v1
a08046dc:	24020002 	li	v0,2
a08046e0:	ac620018 	sw	v0,24(v1)
a08046e4:	8fc20014 	lw	v0,20(s8)
a08046e8:	00021940 	sll	v1,v0,0x5
a08046ec:	8fc20010 	lw	v0,16(s8)
a08046f0:	00438021 	addu	s0,v0,v1
a08046f4:	0c200d34 	jal	a08034d0 <alloc_inode>
a08046f8:	00000000 	nop
a08046fc:	ae02001c 	sw	v0,28(s0)
a0804700:	8e02001c 	lw	v0,28(s0)
a0804704:	afc2001c 	sw	v0,28(s8)
a0804708:	3c02a081 	lui	v0,0xa081
a080470c:	244431f0 	addiu	a0,v0,12784
a0804710:	3c02a081 	lui	v0,0xa081
a0804714:	8c4300f4 	lw	v1,244(v0)
a0804718:	8fc20018 	lw	v0,24(s8)
a080471c:	24420006 	addiu	v0,v0,6
a0804720:	00021080 	sll	v0,v0,0x2
a0804724:	00621021 	addu	v0,v1,v0
a0804728:	8c420000 	lw	v0,0(v0)
a080472c:	00402821 	move	a1,v0
a0804730:	24061000 	li	a2,4096
a0804734:	0c203716 	jal	a080dc58 <.pic.sdwrite>
a0804738:	00000000 	nop
a080473c:	3c02a081 	lui	v0,0xa081
a0804740:	8c4300f4 	lw	v1,244(v0)
a0804744:	94620006 	lhu	v0,6(v1)
a0804748:	24420001 	addiu	v0,v0,1
a080474c:	3042ffff 	andi	v0,v0,0xffff
a0804750:	a4620006 	sh	v0,6(v1)
a0804754:	3c02a081 	lui	v0,0xa081
a0804758:	8c4300f4 	lw	v1,244(v0)
a080475c:	8c620014 	lw	v0,20(v1)
a0804760:	24420001 	addiu	v0,v0,1
a0804764:	ac620014 	sw	v0,20(v1)
a0804768:	3c02a081 	lui	v0,0xa081
a080476c:	8c4200f4 	lw	v0,244(v0)
a0804770:	8c420000 	lw	v0,0(v0)
a0804774:	00021182 	srl	v0,v0,0x6
a0804778:	00021b00 	sll	v1,v0,0xc
a080477c:	3c02a0f0 	lui	v0,0xa0f0
a0804780:	34424600 	ori	v0,v0,0x4600
a0804784:	00621021 	addu	v0,v1,v0
a0804788:	00402021 	move	a0,v0
a080478c:	3c02a081 	lui	v0,0xa081
a0804790:	8c4200f4 	lw	v0,244(v0)
a0804794:	8c420000 	lw	v0,0(v0)
a0804798:	00021182 	srl	v0,v0,0x6
a080479c:	00021b00 	sll	v1,v0,0xc
a08047a0:	3c021000 	lui	v0,0x1000
a08047a4:	34424400 	ori	v0,v0,0x4400
a08047a8:	00621021 	addu	v0,v1,v0
a08047ac:	00402821 	move	a1,v0
a08047b0:	24061000 	li	a2,4096
a08047b4:	0c203716 	jal	a080dc58 <.pic.sdwrite>
a08047b8:	00000000 	nop
a08047bc:	3c02a081 	lui	v0,0xa081
a08047c0:	8c4300f8 	lw	v1,248(v0)
a08047c4:	8fc2001c 	lw	v0,28(s8)
a08047c8:	00021180 	sll	v0,v0,0x6
a08047cc:	00621821 	addu	v1,v1,v0
a08047d0:	24020002 	li	v0,2
a08047d4:	a4620004 	sh	v0,4(v1)
a08047d8:	3c02a081 	lui	v0,0xa081
a08047dc:	8c4300f8 	lw	v1,248(v0)
a08047e0:	8fc2001c 	lw	v0,28(s8)
a08047e4:	00021180 	sll	v0,v0,0x6
a08047e8:	00621821 	addu	v1,v1,v0
a08047ec:	8fc2001c 	lw	v0,28(s8)
a08047f0:	ac620000 	sw	v0,0(v1)
a08047f4:	3c02a081 	lui	v0,0xa081
a08047f8:	8c4300f8 	lw	v1,248(v0)
a08047fc:	8fc2001c 	lw	v0,28(s8)
a0804800:	00021180 	sll	v0,v0,0x6
a0804804:	00621821 	addu	v1,v1,v0
a0804808:	24020004 	li	v0,4
a080480c:	ac620008 	sw	v0,8(v1)
a0804810:	3c02a081 	lui	v0,0xa081
a0804814:	8c4300f8 	lw	v1,248(v0)
a0804818:	8fc2001c 	lw	v0,28(s8)
a080481c:	00021180 	sll	v0,v0,0x6
a0804820:	00622021 	addu	a0,v1,v0
a0804824:	3c02a081 	lui	v0,0xa081
a0804828:	8c431420 	lw	v1,5152(v0)
a080482c:	3c026b5f 	lui	v0,0x6b5f
a0804830:	3442ca6b 	ori	v0,v0,0xca6b
a0804834:	00620019 	multu	v1,v0
a0804838:	00001010 	mfhi	v0
a080483c:	00021582 	srl	v0,v0,0x16
a0804840:	ac82000c 	sw	v0,12(a0)
a0804844:	3c02a081 	lui	v0,0xa081
a0804848:	8c4300f8 	lw	v1,248(v0)
a080484c:	8fc2001c 	lw	v0,28(s8)
a0804850:	00021180 	sll	v0,v0,0x6
a0804854:	00622021 	addu	a0,v1,v0
a0804858:	3c02a081 	lui	v0,0xa081
a080485c:	8c431420 	lw	v1,5152(v0)
a0804860:	3c026b5f 	lui	v0,0x6b5f
a0804864:	3442ca6b 	ori	v0,v0,0xca6b
a0804868:	00620019 	multu	v1,v0
a080486c:	00001010 	mfhi	v0
a0804870:	00021582 	srl	v0,v0,0x16
a0804874:	ac820010 	sw	v0,16(a0)
a0804878:	3c02a081 	lui	v0,0xa081
a080487c:	8c4300f8 	lw	v1,248(v0)
a0804880:	8fc2001c 	lw	v0,28(s8)
a0804884:	00021180 	sll	v0,v0,0x6
a0804888:	00621821 	addu	v1,v1,v0
a080488c:	24020002 	li	v0,2
a0804890:	ac620014 	sw	v0,20(v1)
a0804894:	3c02a081 	lui	v0,0xa081
a0804898:	8c4300f8 	lw	v1,248(v0)
a080489c:	8fc2001c 	lw	v0,28(s8)
a08048a0:	00021180 	sll	v0,v0,0x6
a08048a4:	00628021 	addu	s0,v1,v0
a08048a8:	0c200eda 	jal	a0803b68 <alloc_datablk>
a08048ac:	00000000 	nop
a08048b0:	ae020018 	sw	v0,24(s0)
a08048b4:	24020001 	li	v0,1
a08048b8:	afc20018 	sw	v0,24(s8)
a08048bc:	0820123e 	j	a08048f8 <do_mkdir+0x42c>
a08048c0:	00000000 	nop
a08048c4:	3c02a081 	lui	v0,0xa081
a08048c8:	8c4300f8 	lw	v1,248(v0)
a08048cc:	8fc2001c 	lw	v0,28(s8)
a08048d0:	00021180 	sll	v0,v0,0x6
a08048d4:	00621821 	addu	v1,v1,v0
a08048d8:	8fc20018 	lw	v0,24(s8)
a08048dc:	24420006 	addiu	v0,v0,6
a08048e0:	00021080 	sll	v0,v0,0x2
a08048e4:	00621021 	addu	v0,v1,v0
a08048e8:	ac400000 	sw	zero,0(v0)
a08048ec:	8fc20018 	lw	v0,24(s8)
a08048f0:	24420001 	addiu	v0,v0,1
a08048f4:	afc20018 	sw	v0,24(s8)
a08048f8:	8fc20018 	lw	v0,24(s8)
a08048fc:	28420008 	slti	v0,v0,8
a0804900:	1440fff0 	bnez	v0,a08048c4 <do_mkdir+0x3f8>
a0804904:	00000000 	nop
a0804908:	3c02a081 	lui	v0,0xa081
a080490c:	8c4300f8 	lw	v1,248(v0)
a0804910:	8fc2001c 	lw	v0,28(s8)
a0804914:	00021180 	sll	v0,v0,0x6
a0804918:	00622021 	addu	a0,v1,v0
a080491c:	3c02a081 	lui	v0,0xa081
a0804920:	8c4300f8 	lw	v1,248(v0)
a0804924:	8fc2001c 	lw	v0,28(s8)
a0804928:	00021180 	sll	v0,v0,0x6
a080492c:	00621021 	addu	v0,v1,v0
a0804930:	ac40003c 	sw	zero,60(v0)
a0804934:	8c42003c 	lw	v0,60(v0)
a0804938:	ac820038 	sw	v0,56(a0)
a080493c:	8fc3001c 	lw	v1,28(s8)
a0804940:	000317c3 	sra	v0,v1,0x1f
a0804944:	00021682 	srl	v0,v0,0x1a
a0804948:	00431021 	addu	v0,v0,v1
a080494c:	00021183 	sra	v0,v0,0x6
a0804950:	00021300 	sll	v0,v0,0xc
a0804954:	00401821 	move	v1,v0
a0804958:	3c02a0f0 	lui	v0,0xa0f0
a080495c:	34424600 	ori	v0,v0,0x4600
a0804960:	00621021 	addu	v0,v1,v0
a0804964:	00402021 	move	a0,v0
a0804968:	8fc3001c 	lw	v1,28(s8)
a080496c:	000317c3 	sra	v0,v1,0x1f
a0804970:	00021682 	srl	v0,v0,0x1a
a0804974:	00431021 	addu	v0,v0,v1
a0804978:	00021183 	sra	v0,v0,0x6
a080497c:	00021b00 	sll	v1,v0,0xc
a0804980:	3c021000 	lui	v0,0x1000
a0804984:	34424400 	ori	v0,v0,0x4400
a0804988:	00621021 	addu	v0,v1,v0
a080498c:	00402821 	move	a1,v0
a0804990:	24061000 	li	a2,4096
a0804994:	0c203716 	jal	a080dc58 <.pic.sdwrite>
a0804998:	00000000 	nop
a080499c:	3c02a081 	lui	v0,0xa081
a08049a0:	8c4300f8 	lw	v1,248(v0)
a08049a4:	8fc2001c 	lw	v0,28(s8)
a08049a8:	00021180 	sll	v0,v0,0x6
a08049ac:	00621021 	addu	v0,v1,v0
a08049b0:	8c440018 	lw	a0,24(v0)
a08049b4:	3c02a081 	lui	v0,0xa081
a08049b8:	8c4300f8 	lw	v1,248(v0)
a08049bc:	8fc2001c 	lw	v0,28(s8)
a08049c0:	00021180 	sll	v0,v0,0x6
a08049c4:	00621021 	addu	v0,v1,v0
a08049c8:	8c430000 	lw	v1,0(v0)
a08049cc:	3c02a081 	lui	v0,0xa081
a08049d0:	8c4200f4 	lw	v0,244(v0)
a08049d4:	8c420000 	lw	v0,0(v0)
a08049d8:	00602821 	move	a1,v1
a08049dc:	00403021 	move	a2,v0
a08049e0:	0c200f1d 	jal	a0803c74 <init_entry>
a08049e4:	00000000 	nop
a08049e8:	24020001 	li	v0,1
a08049ec:	afc20020 	sw	v0,32(s8)
a08049f0:	8fc20020 	lw	v0,32(s8)
a08049f4:	03c0e821 	move	sp,s8
a08049f8:	8fbf0034 	lw	ra,52(sp)
a08049fc:	8fbe0030 	lw	s8,48(sp)
a0804a00:	8fb0002c 	lw	s0,44(sp)
a0804a04:	27bd0038 	addiu	sp,sp,56
a0804a08:	03e00008 	jr	ra
a0804a0c:	00000000 	nop

a0804a10 <do_rmdir>:
a0804a10:	27bdffd0 	addiu	sp,sp,-48
a0804a14:	afbf002c 	sw	ra,44(sp)
a0804a18:	afbe0028 	sw	s8,40(sp)
a0804a1c:	03a0f021 	move	s8,sp
a0804a20:	afc40030 	sw	a0,48(s8)
a0804a24:	3c02a081 	lui	v0,0xa081
a0804a28:	8c4200c4 	lw	v0,196(v0)
a0804a2c:	8c430000 	lw	v1,0(v0)
a0804a30:	3c024649 	lui	v0,0x4649
a0804a34:	34424c45 	ori	v0,v0,0x4c45
a0804a38:	10620009 	beq	v1,v0,a0804a60 <do_rmdir+0x50>
a0804a3c:	00000000 	nop
a0804a40:	3c02a081 	lui	v0,0xa081
a0804a44:	2444e998 	addiu	a0,v0,-5736
a0804a48:	0c202b4d 	jal	a080ad34 <my_printk>
a0804a4c:	00000000 	nop
a0804a50:	2402ffff 	li	v0,-1
a0804a54:	afc20020 	sw	v0,32(s8)
a0804a58:	08201333 	j	a0804ccc <do_rmdir+0x2bc>
a0804a5c:	00000000 	nop
a0804a60:	afc0001c 	sw	zero,28(s8)
a0804a64:	afc00018 	sw	zero,24(s8)
a0804a68:	0820132b 	j	a0804cac <do_rmdir+0x29c>
a0804a6c:	00000000 	nop
a0804a70:	8fc3001c 	lw	v1,28(s8)
a0804a74:	000317c3 	sra	v0,v1,0x1f
a0804a78:	00021682 	srl	v0,v0,0x1a
a0804a7c:	00431021 	addu	v0,v0,v1
a0804a80:	00021183 	sra	v0,v0,0x6
a0804a84:	afc20018 	sw	v0,24(s8)
a0804a88:	8fc3001c 	lw	v1,28(s8)
a0804a8c:	000317c3 	sra	v0,v1,0x1f
a0804a90:	00022682 	srl	a0,v0,0x1a
a0804a94:	00641021 	addu	v0,v1,a0
a0804a98:	3042003f 	andi	v0,v0,0x3f
a0804a9c:	00441023 	subu	v0,v0,a0
a0804aa0:	afc20014 	sw	v0,20(s8)
a0804aa4:	8fc20014 	lw	v0,20(s8)
a0804aa8:	14400011 	bnez	v0,a0804af0 <do_rmdir+0xe0>
a0804aac:	00000000 	nop
a0804ab0:	3c02a081 	lui	v0,0xa081
a0804ab4:	244431f0 	addiu	a0,v0,12784
a0804ab8:	3c02a081 	lui	v0,0xa081
a0804abc:	8c4300f4 	lw	v1,244(v0)
a0804ac0:	8fc20018 	lw	v0,24(s8)
a0804ac4:	24420006 	addiu	v0,v0,6
a0804ac8:	00021080 	sll	v0,v0,0x2
a0804acc:	00621021 	addu	v0,v1,v0
a0804ad0:	8c420000 	lw	v0,0(v0)
a0804ad4:	00402821 	move	a1,v0
a0804ad8:	24061000 	li	a2,4096
a0804adc:	0c203792 	jal	a080de48 <.pic.sdread>
a0804ae0:	00000000 	nop
a0804ae4:	3c02a081 	lui	v0,0xa081
a0804ae8:	244231f0 	addiu	v0,v0,12784
a0804aec:	afc20010 	sw	v0,16(s8)
a0804af0:	8fc20014 	lw	v0,20(s8)
a0804af4:	00021940 	sll	v1,v0,0x5
a0804af8:	8fc20010 	lw	v0,16(s8)
a0804afc:	00431021 	addu	v0,v0,v1
a0804b00:	8c430018 	lw	v1,24(v0)
a0804b04:	24020002 	li	v0,2
a0804b08:	14620065 	bne	v1,v0,a0804ca0 <do_rmdir+0x290>
a0804b0c:	00000000 	nop
a0804b10:	8fc20014 	lw	v0,20(s8)
a0804b14:	00021940 	sll	v1,v0,0x5
a0804b18:	8fc20010 	lw	v0,16(s8)
a0804b1c:	00431021 	addu	v0,v0,v1
a0804b20:	00402021 	move	a0,v0
a0804b24:	8fc50030 	lw	a1,48(s8)
a0804b28:	0c202844 	jal	a080a110 <strcmp>
a0804b2c:	00000000 	nop
a0804b30:	1440005b 	bnez	v0,a0804ca0 <do_rmdir+0x290>
a0804b34:	00000000 	nop
a0804b38:	8fc20014 	lw	v0,20(s8)
a0804b3c:	00021940 	sll	v1,v0,0x5
a0804b40:	8fc20010 	lw	v0,16(s8)
a0804b44:	00431021 	addu	v0,v0,v1
a0804b48:	8c42001c 	lw	v0,28(v0)
a0804b4c:	00402021 	move	a0,v0
a0804b50:	0c200d9c 	jal	a0803670 <free_inode>
a0804b54:	00000000 	nop
a0804b58:	8fc20014 	lw	v0,20(s8)
a0804b5c:	00021940 	sll	v1,v0,0x5
a0804b60:	8fc20010 	lw	v0,16(s8)
a0804b64:	00431021 	addu	v0,v0,v1
a0804b68:	a0400000 	sb	zero,0(v0)
a0804b6c:	8fc20014 	lw	v0,20(s8)
a0804b70:	00021940 	sll	v1,v0,0x5
a0804b74:	8fc20010 	lw	v0,16(s8)
a0804b78:	00431021 	addu	v0,v0,v1
a0804b7c:	ac400018 	sw	zero,24(v0)
a0804b80:	8fc20014 	lw	v0,20(s8)
a0804b84:	00021940 	sll	v1,v0,0x5
a0804b88:	8fc20010 	lw	v0,16(s8)
a0804b8c:	00431821 	addu	v1,v0,v1
a0804b90:	2402ffff 	li	v0,-1
a0804b94:	ac62001c 	sw	v0,28(v1)
a0804b98:	3c02a081 	lui	v0,0xa081
a0804b9c:	244431f0 	addiu	a0,v0,12784
a0804ba0:	3c02a081 	lui	v0,0xa081
a0804ba4:	8c4300f4 	lw	v1,244(v0)
a0804ba8:	8fc20018 	lw	v0,24(s8)
a0804bac:	24420006 	addiu	v0,v0,6
a0804bb0:	00021080 	sll	v0,v0,0x2
a0804bb4:	00621021 	addu	v0,v1,v0
a0804bb8:	8c420000 	lw	v0,0(v0)
a0804bbc:	00402821 	move	a1,v0
a0804bc0:	24061000 	li	a2,4096
a0804bc4:	0c203716 	jal	a080dc58 <.pic.sdwrite>
a0804bc8:	00000000 	nop
a0804bcc:	3c02a081 	lui	v0,0xa081
a0804bd0:	8c4300f4 	lw	v1,244(v0)
a0804bd4:	94620006 	lhu	v0,6(v1)
a0804bd8:	2442ffff 	addiu	v0,v0,-1
a0804bdc:	3042ffff 	andi	v0,v0,0xffff
a0804be0:	a4620006 	sh	v0,6(v1)
a0804be4:	3c02a081 	lui	v0,0xa081
a0804be8:	8c4400f4 	lw	a0,244(v0)
a0804bec:	3c02a081 	lui	v0,0xa081
a0804bf0:	8c431420 	lw	v1,5152(v0)
a0804bf4:	3c026b5f 	lui	v0,0x6b5f
a0804bf8:	3442ca6b 	ori	v0,v0,0xca6b
a0804bfc:	00620019 	multu	v1,v0
a0804c00:	00001010 	mfhi	v0
a0804c04:	00021582 	srl	v0,v0,0x16
a0804c08:	ac820010 	sw	v0,16(a0)
a0804c0c:	3c02a081 	lui	v0,0xa081
a0804c10:	8c4300f4 	lw	v1,244(v0)
a0804c14:	3c02a081 	lui	v0,0xa081
a0804c18:	8c4200f4 	lw	v0,244(v0)
a0804c1c:	8c420008 	lw	v0,8(v0)
a0804c20:	2442fffc 	addiu	v0,v0,-4
a0804c24:	ac620008 	sw	v0,8(v1)
a0804c28:	3c02a081 	lui	v0,0xa081
a0804c2c:	8c4300f4 	lw	v1,244(v0)
a0804c30:	8c620014 	lw	v0,20(v1)
a0804c34:	2442ffff 	addiu	v0,v0,-1
a0804c38:	ac620014 	sw	v0,20(v1)
a0804c3c:	3c02a081 	lui	v0,0xa081
a0804c40:	8c4200f4 	lw	v0,244(v0)
a0804c44:	8c420000 	lw	v0,0(v0)
a0804c48:	00021182 	srl	v0,v0,0x6
a0804c4c:	00021b00 	sll	v1,v0,0xc
a0804c50:	3c02a0f0 	lui	v0,0xa0f0
a0804c54:	34424600 	ori	v0,v0,0x4600
a0804c58:	00621021 	addu	v0,v1,v0
a0804c5c:	00402021 	move	a0,v0
a0804c60:	3c02a081 	lui	v0,0xa081
a0804c64:	8c4200f4 	lw	v0,244(v0)
a0804c68:	8c420000 	lw	v0,0(v0)
a0804c6c:	00021182 	srl	v0,v0,0x6
a0804c70:	00021b00 	sll	v1,v0,0xc
a0804c74:	3c021000 	lui	v0,0x1000
a0804c78:	34424400 	ori	v0,v0,0x4400
a0804c7c:	00621021 	addu	v0,v1,v0
a0804c80:	00402821 	move	a1,v0
a0804c84:	24061000 	li	a2,4096
a0804c88:	0c203716 	jal	a080dc58 <.pic.sdwrite>
a0804c8c:	00000000 	nop
a0804c90:	24020001 	li	v0,1
a0804c94:	afc20020 	sw	v0,32(s8)
a0804c98:	08201333 	j	a0804ccc <do_rmdir+0x2bc>
a0804c9c:	00000000 	nop
a0804ca0:	8fc2001c 	lw	v0,28(s8)
a0804ca4:	24420001 	addiu	v0,v0,1
a0804ca8:	afc2001c 	sw	v0,28(s8)
a0804cac:	8fc3001c 	lw	v1,28(s8)
a0804cb0:	3c02a081 	lui	v0,0xa081
a0804cb4:	8c4200f4 	lw	v0,244(v0)
a0804cb8:	8c420014 	lw	v0,20(v0)
a0804cbc:	0062102b 	sltu	v0,v1,v0
a0804cc0:	1440ff6b 	bnez	v0,a0804a70 <do_rmdir+0x60>
a0804cc4:	00000000 	nop
a0804cc8:	afc00020 	sw	zero,32(s8)
a0804ccc:	8fc20020 	lw	v0,32(s8)
a0804cd0:	03c0e821 	move	sp,s8
a0804cd4:	8fbf002c 	lw	ra,44(sp)
a0804cd8:	8fbe0028 	lw	s8,40(sp)
a0804cdc:	27bd0030 	addiu	sp,sp,48
a0804ce0:	03e00008 	jr	ra
a0804ce4:	00000000 	nop

a0804ce8 <split>:
a0804ce8:	27bdffd8 	addiu	sp,sp,-40
a0804cec:	afbf0024 	sw	ra,36(sp)
a0804cf0:	afbe0020 	sw	s8,32(sp)
a0804cf4:	03a0f021 	move	s8,sp
a0804cf8:	afc40028 	sw	a0,40(s8)
a0804cfc:	afc5002c 	sw	a1,44(s8)
a0804d00:	afc60030 	sw	a2,48(s8)
a0804d04:	afc00018 	sw	zero,24(s8)
a0804d08:	afc00014 	sw	zero,20(s8)
a0804d0c:	8fc40030 	lw	a0,48(s8)
a0804d10:	0c2027e4 	jal	a0809f90 <strlen>
a0804d14:	00000000 	nop
a0804d18:	afc20010 	sw	v0,16(s8)
a0804d1c:	8fc20010 	lw	v0,16(s8)
a0804d20:	1c400005 	bgtz	v0,a0804d38 <split+0x50>
a0804d24:	00000000 	nop
a0804d28:	8fc20028 	lw	v0,40(s8)
a0804d2c:	ac400000 	sw	zero,0(v0)
a0804d30:	082013a4 	j	a0804e90 <split+0x1a8>
a0804d34:	00000000 	nop
a0804d38:	8fc20010 	lw	v0,16(s8)
a0804d3c:	2443ffff 	addiu	v1,v0,-1
a0804d40:	8fc20030 	lw	v0,48(s8)
a0804d44:	00431021 	addu	v0,v0,v1
a0804d48:	80430000 	lb	v1,0(v0)
a0804d4c:	2402002f 	li	v0,47
a0804d50:	1062000d 	beq	v1,v0,a0804d88 <split+0xa0>
a0804d54:	00000000 	nop
a0804d58:	8fc30010 	lw	v1,16(s8)
a0804d5c:	8fc20030 	lw	v0,48(s8)
a0804d60:	00431821 	addu	v1,v0,v1
a0804d64:	2402002f 	li	v0,47
a0804d68:	a0620000 	sb	v0,0(v1)
a0804d6c:	8fc20010 	lw	v0,16(s8)
a0804d70:	24420001 	addiu	v0,v0,1
a0804d74:	afc20010 	sw	v0,16(s8)
a0804d78:	8fc30010 	lw	v1,16(s8)
a0804d7c:	8fc20030 	lw	v0,48(s8)
a0804d80:	00431021 	addu	v0,v0,v1
a0804d84:	a0400000 	sb	zero,0(v0)
a0804d88:	8fc30018 	lw	v1,24(s8)
a0804d8c:	8fc20030 	lw	v0,48(s8)
a0804d90:	00431021 	addu	v0,v0,v1
a0804d94:	80430000 	lb	v1,0(v0)
a0804d98:	2402002f 	li	v0,47
a0804d9c:	14620004 	bne	v1,v0,a0804db0 <split+0xc8>
a0804da0:	00000000 	nop
a0804da4:	8fc20018 	lw	v0,24(s8)
a0804da8:	24420001 	addiu	v0,v0,1
a0804dac:	afc20018 	sw	v0,24(s8)
a0804db0:	afc00014 	sw	zero,20(s8)
a0804db4:	8fc30028 	lw	v1,40(s8)
a0804db8:	8fc20014 	lw	v0,20(s8)
a0804dbc:	ac620000 	sw	v0,0(v1)
a0804dc0:	0820139f 	j	a0804e7c <split+0x194>
a0804dc4:	00000000 	nop
a0804dc8:	8fc30018 	lw	v1,24(s8)
a0804dcc:	8fc20030 	lw	v0,48(s8)
a0804dd0:	00431021 	addu	v0,v0,v1
a0804dd4:	80430000 	lb	v1,0(v0)
a0804dd8:	2402002f 	li	v0,47
a0804ddc:	14620013 	bne	v1,v0,a0804e2c <split+0x144>
a0804de0:	00000000 	nop
a0804de4:	8fc20028 	lw	v0,40(s8)
a0804de8:	8c420000 	lw	v0,0(v0)
a0804dec:	000218c0 	sll	v1,v0,0x3
a0804df0:	00031080 	sll	v0,v1,0x2
a0804df4:	00431823 	subu	v1,v0,v1
a0804df8:	8fc2002c 	lw	v0,44(s8)
a0804dfc:	00431821 	addu	v1,v0,v1
a0804e00:	8fc20014 	lw	v0,20(s8)
a0804e04:	00621021 	addu	v0,v1,v0
a0804e08:	a0400000 	sb	zero,0(v0)
a0804e0c:	8fc20028 	lw	v0,40(s8)
a0804e10:	8c420000 	lw	v0,0(v0)
a0804e14:	24430001 	addiu	v1,v0,1
a0804e18:	8fc20028 	lw	v0,40(s8)
a0804e1c:	ac430000 	sw	v1,0(v0)
a0804e20:	afc00014 	sw	zero,20(s8)
a0804e24:	0820139c 	j	a0804e70 <split+0x188>
a0804e28:	00000000 	nop
a0804e2c:	8fc20028 	lw	v0,40(s8)
a0804e30:	8c420000 	lw	v0,0(v0)
a0804e34:	000218c0 	sll	v1,v0,0x3
a0804e38:	00031080 	sll	v0,v1,0x2
a0804e3c:	00431823 	subu	v1,v0,v1
a0804e40:	8fc2002c 	lw	v0,44(s8)
a0804e44:	00432821 	addu	a1,v0,v1
a0804e48:	8fc40014 	lw	a0,20(s8)
a0804e4c:	8fc30018 	lw	v1,24(s8)
a0804e50:	8fc20030 	lw	v0,48(s8)
a0804e54:	00431021 	addu	v0,v0,v1
a0804e58:	80430000 	lb	v1,0(v0)
a0804e5c:	00a41021 	addu	v0,a1,a0
a0804e60:	a0430000 	sb	v1,0(v0)
a0804e64:	8fc20014 	lw	v0,20(s8)
a0804e68:	24420001 	addiu	v0,v0,1
a0804e6c:	afc20014 	sw	v0,20(s8)
a0804e70:	8fc20018 	lw	v0,24(s8)
a0804e74:	24420001 	addiu	v0,v0,1
a0804e78:	afc20018 	sw	v0,24(s8)
a0804e7c:	8fc20018 	lw	v0,24(s8)
a0804e80:	8fc30010 	lw	v1,16(s8)
a0804e84:	0043102a 	slt	v0,v0,v1
a0804e88:	1440ffcf 	bnez	v0,a0804dc8 <split+0xe0>
a0804e8c:	00000000 	nop
a0804e90:	03c0e821 	move	sp,s8
a0804e94:	8fbf0024 	lw	ra,36(sp)
a0804e98:	8fbe0020 	lw	s8,32(sp)
a0804e9c:	27bd0028 	addiu	sp,sp,40
a0804ea0:	03e00008 	jr	ra
a0804ea4:	00000000 	nop

a0804ea8 <do_cd>:
a0804ea8:	27bdfef0 	addiu	sp,sp,-272
a0804eac:	afbf010c 	sw	ra,268(sp)
a0804eb0:	afbe0108 	sw	s8,264(sp)
a0804eb4:	03a0f021 	move	s8,sp
a0804eb8:	afc40110 	sw	a0,272(s8)
a0804ebc:	3c02a081 	lui	v0,0xa081
a0804ec0:	8c4200c4 	lw	v0,196(v0)
a0804ec4:	8c430000 	lw	v1,0(v0)
a0804ec8:	3c024649 	lui	v0,0x4649
a0804ecc:	34424c45 	ori	v0,v0,0x4c45
a0804ed0:	10620007 	beq	v1,v0,a0804ef0 <do_cd+0x48>
a0804ed4:	00000000 	nop
a0804ed8:	3c02a081 	lui	v0,0xa081
a0804edc:	2444e998 	addiu	a0,v0,-5736
a0804ee0:	0c202b4d 	jal	a080ad34 <my_printk>
a0804ee4:	00000000 	nop
a0804ee8:	08201535 	j	a08054d4 <do_cd+0x62c>
a0804eec:	00000000 	nop
a0804ef0:	8fc20110 	lw	v0,272(s8)
a0804ef4:	80430000 	lb	v1,0(v0)
a0804ef8:	2402002f 	li	v0,47
a0804efc:	10620006 	beq	v1,v0,a0804f18 <do_cd+0x70>
a0804f00:	00000000 	nop
a0804f04:	3c02a081 	lui	v0,0xa081
a0804f08:	8c4200d0 	lw	v0,208(v0)
a0804f0c:	afc20100 	sw	v0,256(s8)
a0804f10:	082013c8 	j	a0804f20 <do_cd+0x78>
a0804f14:	00000000 	nop
a0804f18:	2402ffff 	li	v0,-1
a0804f1c:	afc20100 	sw	v0,256(s8)
a0804f20:	8fc20100 	lw	v0,256(s8)
a0804f24:	afc2001c 	sw	v0,28(s8)
a0804f28:	afc00024 	sw	zero,36(s8)
a0804f2c:	082013e0 	j	a0804f80 <do_cd+0xd8>
a0804f30:	00000000 	nop
a0804f34:	27c40098 	addiu	a0,s8,152
a0804f38:	8fc20024 	lw	v0,36(s8)
a0804f3c:	000218c0 	sll	v1,v0,0x3
a0804f40:	00031080 	sll	v0,v1,0x2
a0804f44:	00431023 	subu	v0,v0,v1
a0804f48:	00822021 	addu	a0,a0,v0
a0804f4c:	3c02a081 	lui	v0,0xa081
a0804f50:	24452a70 	addiu	a1,v0,10864
a0804f54:	8fc20024 	lw	v0,36(s8)
a0804f58:	000218c0 	sll	v1,v0,0x3
a0804f5c:	00031080 	sll	v0,v1,0x2
a0804f60:	00431023 	subu	v0,v0,v1
a0804f64:	00a21021 	addu	v0,a1,v0
a0804f68:	00402821 	move	a1,v0
a0804f6c:	0c20287a 	jal	a080a1e8 <strcpy>
a0804f70:	00000000 	nop
a0804f74:	8fc20024 	lw	v0,36(s8)
a0804f78:	24420001 	addiu	v0,v0,1
a0804f7c:	afc20024 	sw	v0,36(s8)
a0804f80:	8fc20024 	lw	v0,36(s8)
a0804f84:	28420004 	slti	v0,v0,4
a0804f88:	1440ffea 	bnez	v0,a0804f34 <do_cd+0x8c>
a0804f8c:	00000000 	nop
a0804f90:	8fc20110 	lw	v0,272(s8)
a0804f94:	80430000 	lb	v1,0(v0)
a0804f98:	2402002f 	li	v0,47
a0804f9c:	14620006 	bne	v1,v0,a0804fb8 <do_cd+0x110>
a0804fa0:	00000000 	nop
a0804fa4:	3c02a081 	lui	v0,0xa081
a0804fa8:	8c4200f8 	lw	v0,248(v0)
a0804fac:	afc200fc 	sw	v0,252(s8)
a0804fb0:	082013f1 	j	a0804fc4 <do_cd+0x11c>
a0804fb4:	00000000 	nop
a0804fb8:	3c02a081 	lui	v0,0xa081
a0804fbc:	8c4200f4 	lw	v0,244(v0)
a0804fc0:	afc200fc 	sw	v0,252(s8)
a0804fc4:	8fc200fc 	lw	v0,252(s8)
a0804fc8:	afc20018 	sw	v0,24(s8)
a0804fcc:	27c20034 	addiu	v0,s8,52
a0804fd0:	27c30038 	addiu	v1,s8,56
a0804fd4:	00402021 	move	a0,v0
a0804fd8:	00602821 	move	a1,v1
a0804fdc:	8fc60110 	lw	a2,272(s8)
a0804fe0:	0c20133a 	jal	a0804ce8 <split>
a0804fe4:	00000000 	nop
a0804fe8:	afc00024 	sw	zero,36(s8)
a0804fec:	08201506 	j	a0805418 <do_cd+0x570>
a0804ff0:	00000000 	nop
a0804ff4:	afc00010 	sw	zero,16(s8)
a0804ff8:	27c40038 	addiu	a0,s8,56
a0804ffc:	8fc20024 	lw	v0,36(s8)
a0805000:	000218c0 	sll	v1,v0,0x3
a0805004:	00031080 	sll	v0,v1,0x2
a0805008:	00431023 	subu	v0,v0,v1
a080500c:	00821021 	addu	v0,a0,v0
a0805010:	00402021 	move	a0,v0
a0805014:	3c02a081 	lui	v0,0xa081
a0805018:	2445e870 	addiu	a1,v0,-6032
a080501c:	0c202844 	jal	a080a110 <strcmp>
a0805020:	00000000 	nop
a0805024:	104000f9 	beqz	v0,a080540c <do_cd+0x564>
a0805028:	00000000 	nop
a080502c:	27c40038 	addiu	a0,s8,56
a0805030:	8fc20024 	lw	v0,36(s8)
a0805034:	000218c0 	sll	v1,v0,0x3
a0805038:	00031080 	sll	v0,v1,0x2
a080503c:	00431023 	subu	v0,v0,v1
a0805040:	00821021 	addu	v0,a0,v0
a0805044:	00402021 	move	a0,v0
a0805048:	3c02a081 	lui	v0,0xa081
a080504c:	2445e874 	addiu	a1,v0,-6028
a0805050:	0c202844 	jal	a080a110 <strcmp>
a0805054:	00000000 	nop
a0805058:	14400055 	bnez	v0,a08051b0 <do_cd+0x308>
a080505c:	00000000 	nop
a0805060:	8fc2001c 	lw	v0,28(s8)
a0805064:	04410004 	bgez	v0,a0805078 <do_cd+0x1d0>
a0805068:	00000000 	nop
a080506c:	afc000f8 	sw	zero,248(s8)
a0805070:	08201533 	j	a08054cc <do_cd+0x624>
a0805074:	00000000 	nop
a0805078:	3c02a081 	lui	v0,0xa081
a080507c:	244331f0 	addiu	v1,v0,12784
a0805080:	8fc20018 	lw	v0,24(s8)
a0805084:	8c420018 	lw	v0,24(v0)
a0805088:	00602021 	move	a0,v1
a080508c:	00402821 	move	a1,v0
a0805090:	24061000 	li	a2,4096
a0805094:	0c203792 	jal	a080de48 <.pic.sdread>
a0805098:	00000000 	nop
a080509c:	3c02a081 	lui	v0,0xa081
a08050a0:	244231f0 	addiu	v0,v0,12784
a08050a4:	afc20014 	sw	v0,20(s8)
a08050a8:	8fc20014 	lw	v0,20(s8)
a08050ac:	24420020 	addiu	v0,v0,32
a08050b0:	8c42001c 	lw	v0,28(v0)
a08050b4:	afc20020 	sw	v0,32(s8)
a08050b8:	8fc30020 	lw	v1,32(s8)
a08050bc:	000317c3 	sra	v0,v1,0x1f
a08050c0:	00021682 	srl	v0,v0,0x1a
a08050c4:	00431021 	addu	v0,v0,v1
a08050c8:	00021183 	sra	v0,v0,0x6
a08050cc:	00401821 	move	v1,v0
a08050d0:	24020001 	li	v0,1
a08050d4:	00621004 	sllv	v0,v0,v1
a08050d8:	00021fc3 	sra	v1,v0,0x1f
a08050dc:	00402021 	move	a0,v0
a08050e0:	00602821 	move	a1,v1
a08050e4:	3c02a081 	lui	v0,0xa081
a08050e8:	8c461400 	lw	a2,5120(v0)
a08050ec:	8c471404 	lw	a3,5124(v0)
a08050f0:	00861024 	and	v0,a0,a2
a08050f4:	00a71824 	and	v1,a1,a3
a08050f8:	00402021 	move	a0,v0
a08050fc:	00832025 	or	a0,a0,v1
a0805100:	14800019 	bnez	a0,a0805168 <do_cd+0x2c0>
a0805104:	00000000 	nop
a0805108:	8fc30020 	lw	v1,32(s8)
a080510c:	000317c3 	sra	v0,v1,0x1f
a0805110:	00021682 	srl	v0,v0,0x1a
a0805114:	00431021 	addu	v0,v0,v1
a0805118:	00021183 	sra	v0,v0,0x6
a080511c:	00021300 	sll	v0,v0,0xc
a0805120:	00401821 	move	v1,v0
a0805124:	3c02a0f0 	lui	v0,0xa0f0
a0805128:	34424600 	ori	v0,v0,0x4600
a080512c:	00621021 	addu	v0,v1,v0
a0805130:	00402021 	move	a0,v0
a0805134:	8fc30020 	lw	v1,32(s8)
a0805138:	000317c3 	sra	v0,v1,0x1f
a080513c:	00021682 	srl	v0,v0,0x1a
a0805140:	00431021 	addu	v0,v0,v1
a0805144:	00021183 	sra	v0,v0,0x6
a0805148:	00021b00 	sll	v1,v0,0xc
a080514c:	3c021000 	lui	v0,0x1000
a0805150:	34424400 	ori	v0,v0,0x4400
a0805154:	00621021 	addu	v0,v1,v0
a0805158:	00402821 	move	a1,v0
a080515c:	24061000 	li	a2,4096
a0805160:	0c203792 	jal	a080de48 <.pic.sdread>
a0805164:	00000000 	nop
a0805168:	3c02a081 	lui	v0,0xa081
a080516c:	8c4300f8 	lw	v1,248(v0)
a0805170:	8fc20020 	lw	v0,32(s8)
a0805174:	00021180 	sll	v0,v0,0x6
a0805178:	00621021 	addu	v0,v1,v0
a080517c:	afc20018 	sw	v0,24(s8)
a0805180:	8fc2001c 	lw	v0,28(s8)
a0805184:	000218c0 	sll	v1,v0,0x3
a0805188:	00031080 	sll	v0,v1,0x2
a080518c:	00431023 	subu	v0,v0,v1
a0805190:	27c30010 	addiu	v1,s8,16
a0805194:	00621021 	addu	v0,v1,v0
a0805198:	a0400088 	sb	zero,136(v0)
a080519c:	8fc2001c 	lw	v0,28(s8)
a08051a0:	2442ffff 	addiu	v0,v0,-1
a08051a4:	afc2001c 	sw	v0,28(s8)
a08051a8:	08201503 	j	a080540c <do_cd+0x564>
a08051ac:	00000000 	nop
a08051b0:	afc00030 	sw	zero,48(s8)
a08051b4:	082014f7 	j	a08053dc <do_cd+0x534>
a08051b8:	00000000 	nop
a08051bc:	8fc30030 	lw	v1,48(s8)
a08051c0:	000317c3 	sra	v0,v1,0x1f
a08051c4:	00021682 	srl	v0,v0,0x1a
a08051c8:	00431021 	addu	v0,v0,v1
a08051cc:	00021183 	sra	v0,v0,0x6
a08051d0:	afc2002c 	sw	v0,44(s8)
a08051d4:	8fc30030 	lw	v1,48(s8)
a08051d8:	000317c3 	sra	v0,v1,0x1f
a08051dc:	00022682 	srl	a0,v0,0x1a
a08051e0:	00641021 	addu	v0,v1,a0
a08051e4:	3042003f 	andi	v0,v0,0x3f
a08051e8:	00441023 	subu	v0,v0,a0
a08051ec:	afc20028 	sw	v0,40(s8)
a08051f0:	8fc20028 	lw	v0,40(s8)
a08051f4:	14400010 	bnez	v0,a0805238 <do_cd+0x390>
a08051f8:	00000000 	nop
a08051fc:	3c02a081 	lui	v0,0xa081
a0805200:	244431f0 	addiu	a0,v0,12784
a0805204:	8fc2002c 	lw	v0,44(s8)
a0805208:	8fc30018 	lw	v1,24(s8)
a080520c:	24420006 	addiu	v0,v0,6
a0805210:	00021080 	sll	v0,v0,0x2
a0805214:	00621021 	addu	v0,v1,v0
a0805218:	8c420000 	lw	v0,0(v0)
a080521c:	00402821 	move	a1,v0
a0805220:	24061000 	li	a2,4096
a0805224:	0c203792 	jal	a080de48 <.pic.sdread>
a0805228:	00000000 	nop
a080522c:	3c02a081 	lui	v0,0xa081
a0805230:	244231f0 	addiu	v0,v0,12784
a0805234:	afc20014 	sw	v0,20(s8)
a0805238:	8fc20028 	lw	v0,40(s8)
a080523c:	00021940 	sll	v1,v0,0x5
a0805240:	8fc20014 	lw	v0,20(s8)
a0805244:	00431021 	addu	v0,v0,v1
a0805248:	8c430018 	lw	v1,24(v0)
a080524c:	24020002 	li	v0,2
a0805250:	1462005f 	bne	v1,v0,a08053d0 <do_cd+0x528>
a0805254:	00000000 	nop
a0805258:	8fc20028 	lw	v0,40(s8)
a080525c:	00021940 	sll	v1,v0,0x5
a0805260:	8fc20014 	lw	v0,20(s8)
a0805264:	00431021 	addu	v0,v0,v1
a0805268:	00402021 	move	a0,v0
a080526c:	27c50038 	addiu	a1,s8,56
a0805270:	8fc20024 	lw	v0,36(s8)
a0805274:	000218c0 	sll	v1,v0,0x3
a0805278:	00031080 	sll	v0,v1,0x2
a080527c:	00431023 	subu	v0,v0,v1
a0805280:	00a21021 	addu	v0,a1,v0
a0805284:	00402821 	move	a1,v0
a0805288:	0c202844 	jal	a080a110 <strcmp>
a080528c:	00000000 	nop
a0805290:	1440004f 	bnez	v0,a08053d0 <do_cd+0x528>
a0805294:	00000000 	nop
a0805298:	8fc20028 	lw	v0,40(s8)
a080529c:	00021940 	sll	v1,v0,0x5
a08052a0:	8fc20014 	lw	v0,20(s8)
a08052a4:	00431021 	addu	v0,v0,v1
a08052a8:	8c42001c 	lw	v0,28(v0)
a08052ac:	afc20020 	sw	v0,32(s8)
a08052b0:	8fc30020 	lw	v1,32(s8)
a08052b4:	000317c3 	sra	v0,v1,0x1f
a08052b8:	00021682 	srl	v0,v0,0x1a
a08052bc:	00431021 	addu	v0,v0,v1
a08052c0:	00021183 	sra	v0,v0,0x6
a08052c4:	00401821 	move	v1,v0
a08052c8:	24020001 	li	v0,1
a08052cc:	00621004 	sllv	v0,v0,v1
a08052d0:	00021fc3 	sra	v1,v0,0x1f
a08052d4:	00402021 	move	a0,v0
a08052d8:	00602821 	move	a1,v1
a08052dc:	3c02a081 	lui	v0,0xa081
a08052e0:	8c461400 	lw	a2,5120(v0)
a08052e4:	8c471404 	lw	a3,5124(v0)
a08052e8:	00861024 	and	v0,a0,a2
a08052ec:	00a71824 	and	v1,a1,a3
a08052f0:	00402021 	move	a0,v0
a08052f4:	00832025 	or	a0,a0,v1
a08052f8:	14800019 	bnez	a0,a0805360 <do_cd+0x4b8>
a08052fc:	00000000 	nop
a0805300:	8fc30020 	lw	v1,32(s8)
a0805304:	000317c3 	sra	v0,v1,0x1f
a0805308:	00021682 	srl	v0,v0,0x1a
a080530c:	00431021 	addu	v0,v0,v1
a0805310:	00021183 	sra	v0,v0,0x6
a0805314:	00021300 	sll	v0,v0,0xc
a0805318:	00401821 	move	v1,v0
a080531c:	3c02a0f0 	lui	v0,0xa0f0
a0805320:	34424600 	ori	v0,v0,0x4600
a0805324:	00621021 	addu	v0,v1,v0
a0805328:	00402021 	move	a0,v0
a080532c:	8fc30020 	lw	v1,32(s8)
a0805330:	000317c3 	sra	v0,v1,0x1f
a0805334:	00021682 	srl	v0,v0,0x1a
a0805338:	00431021 	addu	v0,v0,v1
a080533c:	00021183 	sra	v0,v0,0x6
a0805340:	00021b00 	sll	v1,v0,0xc
a0805344:	3c021000 	lui	v0,0x1000
a0805348:	34424400 	ori	v0,v0,0x4400
a080534c:	00621021 	addu	v0,v1,v0
a0805350:	00402821 	move	a1,v0
a0805354:	24061000 	li	a2,4096
a0805358:	0c203792 	jal	a080de48 <.pic.sdread>
a080535c:	00000000 	nop
a0805360:	3c02a081 	lui	v0,0xa081
a0805364:	8c4300f8 	lw	v1,248(v0)
a0805368:	8fc20020 	lw	v0,32(s8)
a080536c:	00021180 	sll	v0,v0,0x6
a0805370:	00621021 	addu	v0,v1,v0
a0805374:	afc20018 	sw	v0,24(s8)
a0805378:	8fc2001c 	lw	v0,28(s8)
a080537c:	24420001 	addiu	v0,v0,1
a0805380:	afc2001c 	sw	v0,28(s8)
a0805384:	27c40098 	addiu	a0,s8,152
a0805388:	8fc2001c 	lw	v0,28(s8)
a080538c:	000218c0 	sll	v1,v0,0x3
a0805390:	00031080 	sll	v0,v1,0x2
a0805394:	00431023 	subu	v0,v0,v1
a0805398:	00822021 	addu	a0,a0,v0
a080539c:	27c50038 	addiu	a1,s8,56
a08053a0:	8fc20024 	lw	v0,36(s8)
a08053a4:	000218c0 	sll	v1,v0,0x3
a08053a8:	00031080 	sll	v0,v1,0x2
a08053ac:	00431023 	subu	v0,v0,v1
a08053b0:	00a21021 	addu	v0,a1,v0
a08053b4:	00402821 	move	a1,v0
a08053b8:	0c20287a 	jal	a080a1e8 <strcpy>
a08053bc:	00000000 	nop
a08053c0:	24020001 	li	v0,1
a08053c4:	afc20010 	sw	v0,16(s8)
a08053c8:	082014fd 	j	a08053f4 <do_cd+0x54c>
a08053cc:	00000000 	nop
a08053d0:	8fc20030 	lw	v0,48(s8)
a08053d4:	24420001 	addiu	v0,v0,1
a08053d8:	afc20030 	sw	v0,48(s8)
a08053dc:	8fc30030 	lw	v1,48(s8)
a08053e0:	8fc20018 	lw	v0,24(s8)
a08053e4:	8c420014 	lw	v0,20(v0)
a08053e8:	0062102b 	sltu	v0,v1,v0
a08053ec:	1440ff73 	bnez	v0,a08051bc <do_cd+0x314>
a08053f0:	00000000 	nop
a08053f4:	8fc20010 	lw	v0,16(s8)
a08053f8:	14400004 	bnez	v0,a080540c <do_cd+0x564>
a08053fc:	00000000 	nop
a0805400:	afc000f8 	sw	zero,248(s8)
a0805404:	08201533 	j	a08054cc <do_cd+0x624>
a0805408:	00000000 	nop
a080540c:	8fc20024 	lw	v0,36(s8)
a0805410:	24420001 	addiu	v0,v0,1
a0805414:	afc20024 	sw	v0,36(s8)
a0805418:	8fc20034 	lw	v0,52(s8)
a080541c:	8fc30024 	lw	v1,36(s8)
a0805420:	0062102a 	slt	v0,v1,v0
a0805424:	1440fef3 	bnez	v0,a0804ff4 <do_cd+0x14c>
a0805428:	00000000 	nop
a080542c:	3c03a081 	lui	v1,0xa081
a0805430:	8fc20018 	lw	v0,24(s8)
a0805434:	ac6200f4 	sw	v0,244(v1)
a0805438:	8fc20028 	lw	v0,40(s8)
a080543c:	00021940 	sll	v1,v0,0x5
a0805440:	8fc20014 	lw	v0,20(s8)
a0805444:	00431821 	addu	v1,v0,v1
a0805448:	3c02a081 	lui	v0,0xa081
a080544c:	ac4300bc 	sw	v1,188(v0)
a0805450:	3c03a081 	lui	v1,0xa081
a0805454:	8fc2001c 	lw	v0,28(s8)
a0805458:	ac6200d0 	sw	v0,208(v1)
a080545c:	afc00024 	sw	zero,36(s8)
a0805460:	0820152d 	j	a08054b4 <do_cd+0x60c>
a0805464:	00000000 	nop
a0805468:	3c02a081 	lui	v0,0xa081
a080546c:	24442a70 	addiu	a0,v0,10864
a0805470:	8fc20024 	lw	v0,36(s8)
a0805474:	000218c0 	sll	v1,v0,0x3
a0805478:	00031080 	sll	v0,v1,0x2
a080547c:	00431023 	subu	v0,v0,v1
a0805480:	00822021 	addu	a0,a0,v0
a0805484:	27c50098 	addiu	a1,s8,152
a0805488:	8fc20024 	lw	v0,36(s8)
a080548c:	000218c0 	sll	v1,v0,0x3
a0805490:	00031080 	sll	v0,v1,0x2
a0805494:	00431023 	subu	v0,v0,v1
a0805498:	00a21021 	addu	v0,a1,v0
a080549c:	00402821 	move	a1,v0
a08054a0:	0c20287a 	jal	a080a1e8 <strcpy>
a08054a4:	00000000 	nop
a08054a8:	8fc20024 	lw	v0,36(s8)
a08054ac:	24420001 	addiu	v0,v0,1
a08054b0:	afc20024 	sw	v0,36(s8)
a08054b4:	8fc20024 	lw	v0,36(s8)
a08054b8:	28420004 	slti	v0,v0,4
a08054bc:	1440ffea 	bnez	v0,a0805468 <do_cd+0x5c0>
a08054c0:	00000000 	nop
a08054c4:	24020001 	li	v0,1
a08054c8:	afc200f8 	sw	v0,248(s8)
a08054cc:	8fc200f8 	lw	v0,248(s8)
a08054d0:	afc20104 	sw	v0,260(s8)
a08054d4:	8fc20104 	lw	v0,260(s8)
a08054d8:	03c0e821 	move	sp,s8
a08054dc:	8fbf010c 	lw	ra,268(sp)
a08054e0:	8fbe0108 	lw	s8,264(sp)
a08054e4:	27bd0110 	addiu	sp,sp,272
a08054e8:	03e00008 	jr	ra
a08054ec:	00000000 	nop

a08054f0 <do_statfs>:
a08054f0:	27bdffd0 	addiu	sp,sp,-48
a08054f4:	afbf002c 	sw	ra,44(sp)
a08054f8:	afbe0028 	sw	s8,40(sp)
a08054fc:	03a0f021 	move	s8,sp
a0805500:	3c02a081 	lui	v0,0xa081
a0805504:	8c4200c4 	lw	v0,196(v0)
a0805508:	8c430000 	lw	v1,0(v0)
a080550c:	3c024649 	lui	v0,0x4649
a0805510:	34424c45 	ori	v0,v0,0x4c45
a0805514:	10620007 	beq	v1,v0,a0805534 <do_statfs+0x44>
a0805518:	00000000 	nop
a080551c:	3c02a081 	lui	v0,0xa081
a0805520:	2444e998 	addiu	a0,v0,-5736
a0805524:	0c202b4d 	jal	a080ad34 <my_printk>
a0805528:	00000000 	nop
a080552c:	0820160c 	j	a0805830 <do_statfs+0x340>
a0805530:	00000000 	nop
a0805534:	afc0001c 	sw	zero,28(s8)
a0805538:	afc00018 	sw	zero,24(s8)
a080553c:	afc00024 	sw	zero,36(s8)
a0805540:	0820156b 	j	a08055ac <do_statfs+0xbc>
a0805544:	00000000 	nop
a0805548:	afc00020 	sw	zero,32(s8)
a080554c:	08201564 	j	a0805590 <do_statfs+0xa0>
a0805550:	00000000 	nop
a0805554:	3c02a081 	lui	v0,0xa081
a0805558:	8c4300e0 	lw	v1,224(v0)
a080555c:	8fc20024 	lw	v0,36(s8)
a0805560:	00621021 	addu	v0,v1,v0
a0805564:	90420000 	lbu	v0,0(v0)
a0805568:	00401821 	move	v1,v0
a080556c:	8fc20020 	lw	v0,32(s8)
a0805570:	00431007 	srav	v0,v1,v0
a0805574:	30430001 	andi	v1,v0,0x1
a0805578:	8fc2001c 	lw	v0,28(s8)
a080557c:	00431021 	addu	v0,v0,v1
a0805580:	afc2001c 	sw	v0,28(s8)
a0805584:	8fc20020 	lw	v0,32(s8)
a0805588:	24420001 	addiu	v0,v0,1
a080558c:	afc20020 	sw	v0,32(s8)
a0805590:	8fc20020 	lw	v0,32(s8)
a0805594:	28420008 	slti	v0,v0,8
a0805598:	1440ffee 	bnez	v0,a0805554 <do_statfs+0x64>
a080559c:	00000000 	nop
a08055a0:	8fc20024 	lw	v0,36(s8)
a08055a4:	24420001 	addiu	v0,v0,1
a08055a8:	afc20024 	sw	v0,36(s8)
a08055ac:	8fc30024 	lw	v1,36(s8)
a08055b0:	3c02a081 	lui	v0,0xa081
a08055b4:	8c4200c4 	lw	v0,196(v0)
a08055b8:	8c42002c 	lw	v0,44(v0)
a08055bc:	00021242 	srl	v0,v0,0x9
a08055c0:	0062102b 	sltu	v0,v1,v0
a08055c4:	1440ffe0 	bnez	v0,a0805548 <do_statfs+0x58>
a08055c8:	00000000 	nop
a08055cc:	08201595 	j	a0805654 <do_statfs+0x164>
a08055d0:	00000000 	nop
a08055d4:	3c02a081 	lui	v0,0xa081
a08055d8:	8c4300e0 	lw	v1,224(v0)
a08055dc:	8fc20024 	lw	v0,36(s8)
a08055e0:	00621021 	addu	v0,v1,v0
a08055e4:	90420000 	lbu	v0,0(v0)
a08055e8:	1040001e 	beqz	v0,a0805664 <do_statfs+0x174>
a08055ec:	00000000 	nop
a08055f0:	afc00020 	sw	zero,32(s8)
a08055f4:	0820158e 	j	a0805638 <do_statfs+0x148>
a08055f8:	00000000 	nop
a08055fc:	3c02a081 	lui	v0,0xa081
a0805600:	8c4300e0 	lw	v1,224(v0)
a0805604:	8fc20024 	lw	v0,36(s8)
a0805608:	00621021 	addu	v0,v1,v0
a080560c:	90420000 	lbu	v0,0(v0)
a0805610:	00401821 	move	v1,v0
a0805614:	8fc20020 	lw	v0,32(s8)
a0805618:	00431007 	srav	v0,v1,v0
a080561c:	30430001 	andi	v1,v0,0x1
a0805620:	8fc2001c 	lw	v0,28(s8)
a0805624:	00431021 	addu	v0,v0,v1
a0805628:	afc2001c 	sw	v0,28(s8)
a080562c:	8fc20020 	lw	v0,32(s8)
a0805630:	24420001 	addiu	v0,v0,1
a0805634:	afc20020 	sw	v0,32(s8)
a0805638:	8fc20020 	lw	v0,32(s8)
a080563c:	28420008 	slti	v0,v0,8
a0805640:	1440ffee 	bnez	v0,a08055fc <do_statfs+0x10c>
a0805644:	00000000 	nop
a0805648:	8fc20024 	lw	v0,36(s8)
a080564c:	24420001 	addiu	v0,v0,1
a0805650:	afc20024 	sw	v0,36(s8)
a0805654:	8fc20024 	lw	v0,36(s8)
a0805658:	28424000 	slti	v0,v0,16384
a080565c:	1440ffdd 	bnez	v0,a08055d4 <do_statfs+0xe4>
a0805660:	00000000 	nop
a0805664:	afc00024 	sw	zero,36(s8)
a0805668:	082015b5 	j	a08056d4 <do_statfs+0x1e4>
a080566c:	00000000 	nop
a0805670:	afc00020 	sw	zero,32(s8)
a0805674:	082015ae 	j	a08056b8 <do_statfs+0x1c8>
a0805678:	00000000 	nop
a080567c:	3c02a081 	lui	v0,0xa081
a0805680:	8c4300fc 	lw	v1,252(v0)
a0805684:	8fc20024 	lw	v0,36(s8)
a0805688:	00621021 	addu	v0,v1,v0
a080568c:	90420000 	lbu	v0,0(v0)
a0805690:	00401821 	move	v1,v0
a0805694:	8fc20020 	lw	v0,32(s8)
a0805698:	00431007 	srav	v0,v1,v0
a080569c:	30430001 	andi	v1,v0,0x1
a08056a0:	8fc20018 	lw	v0,24(s8)
a08056a4:	00431021 	addu	v0,v0,v1
a08056a8:	afc20018 	sw	v0,24(s8)
a08056ac:	8fc20020 	lw	v0,32(s8)
a08056b0:	24420001 	addiu	v0,v0,1
a08056b4:	afc20020 	sw	v0,32(s8)
a08056b8:	8fc20020 	lw	v0,32(s8)
a08056bc:	28420008 	slti	v0,v0,8
a08056c0:	1440ffee 	bnez	v0,a080567c <do_statfs+0x18c>
a08056c4:	00000000 	nop
a08056c8:	8fc20024 	lw	v0,36(s8)
a08056cc:	24420001 	addiu	v0,v0,1
a08056d0:	afc20024 	sw	v0,36(s8)
a08056d4:	8fc30024 	lw	v1,36(s8)
a08056d8:	3c02a081 	lui	v0,0xa081
a08056dc:	8c4200c4 	lw	v0,196(v0)
a08056e0:	8c42002c 	lw	v0,44(v0)
a08056e4:	000210c2 	srl	v0,v0,0x3
a08056e8:	0062102b 	sltu	v0,v1,v0
a08056ec:	1440ffe0 	bnez	v0,a0805670 <do_statfs+0x180>
a08056f0:	00000000 	nop
a08056f4:	3c02a081 	lui	v0,0xa081
a08056f8:	8c4200c4 	lw	v0,196(v0)
a08056fc:	8c430000 	lw	v1,0(v0)
a0805700:	3c02a081 	lui	v0,0xa081
a0805704:	2444e9b4 	addiu	a0,v0,-5708
a0805708:	00602821 	move	a1,v1
a080570c:	0c202b4d 	jal	a080ad34 <my_printk>
a0805710:	00000000 	nop
a0805714:	3c02a081 	lui	v0,0xa081
a0805718:	8c4200c4 	lw	v0,196(v0)
a080571c:	8c430008 	lw	v1,8(v0)
a0805720:	3c02a081 	lui	v0,0xa081
a0805724:	8c4200c4 	lw	v0,196(v0)
a0805728:	8c460008 	lw	a2,8(v0)
a080572c:	3c02a081 	lui	v0,0xa081
a0805730:	8c4200c4 	lw	v0,196(v0)
a0805734:	8c420038 	lw	v0,56(v0)
a0805738:	afa20010 	sw	v0,16(sp)
a080573c:	3c02a081 	lui	v0,0xa081
a0805740:	2444e9d0 	addiu	a0,v0,-5680
a0805744:	00602821 	move	a1,v1
a0805748:	8fc7001c 	lw	a3,28(s8)
a080574c:	0c202b4d 	jal	a080ad34 <my_printk>
a0805750:	00000000 	nop
a0805754:	3c02a081 	lui	v0,0xa081
a0805758:	8c4200c4 	lw	v0,196(v0)
a080575c:	8c450010 	lw	a1,16(v0)
a0805760:	3c02a081 	lui	v0,0xa081
a0805764:	8c4200c4 	lw	v0,196(v0)
a0805768:	8c420038 	lw	v0,56(v0)
a080576c:	00021bc2 	srl	v1,v0,0xf
a0805770:	3c02a081 	lui	v0,0xa081
a0805774:	2444e9fc 	addiu	a0,v0,-5636
a0805778:	00603021 	move	a2,v1
a080577c:	0c202b4d 	jal	a080ad34 <my_printk>
a0805780:	00000000 	nop
a0805784:	3c02a081 	lui	v0,0xa081
a0805788:	8c4200c4 	lw	v0,196(v0)
a080578c:	8c45001c 	lw	a1,28(v0)
a0805790:	3c02a081 	lui	v0,0xa081
a0805794:	8c4200c4 	lw	v0,196(v0)
a0805798:	8c420020 	lw	v0,32(v0)
a080579c:	00021b02 	srl	v1,v0,0xc
a08057a0:	3c02a081 	lui	v0,0xa081
a08057a4:	2444ea28 	addiu	a0,v0,-5592
a08057a8:	00603021 	move	a2,v1
a08057ac:	8fc70018 	lw	a3,24(s8)
a08057b0:	0c202b4d 	jal	a080ad34 <my_printk>
a08057b4:	00000000 	nop
a08057b8:	3c02a081 	lui	v0,0xa081
a08057bc:	8c4200c4 	lw	v0,196(v0)
a08057c0:	8c450028 	lw	a1,40(v0)
a08057c4:	3c02a081 	lui	v0,0xa081
a08057c8:	8c4200c4 	lw	v0,196(v0)
a08057cc:	8c42002c 	lw	v0,44(v0)
a08057d0:	00021982 	srl	v1,v0,0x6
a08057d4:	3c02a081 	lui	v0,0xa081
a08057d8:	2444ea60 	addiu	a0,v0,-5536
a08057dc:	00603021 	move	a2,v1
a08057e0:	0c202b4d 	jal	a080ad34 <my_printk>
a08057e4:	00000000 	nop
a08057e8:	3c02a081 	lui	v0,0xa081
a08057ec:	8c4200c4 	lw	v0,196(v0)
a08057f0:	8c450034 	lw	a1,52(v0)
a08057f4:	3c02a081 	lui	v0,0xa081
a08057f8:	8c4200c4 	lw	v0,196(v0)
a08057fc:	8c430038 	lw	v1,56(v0)
a0805800:	3c02a081 	lui	v0,0xa081
a0805804:	2444ea88 	addiu	a0,v0,-5496
a0805808:	00603021 	move	a2,v1
a080580c:	0c202b4d 	jal	a080ad34 <my_printk>
a0805810:	00000000 	nop
a0805814:	3c02a081 	lui	v0,0xa081
a0805818:	2444eab0 	addiu	a0,v0,-5456
a080581c:	24050020 	li	a1,32
a0805820:	0c202b4d 	jal	a080ad34 <my_printk>
a0805824:	00000000 	nop
a0805828:	0c200462 	jal	a0801188 <screen_reflush>
a080582c:	00000000 	nop
a0805830:	03c0e821 	move	sp,s8
a0805834:	8fbf002c 	lw	ra,44(sp)
a0805838:	8fbe0028 	lw	s8,40(sp)
a080583c:	27bd0030 	addiu	sp,sp,48
a0805840:	03e00008 	jr	ra
a0805844:	00000000 	nop

a0805848 <do_ls>:
a0805848:	27bdff50 	addiu	sp,sp,-176
a080584c:	afbf00ac 	sw	ra,172(sp)
a0805850:	afbe00a8 	sw	s8,168(sp)
a0805854:	03a0f021 	move	s8,sp
a0805858:	afc400b0 	sw	a0,176(s8)
a080585c:	3c02a081 	lui	v0,0xa081
a0805860:	8c4200c4 	lw	v0,196(v0)
a0805864:	8c430000 	lw	v1,0(v0)
a0805868:	3c024649 	lui	v0,0x4649
a080586c:	34424c45 	ori	v0,v0,0x4c45
a0805870:	10620009 	beq	v1,v0,a0805898 <do_ls+0x50>
a0805874:	00000000 	nop
a0805878:	3c02a081 	lui	v0,0xa081
a080587c:	2444e998 	addiu	a0,v0,-5736
a0805880:	0c202b4d 	jal	a080ad34 <my_printk>
a0805884:	00000000 	nop
a0805888:	2402ffff 	li	v0,-1
a080588c:	afc200a0 	sw	v0,160(s8)
a0805890:	08201782 	j	a0805e08 <do_ls+0x5c0>
a0805894:	00000000 	nop
a0805898:	8fc200b0 	lw	v0,176(s8)
a080589c:	80430000 	lb	v1,0(v0)
a08058a0:	2402002f 	li	v0,47
a08058a4:	10620006 	beq	v1,v0,a08058c0 <do_ls+0x78>
a08058a8:	00000000 	nop
a08058ac:	3c02a081 	lui	v0,0xa081
a08058b0:	8c4200d0 	lw	v0,208(v0)
a08058b4:	afc2009c 	sw	v0,156(s8)
a08058b8:	08201632 	j	a08058c8 <do_ls+0x80>
a08058bc:	00000000 	nop
a08058c0:	2402ffff 	li	v0,-1
a08058c4:	afc2009c 	sw	v0,156(s8)
a08058c8:	8fc2009c 	lw	v0,156(s8)
a08058cc:	afc2001c 	sw	v0,28(s8)
a08058d0:	8fc200b0 	lw	v0,176(s8)
a08058d4:	80430000 	lb	v1,0(v0)
a08058d8:	2402002f 	li	v0,47
a08058dc:	14620006 	bne	v1,v0,a08058f8 <do_ls+0xb0>
a08058e0:	00000000 	nop
a08058e4:	3c02a081 	lui	v0,0xa081
a08058e8:	8c4200f8 	lw	v0,248(v0)
a08058ec:	afc20098 	sw	v0,152(s8)
a08058f0:	08201641 	j	a0805904 <do_ls+0xbc>
a08058f4:	00000000 	nop
a08058f8:	3c02a081 	lui	v0,0xa081
a08058fc:	8c4200f4 	lw	v0,244(v0)
a0805900:	afc20098 	sw	v0,152(s8)
a0805904:	8fc20098 	lw	v0,152(s8)
a0805908:	afc20018 	sw	v0,24(s8)
a080590c:	27c20034 	addiu	v0,s8,52
a0805910:	27c30038 	addiu	v1,s8,56
a0805914:	00402021 	move	a0,v0
a0805918:	00602821 	move	a1,v1
a080591c:	8fc600b0 	lw	a2,176(s8)
a0805920:	0c20133a 	jal	a0804ce8 <split>
a0805924:	00000000 	nop
a0805928:	afc00024 	sw	zero,36(s8)
a080592c:	08201740 	j	a0805d00 <do_ls+0x4b8>
a0805930:	00000000 	nop
a0805934:	afc00010 	sw	zero,16(s8)
a0805938:	27c40038 	addiu	a0,s8,56
a080593c:	8fc20024 	lw	v0,36(s8)
a0805940:	000218c0 	sll	v1,v0,0x3
a0805944:	00031080 	sll	v0,v1,0x2
a0805948:	00431023 	subu	v0,v0,v1
a080594c:	00821021 	addu	v0,a0,v0
a0805950:	00402021 	move	a0,v0
a0805954:	3c02a081 	lui	v0,0xa081
a0805958:	2445e870 	addiu	a1,v0,-6032
a080595c:	0c202844 	jal	a080a110 <strcmp>
a0805960:	00000000 	nop
a0805964:	104000e3 	beqz	v0,a0805cf4 <do_ls+0x4ac>
a0805968:	00000000 	nop
a080596c:	27c40038 	addiu	a0,s8,56
a0805970:	8fc20024 	lw	v0,36(s8)
a0805974:	000218c0 	sll	v1,v0,0x3
a0805978:	00031080 	sll	v0,v1,0x2
a080597c:	00431023 	subu	v0,v0,v1
a0805980:	00821021 	addu	v0,a0,v0
a0805984:	00402021 	move	a0,v0
a0805988:	3c02a081 	lui	v0,0xa081
a080598c:	2445e874 	addiu	a1,v0,-6028
a0805990:	0c202844 	jal	a080a110 <strcmp>
a0805994:	00000000 	nop
a0805998:	1440004e 	bnez	v0,a0805ad4 <do_ls+0x28c>
a080599c:	00000000 	nop
a08059a0:	8fc2001c 	lw	v0,28(s8)
a08059a4:	04410004 	bgez	v0,a08059b8 <do_ls+0x170>
a08059a8:	00000000 	nop
a08059ac:	afc000a0 	sw	zero,160(s8)
a08059b0:	08201782 	j	a0805e08 <do_ls+0x5c0>
a08059b4:	00000000 	nop
a08059b8:	3c02a081 	lui	v0,0xa081
a08059bc:	244331f0 	addiu	v1,v0,12784
a08059c0:	8fc20018 	lw	v0,24(s8)
a08059c4:	8c420018 	lw	v0,24(v0)
a08059c8:	00602021 	move	a0,v1
a08059cc:	00402821 	move	a1,v0
a08059d0:	24061000 	li	a2,4096
a08059d4:	0c203792 	jal	a080de48 <.pic.sdread>
a08059d8:	00000000 	nop
a08059dc:	3c02a081 	lui	v0,0xa081
a08059e0:	244231f0 	addiu	v0,v0,12784
a08059e4:	afc20014 	sw	v0,20(s8)
a08059e8:	8fc20014 	lw	v0,20(s8)
a08059ec:	24420020 	addiu	v0,v0,32
a08059f0:	8c42001c 	lw	v0,28(v0)
a08059f4:	afc20020 	sw	v0,32(s8)
a08059f8:	8fc30020 	lw	v1,32(s8)
a08059fc:	000317c3 	sra	v0,v1,0x1f
a0805a00:	00021682 	srl	v0,v0,0x1a
a0805a04:	00431021 	addu	v0,v0,v1
a0805a08:	00021183 	sra	v0,v0,0x6
a0805a0c:	00401821 	move	v1,v0
a0805a10:	24020001 	li	v0,1
a0805a14:	00621004 	sllv	v0,v0,v1
a0805a18:	00021fc3 	sra	v1,v0,0x1f
a0805a1c:	00402021 	move	a0,v0
a0805a20:	00602821 	move	a1,v1
a0805a24:	3c02a081 	lui	v0,0xa081
a0805a28:	8c461400 	lw	a2,5120(v0)
a0805a2c:	8c471404 	lw	a3,5124(v0)
a0805a30:	00861024 	and	v0,a0,a2
a0805a34:	00a71824 	and	v1,a1,a3
a0805a38:	00402021 	move	a0,v0
a0805a3c:	00832025 	or	a0,a0,v1
a0805a40:	14800019 	bnez	a0,a0805aa8 <do_ls+0x260>
a0805a44:	00000000 	nop
a0805a48:	8fc30020 	lw	v1,32(s8)
a0805a4c:	000317c3 	sra	v0,v1,0x1f
a0805a50:	00021682 	srl	v0,v0,0x1a
a0805a54:	00431021 	addu	v0,v0,v1
a0805a58:	00021183 	sra	v0,v0,0x6
a0805a5c:	00021300 	sll	v0,v0,0xc
a0805a60:	00401821 	move	v1,v0
a0805a64:	3c02a0f0 	lui	v0,0xa0f0
a0805a68:	34424600 	ori	v0,v0,0x4600
a0805a6c:	00621021 	addu	v0,v1,v0
a0805a70:	00402021 	move	a0,v0
a0805a74:	8fc30020 	lw	v1,32(s8)
a0805a78:	000317c3 	sra	v0,v1,0x1f
a0805a7c:	00021682 	srl	v0,v0,0x1a
a0805a80:	00431021 	addu	v0,v0,v1
a0805a84:	00021183 	sra	v0,v0,0x6
a0805a88:	00021b00 	sll	v1,v0,0xc
a0805a8c:	3c021000 	lui	v0,0x1000
a0805a90:	34424400 	ori	v0,v0,0x4400
a0805a94:	00621021 	addu	v0,v1,v0
a0805a98:	00402821 	move	a1,v0
a0805a9c:	24061000 	li	a2,4096
a0805aa0:	0c203792 	jal	a080de48 <.pic.sdread>
a0805aa4:	00000000 	nop
a0805aa8:	3c02a081 	lui	v0,0xa081
a0805aac:	8c4300f8 	lw	v1,248(v0)
a0805ab0:	8fc20020 	lw	v0,32(s8)
a0805ab4:	00021180 	sll	v0,v0,0x6
a0805ab8:	00621021 	addu	v0,v1,v0
a0805abc:	afc20018 	sw	v0,24(s8)
a0805ac0:	8fc2001c 	lw	v0,28(s8)
a0805ac4:	2442ffff 	addiu	v0,v0,-1
a0805ac8:	afc2001c 	sw	v0,28(s8)
a0805acc:	0820173d 	j	a0805cf4 <do_ls+0x4ac>
a0805ad0:	00000000 	nop
a0805ad4:	afc00030 	sw	zero,48(s8)
a0805ad8:	08201731 	j	a0805cc4 <do_ls+0x47c>
a0805adc:	00000000 	nop
a0805ae0:	8fc30030 	lw	v1,48(s8)
a0805ae4:	000317c3 	sra	v0,v1,0x1f
a0805ae8:	00021682 	srl	v0,v0,0x1a
a0805aec:	00431021 	addu	v0,v0,v1
a0805af0:	00021183 	sra	v0,v0,0x6
a0805af4:	afc2002c 	sw	v0,44(s8)
a0805af8:	8fc30030 	lw	v1,48(s8)
a0805afc:	000317c3 	sra	v0,v1,0x1f
a0805b00:	00022682 	srl	a0,v0,0x1a
a0805b04:	00641021 	addu	v0,v1,a0
a0805b08:	3042003f 	andi	v0,v0,0x3f
a0805b0c:	00441023 	subu	v0,v0,a0
a0805b10:	afc20028 	sw	v0,40(s8)
a0805b14:	8fc20028 	lw	v0,40(s8)
a0805b18:	14400010 	bnez	v0,a0805b5c <do_ls+0x314>
a0805b1c:	00000000 	nop
a0805b20:	3c02a081 	lui	v0,0xa081
a0805b24:	244431f0 	addiu	a0,v0,12784
a0805b28:	8fc2002c 	lw	v0,44(s8)
a0805b2c:	8fc30018 	lw	v1,24(s8)
a0805b30:	24420006 	addiu	v0,v0,6
a0805b34:	00021080 	sll	v0,v0,0x2
a0805b38:	00621021 	addu	v0,v1,v0
a0805b3c:	8c420000 	lw	v0,0(v0)
a0805b40:	00402821 	move	a1,v0
a0805b44:	24061000 	li	a2,4096
a0805b48:	0c203792 	jal	a080de48 <.pic.sdread>
a0805b4c:	00000000 	nop
a0805b50:	3c02a081 	lui	v0,0xa081
a0805b54:	244231f0 	addiu	v0,v0,12784
a0805b58:	afc20014 	sw	v0,20(s8)
a0805b5c:	8fc20028 	lw	v0,40(s8)
a0805b60:	00021940 	sll	v1,v0,0x5
a0805b64:	8fc20014 	lw	v0,20(s8)
a0805b68:	00431021 	addu	v0,v0,v1
a0805b6c:	8c430018 	lw	v1,24(v0)
a0805b70:	24020002 	li	v0,2
a0805b74:	14620050 	bne	v1,v0,a0805cb8 <do_ls+0x470>
a0805b78:	00000000 	nop
a0805b7c:	8fc20028 	lw	v0,40(s8)
a0805b80:	00021940 	sll	v1,v0,0x5
a0805b84:	8fc20014 	lw	v0,20(s8)
a0805b88:	00431021 	addu	v0,v0,v1
a0805b8c:	00402021 	move	a0,v0
a0805b90:	27c50038 	addiu	a1,s8,56
a0805b94:	8fc20024 	lw	v0,36(s8)
a0805b98:	000218c0 	sll	v1,v0,0x3
a0805b9c:	00031080 	sll	v0,v1,0x2
a0805ba0:	00431023 	subu	v0,v0,v1
a0805ba4:	00a21021 	addu	v0,a1,v0
a0805ba8:	00402821 	move	a1,v0
a0805bac:	0c202844 	jal	a080a110 <strcmp>
a0805bb0:	00000000 	nop
a0805bb4:	14400040 	bnez	v0,a0805cb8 <do_ls+0x470>
a0805bb8:	00000000 	nop
a0805bbc:	8fc20028 	lw	v0,40(s8)
a0805bc0:	00021940 	sll	v1,v0,0x5
a0805bc4:	8fc20014 	lw	v0,20(s8)
a0805bc8:	00431021 	addu	v0,v0,v1
a0805bcc:	8c42001c 	lw	v0,28(v0)
a0805bd0:	afc20020 	sw	v0,32(s8)
a0805bd4:	8fc30020 	lw	v1,32(s8)
a0805bd8:	000317c3 	sra	v0,v1,0x1f
a0805bdc:	00021682 	srl	v0,v0,0x1a
a0805be0:	00431021 	addu	v0,v0,v1
a0805be4:	00021183 	sra	v0,v0,0x6
a0805be8:	00401821 	move	v1,v0
a0805bec:	24020001 	li	v0,1
a0805bf0:	00621004 	sllv	v0,v0,v1
a0805bf4:	00021fc3 	sra	v1,v0,0x1f
a0805bf8:	00402021 	move	a0,v0
a0805bfc:	00602821 	move	a1,v1
a0805c00:	3c02a081 	lui	v0,0xa081
a0805c04:	8c461400 	lw	a2,5120(v0)
a0805c08:	8c471404 	lw	a3,5124(v0)
a0805c0c:	00861024 	and	v0,a0,a2
a0805c10:	00a71824 	and	v1,a1,a3
a0805c14:	00402021 	move	a0,v0
a0805c18:	00832025 	or	a0,a0,v1
a0805c1c:	14800019 	bnez	a0,a0805c84 <do_ls+0x43c>
a0805c20:	00000000 	nop
a0805c24:	8fc30020 	lw	v1,32(s8)
a0805c28:	000317c3 	sra	v0,v1,0x1f
a0805c2c:	00021682 	srl	v0,v0,0x1a
a0805c30:	00431021 	addu	v0,v0,v1
a0805c34:	00021183 	sra	v0,v0,0x6
a0805c38:	00021300 	sll	v0,v0,0xc
a0805c3c:	00401821 	move	v1,v0
a0805c40:	3c02a0f0 	lui	v0,0xa0f0
a0805c44:	34424600 	ori	v0,v0,0x4600
a0805c48:	00621021 	addu	v0,v1,v0
a0805c4c:	00402021 	move	a0,v0
a0805c50:	8fc30020 	lw	v1,32(s8)
a0805c54:	000317c3 	sra	v0,v1,0x1f
a0805c58:	00021682 	srl	v0,v0,0x1a
a0805c5c:	00431021 	addu	v0,v0,v1
a0805c60:	00021183 	sra	v0,v0,0x6
a0805c64:	00021b00 	sll	v1,v0,0xc
a0805c68:	3c021000 	lui	v0,0x1000
a0805c6c:	34424400 	ori	v0,v0,0x4400
a0805c70:	00621021 	addu	v0,v1,v0
a0805c74:	00402821 	move	a1,v0
a0805c78:	24061000 	li	a2,4096
a0805c7c:	0c203792 	jal	a080de48 <.pic.sdread>
a0805c80:	00000000 	nop
a0805c84:	3c02a081 	lui	v0,0xa081
a0805c88:	8c4300f8 	lw	v1,248(v0)
a0805c8c:	8fc20020 	lw	v0,32(s8)
a0805c90:	00021180 	sll	v0,v0,0x6
a0805c94:	00621021 	addu	v0,v1,v0
a0805c98:	afc20018 	sw	v0,24(s8)
a0805c9c:	8fc2001c 	lw	v0,28(s8)
a0805ca0:	24420001 	addiu	v0,v0,1
a0805ca4:	afc2001c 	sw	v0,28(s8)
a0805ca8:	24020001 	li	v0,1
a0805cac:	afc20010 	sw	v0,16(s8)
a0805cb0:	08201737 	j	a0805cdc <do_ls+0x494>
a0805cb4:	00000000 	nop
a0805cb8:	8fc20030 	lw	v0,48(s8)
a0805cbc:	24420001 	addiu	v0,v0,1
a0805cc0:	afc20030 	sw	v0,48(s8)
a0805cc4:	8fc30030 	lw	v1,48(s8)
a0805cc8:	8fc20018 	lw	v0,24(s8)
a0805ccc:	8c420014 	lw	v0,20(v0)
a0805cd0:	0062102b 	sltu	v0,v1,v0
a0805cd4:	1440ff82 	bnez	v0,a0805ae0 <do_ls+0x298>
a0805cd8:	00000000 	nop
a0805cdc:	8fc20010 	lw	v0,16(s8)
a0805ce0:	14400004 	bnez	v0,a0805cf4 <do_ls+0x4ac>
a0805ce4:	00000000 	nop
a0805ce8:	afc000a0 	sw	zero,160(s8)
a0805cec:	08201782 	j	a0805e08 <do_ls+0x5c0>
a0805cf0:	00000000 	nop
a0805cf4:	8fc20024 	lw	v0,36(s8)
a0805cf8:	24420001 	addiu	v0,v0,1
a0805cfc:	afc20024 	sw	v0,36(s8)
a0805d00:	8fc20034 	lw	v0,52(s8)
a0805d04:	8fc30024 	lw	v1,36(s8)
a0805d08:	0062102a 	slt	v0,v1,v0
a0805d0c:	1440ff09 	bnez	v0,a0805934 <do_ls+0xec>
a0805d10:	00000000 	nop
a0805d14:	afc00030 	sw	zero,48(s8)
a0805d18:	08201774 	j	a0805dd0 <do_ls+0x588>
a0805d1c:	00000000 	nop
a0805d20:	8fc30030 	lw	v1,48(s8)
a0805d24:	000317c3 	sra	v0,v1,0x1f
a0805d28:	00021682 	srl	v0,v0,0x1a
a0805d2c:	00431021 	addu	v0,v0,v1
a0805d30:	00021183 	sra	v0,v0,0x6
a0805d34:	afc2002c 	sw	v0,44(s8)
a0805d38:	8fc30030 	lw	v1,48(s8)
a0805d3c:	000317c3 	sra	v0,v1,0x1f
a0805d40:	00022682 	srl	a0,v0,0x1a
a0805d44:	00641021 	addu	v0,v1,a0
a0805d48:	3042003f 	andi	v0,v0,0x3f
a0805d4c:	00441023 	subu	v0,v0,a0
a0805d50:	afc20028 	sw	v0,40(s8)
a0805d54:	8fc20028 	lw	v0,40(s8)
a0805d58:	14400010 	bnez	v0,a0805d9c <do_ls+0x554>
a0805d5c:	00000000 	nop
a0805d60:	3c02a081 	lui	v0,0xa081
a0805d64:	244431f0 	addiu	a0,v0,12784
a0805d68:	8fc2002c 	lw	v0,44(s8)
a0805d6c:	8fc30018 	lw	v1,24(s8)
a0805d70:	24420006 	addiu	v0,v0,6
a0805d74:	00021080 	sll	v0,v0,0x2
a0805d78:	00621021 	addu	v0,v1,v0
a0805d7c:	8c420000 	lw	v0,0(v0)
a0805d80:	00402821 	move	a1,v0
a0805d84:	24061000 	li	a2,4096
a0805d88:	0c203792 	jal	a080de48 <.pic.sdread>
a0805d8c:	00000000 	nop
a0805d90:	3c02a081 	lui	v0,0xa081
a0805d94:	244231f0 	addiu	v0,v0,12784
a0805d98:	afc20014 	sw	v0,20(s8)
a0805d9c:	8fc20028 	lw	v0,40(s8)
a0805da0:	00021940 	sll	v1,v0,0x5
a0805da4:	8fc20014 	lw	v0,20(s8)
a0805da8:	00431021 	addu	v0,v0,v1
a0805dac:	00401821 	move	v1,v0
a0805db0:	3c02a081 	lui	v0,0xa081
a0805db4:	2444eac4 	addiu	a0,v0,-5436
a0805db8:	00602821 	move	a1,v1
a0805dbc:	0c202b4d 	jal	a080ad34 <my_printk>
a0805dc0:	00000000 	nop
a0805dc4:	8fc20030 	lw	v0,48(s8)
a0805dc8:	24420001 	addiu	v0,v0,1
a0805dcc:	afc20030 	sw	v0,48(s8)
a0805dd0:	8fc30030 	lw	v1,48(s8)
a0805dd4:	8fc20018 	lw	v0,24(s8)
a0805dd8:	8c420014 	lw	v0,20(v0)
a0805ddc:	0062102b 	sltu	v0,v1,v0
a0805de0:	1440ffcf 	bnez	v0,a0805d20 <do_ls+0x4d8>
a0805de4:	00000000 	nop
a0805de8:	3c02a081 	lui	v0,0xa081
a0805dec:	2444eac8 	addiu	a0,v0,-5432
a0805df0:	0c202b4d 	jal	a080ad34 <my_printk>
a0805df4:	00000000 	nop
a0805df8:	0c200462 	jal	a0801188 <screen_reflush>
a0805dfc:	00000000 	nop
a0805e00:	24020001 	li	v0,1
a0805e04:	afc200a0 	sw	v0,160(s8)
a0805e08:	8fc200a0 	lw	v0,160(s8)
a0805e0c:	03c0e821 	move	sp,s8
a0805e10:	8fbf00ac 	lw	ra,172(sp)
a0805e14:	8fbe00a8 	lw	s8,168(sp)
a0805e18:	27bd00b0 	addiu	sp,sp,176
a0805e1c:	03e00008 	jr	ra
a0805e20:	00000000 	nop

a0805e24 <do_touch>:
a0805e24:	27bdffc8 	addiu	sp,sp,-56
a0805e28:	afbf0034 	sw	ra,52(sp)
a0805e2c:	afbe0030 	sw	s8,48(sp)
a0805e30:	afb0002c 	sw	s0,44(sp)
a0805e34:	03a0f021 	move	s8,sp
a0805e38:	afc40038 	sw	a0,56(s8)
a0805e3c:	3c02a081 	lui	v0,0xa081
a0805e40:	8c4200c4 	lw	v0,196(v0)
a0805e44:	8c430000 	lw	v1,0(v0)
a0805e48:	3c024649 	lui	v0,0x4649
a0805e4c:	34424c45 	ori	v0,v0,0x4c45
a0805e50:	10620009 	beq	v1,v0,a0805e78 <do_touch+0x54>
a0805e54:	00000000 	nop
a0805e58:	3c02a081 	lui	v0,0xa081
a0805e5c:	2444e998 	addiu	a0,v0,-5736
a0805e60:	0c202b4d 	jal	a080ad34 <my_printk>
a0805e64:	00000000 	nop
a0805e68:	2402ffff 	li	v0,-1
a0805e6c:	afc20020 	sw	v0,32(s8)
a0805e70:	082018c9 	j	a0806324 <do_touch+0x500>
a0805e74:	00000000 	nop
a0805e78:	afc0001c 	sw	zero,28(s8)
a0805e7c:	afc00018 	sw	zero,24(s8)
a0805e80:	082017da 	j	a0805f68 <do_touch+0x144>
a0805e84:	00000000 	nop
a0805e88:	8fc3001c 	lw	v1,28(s8)
a0805e8c:	000317c3 	sra	v0,v1,0x1f
a0805e90:	00021682 	srl	v0,v0,0x1a
a0805e94:	00431021 	addu	v0,v0,v1
a0805e98:	00021183 	sra	v0,v0,0x6
a0805e9c:	afc20018 	sw	v0,24(s8)
a0805ea0:	8fc3001c 	lw	v1,28(s8)
a0805ea4:	000317c3 	sra	v0,v1,0x1f
a0805ea8:	00022682 	srl	a0,v0,0x1a
a0805eac:	00641021 	addu	v0,v1,a0
a0805eb0:	3042003f 	andi	v0,v0,0x3f
a0805eb4:	00441023 	subu	v0,v0,a0
a0805eb8:	afc20014 	sw	v0,20(s8)
a0805ebc:	8fc20014 	lw	v0,20(s8)
a0805ec0:	14400011 	bnez	v0,a0805f08 <do_touch+0xe4>
a0805ec4:	00000000 	nop
a0805ec8:	3c02a081 	lui	v0,0xa081
a0805ecc:	244431f0 	addiu	a0,v0,12784
a0805ed0:	3c02a081 	lui	v0,0xa081
a0805ed4:	8c4300f4 	lw	v1,244(v0)
a0805ed8:	8fc20018 	lw	v0,24(s8)
a0805edc:	24420006 	addiu	v0,v0,6
a0805ee0:	00021080 	sll	v0,v0,0x2
a0805ee4:	00621021 	addu	v0,v1,v0
a0805ee8:	8c420000 	lw	v0,0(v0)
a0805eec:	00402821 	move	a1,v0
a0805ef0:	24061000 	li	a2,4096
a0805ef4:	0c203792 	jal	a080de48 <.pic.sdread>
a0805ef8:	00000000 	nop
a0805efc:	3c02a081 	lui	v0,0xa081
a0805f00:	244231f0 	addiu	v0,v0,12784
a0805f04:	afc20010 	sw	v0,16(s8)
a0805f08:	8fc20014 	lw	v0,20(s8)
a0805f0c:	00021940 	sll	v1,v0,0x5
a0805f10:	8fc20010 	lw	v0,16(s8)
a0805f14:	00431021 	addu	v0,v0,v1
a0805f18:	8c430018 	lw	v1,24(v0)
a0805f1c:	24020001 	li	v0,1
a0805f20:	1462000e 	bne	v1,v0,a0805f5c <do_touch+0x138>
a0805f24:	00000000 	nop
a0805f28:	8fc20014 	lw	v0,20(s8)
a0805f2c:	00021940 	sll	v1,v0,0x5
a0805f30:	8fc20010 	lw	v0,16(s8)
a0805f34:	00431021 	addu	v0,v0,v1
a0805f38:	00402021 	move	a0,v0
a0805f3c:	8fc50038 	lw	a1,56(s8)
a0805f40:	0c202844 	jal	a080a110 <strcmp>
a0805f44:	00000000 	nop
a0805f48:	14400004 	bnez	v0,a0805f5c <do_touch+0x138>
a0805f4c:	00000000 	nop
a0805f50:	afc00020 	sw	zero,32(s8)
a0805f54:	082018c9 	j	a0806324 <do_touch+0x500>
a0805f58:	00000000 	nop
a0805f5c:	8fc2001c 	lw	v0,28(s8)
a0805f60:	24420001 	addiu	v0,v0,1
a0805f64:	afc2001c 	sw	v0,28(s8)
a0805f68:	8fc3001c 	lw	v1,28(s8)
a0805f6c:	3c02a081 	lui	v0,0xa081
a0805f70:	8c4200f4 	lw	v0,244(v0)
a0805f74:	8c420014 	lw	v0,20(v0)
a0805f78:	0062102b 	sltu	v0,v1,v0
a0805f7c:	1440ffc2 	bnez	v0,a0805e88 <do_touch+0x64>
a0805f80:	00000000 	nop
a0805f84:	8fc3001c 	lw	v1,28(s8)
a0805f88:	000317c3 	sra	v0,v1,0x1f
a0805f8c:	00021682 	srl	v0,v0,0x1a
a0805f90:	00431021 	addu	v0,v0,v1
a0805f94:	00021183 	sra	v0,v0,0x6
a0805f98:	afc20018 	sw	v0,24(s8)
a0805f9c:	8fc3001c 	lw	v1,28(s8)
a0805fa0:	000317c3 	sra	v0,v1,0x1f
a0805fa4:	00022682 	srl	a0,v0,0x1a
a0805fa8:	00641021 	addu	v0,v1,a0
a0805fac:	3042003f 	andi	v0,v0,0x3f
a0805fb0:	00441023 	subu	v0,v0,a0
a0805fb4:	afc20014 	sw	v0,20(s8)
a0805fb8:	8fc20014 	lw	v0,20(s8)
a0805fbc:	14400011 	bnez	v0,a0806004 <do_touch+0x1e0>
a0805fc0:	00000000 	nop
a0805fc4:	3c02a081 	lui	v0,0xa081
a0805fc8:	244431f0 	addiu	a0,v0,12784
a0805fcc:	3c02a081 	lui	v0,0xa081
a0805fd0:	8c4300f4 	lw	v1,244(v0)
a0805fd4:	8fc20018 	lw	v0,24(s8)
a0805fd8:	24420006 	addiu	v0,v0,6
a0805fdc:	00021080 	sll	v0,v0,0x2
a0805fe0:	00621021 	addu	v0,v1,v0
a0805fe4:	8c420000 	lw	v0,0(v0)
a0805fe8:	00402821 	move	a1,v0
a0805fec:	24061000 	li	a2,4096
a0805ff0:	0c203792 	jal	a080de48 <.pic.sdread>
a0805ff4:	00000000 	nop
a0805ff8:	3c02a081 	lui	v0,0xa081
a0805ffc:	244231f0 	addiu	v0,v0,12784
a0806000:	afc20010 	sw	v0,16(s8)
a0806004:	8fc20014 	lw	v0,20(s8)
a0806008:	00021940 	sll	v1,v0,0x5
a080600c:	8fc20010 	lw	v0,16(s8)
a0806010:	00431021 	addu	v0,v0,v1
a0806014:	00402021 	move	a0,v0
a0806018:	8fc50038 	lw	a1,56(s8)
a080601c:	0c20287a 	jal	a080a1e8 <strcpy>
a0806020:	00000000 	nop
a0806024:	8fc20014 	lw	v0,20(s8)
a0806028:	00021940 	sll	v1,v0,0x5
a080602c:	8fc20010 	lw	v0,16(s8)
a0806030:	00431821 	addu	v1,v0,v1
a0806034:	24020001 	li	v0,1
a0806038:	ac620018 	sw	v0,24(v1)
a080603c:	8fc20014 	lw	v0,20(s8)
a0806040:	00021940 	sll	v1,v0,0x5
a0806044:	8fc20010 	lw	v0,16(s8)
a0806048:	00438021 	addu	s0,v0,v1
a080604c:	0c200d34 	jal	a08034d0 <alloc_inode>
a0806050:	00000000 	nop
a0806054:	ae02001c 	sw	v0,28(s0)
a0806058:	8e02001c 	lw	v0,28(s0)
a080605c:	afc2001c 	sw	v0,28(s8)
a0806060:	3c02a081 	lui	v0,0xa081
a0806064:	244431f0 	addiu	a0,v0,12784
a0806068:	3c02a081 	lui	v0,0xa081
a080606c:	8c4300f4 	lw	v1,244(v0)
a0806070:	8fc20018 	lw	v0,24(s8)
a0806074:	24420006 	addiu	v0,v0,6
a0806078:	00021080 	sll	v0,v0,0x2
a080607c:	00621021 	addu	v0,v1,v0
a0806080:	8c420000 	lw	v0,0(v0)
a0806084:	00402821 	move	a1,v0
a0806088:	24061000 	li	a2,4096
a080608c:	0c203716 	jal	a080dc58 <.pic.sdwrite>
a0806090:	00000000 	nop
a0806094:	3c02a081 	lui	v0,0xa081
a0806098:	8c4300f4 	lw	v1,244(v0)
a080609c:	8c620014 	lw	v0,20(v1)
a08060a0:	24420001 	addiu	v0,v0,1
a08060a4:	ac620014 	sw	v0,20(v1)
a08060a8:	3c02a081 	lui	v0,0xa081
a08060ac:	8c4200f4 	lw	v0,244(v0)
a08060b0:	8c420000 	lw	v0,0(v0)
a08060b4:	00021182 	srl	v0,v0,0x6
a08060b8:	00021b00 	sll	v1,v0,0xc
a08060bc:	3c02a0f0 	lui	v0,0xa0f0
a08060c0:	34424600 	ori	v0,v0,0x4600
a08060c4:	00621021 	addu	v0,v1,v0
a08060c8:	00402021 	move	a0,v0
a08060cc:	3c02a081 	lui	v0,0xa081
a08060d0:	8c4200f4 	lw	v0,244(v0)
a08060d4:	8c420000 	lw	v0,0(v0)
a08060d8:	00021182 	srl	v0,v0,0x6
a08060dc:	00021b00 	sll	v1,v0,0xc
a08060e0:	3c021000 	lui	v0,0x1000
a08060e4:	34424400 	ori	v0,v0,0x4400
a08060e8:	00621021 	addu	v0,v1,v0
a08060ec:	00402821 	move	a1,v0
a08060f0:	24061000 	li	a2,4096
a08060f4:	0c203716 	jal	a080dc58 <.pic.sdwrite>
a08060f8:	00000000 	nop
a08060fc:	3c02a081 	lui	v0,0xa081
a0806100:	8c4300f8 	lw	v1,248(v0)
a0806104:	8fc2001c 	lw	v0,28(s8)
a0806108:	00021180 	sll	v0,v0,0x6
a080610c:	00621821 	addu	v1,v1,v0
a0806110:	24020002 	li	v0,2
a0806114:	a4620004 	sh	v0,4(v1)
a0806118:	3c02a081 	lui	v0,0xa081
a080611c:	8c4300f8 	lw	v1,248(v0)
a0806120:	8fc2001c 	lw	v0,28(s8)
a0806124:	00021180 	sll	v0,v0,0x6
a0806128:	00621821 	addu	v1,v1,v0
a080612c:	8fc2001c 	lw	v0,28(s8)
a0806130:	ac620000 	sw	v0,0(v1)
a0806134:	3c02a081 	lui	v0,0xa081
a0806138:	8c4300f8 	lw	v1,248(v0)
a080613c:	8fc2001c 	lw	v0,28(s8)
a0806140:	00021180 	sll	v0,v0,0x6
a0806144:	00621021 	addu	v0,v1,v0
a0806148:	ac400008 	sw	zero,8(v0)
a080614c:	3c02a081 	lui	v0,0xa081
a0806150:	8c4300f8 	lw	v1,248(v0)
a0806154:	8fc2001c 	lw	v0,28(s8)
a0806158:	00021180 	sll	v0,v0,0x6
a080615c:	00622021 	addu	a0,v1,v0
a0806160:	3c02a081 	lui	v0,0xa081
a0806164:	8c431420 	lw	v1,5152(v0)
a0806168:	3c026b5f 	lui	v0,0x6b5f
a080616c:	3442ca6b 	ori	v0,v0,0xca6b
a0806170:	00620019 	multu	v1,v0
a0806174:	00001010 	mfhi	v0
a0806178:	00021582 	srl	v0,v0,0x16
a080617c:	ac82000c 	sw	v0,12(a0)
a0806180:	3c02a081 	lui	v0,0xa081
a0806184:	8c4300f8 	lw	v1,248(v0)
a0806188:	8fc2001c 	lw	v0,28(s8)
a080618c:	00021180 	sll	v0,v0,0x6
a0806190:	00622021 	addu	a0,v1,v0
a0806194:	3c02a081 	lui	v0,0xa081
a0806198:	8c431420 	lw	v1,5152(v0)
a080619c:	3c026b5f 	lui	v0,0x6b5f
a08061a0:	3442ca6b 	ori	v0,v0,0xca6b
a08061a4:	00620019 	multu	v1,v0
a08061a8:	00001010 	mfhi	v0
a08061ac:	00021582 	srl	v0,v0,0x16
a08061b0:	ac820010 	sw	v0,16(a0)
a08061b4:	3c02a081 	lui	v0,0xa081
a08061b8:	8c4300f8 	lw	v1,248(v0)
a08061bc:	8fc2001c 	lw	v0,28(s8)
a08061c0:	00021180 	sll	v0,v0,0x6
a08061c4:	00621821 	addu	v1,v1,v0
a08061c8:	24020001 	li	v0,1
a08061cc:	ac620014 	sw	v0,20(v1)
a08061d0:	3c02a081 	lui	v0,0xa081
a08061d4:	8c4300f8 	lw	v1,248(v0)
a08061d8:	8fc2001c 	lw	v0,28(s8)
a08061dc:	00021180 	sll	v0,v0,0x6
a08061e0:	00628021 	addu	s0,v1,v0
a08061e4:	0c200eda 	jal	a0803b68 <alloc_datablk>
a08061e8:	00000000 	nop
a08061ec:	ae020018 	sw	v0,24(s0)
a08061f0:	24020001 	li	v0,1
a08061f4:	afc20018 	sw	v0,24(s8)
a08061f8:	0820188d 	j	a0806234 <do_touch+0x410>
a08061fc:	00000000 	nop
a0806200:	3c02a081 	lui	v0,0xa081
a0806204:	8c4300f8 	lw	v1,248(v0)
a0806208:	8fc2001c 	lw	v0,28(s8)
a080620c:	00021180 	sll	v0,v0,0x6
a0806210:	00621821 	addu	v1,v1,v0
a0806214:	8fc20018 	lw	v0,24(s8)
a0806218:	24420006 	addiu	v0,v0,6
a080621c:	00021080 	sll	v0,v0,0x2
a0806220:	00621021 	addu	v0,v1,v0
a0806224:	ac400000 	sw	zero,0(v0)
a0806228:	8fc20018 	lw	v0,24(s8)
a080622c:	24420001 	addiu	v0,v0,1
a0806230:	afc20018 	sw	v0,24(s8)
a0806234:	8fc20018 	lw	v0,24(s8)
a0806238:	28420008 	slti	v0,v0,8
a080623c:	1440fff0 	bnez	v0,a0806200 <do_touch+0x3dc>
a0806240:	00000000 	nop
a0806244:	3c02a081 	lui	v0,0xa081
a0806248:	8c4300f8 	lw	v1,248(v0)
a080624c:	8fc2001c 	lw	v0,28(s8)
a0806250:	00021180 	sll	v0,v0,0x6
a0806254:	00622021 	addu	a0,v1,v0
a0806258:	3c02a081 	lui	v0,0xa081
a080625c:	8c4300f8 	lw	v1,248(v0)
a0806260:	8fc2001c 	lw	v0,28(s8)
a0806264:	00021180 	sll	v0,v0,0x6
a0806268:	00621021 	addu	v0,v1,v0
a080626c:	ac40003c 	sw	zero,60(v0)
a0806270:	8c42003c 	lw	v0,60(v0)
a0806274:	ac820038 	sw	v0,56(a0)
a0806278:	8fc3001c 	lw	v1,28(s8)
a080627c:	000317c3 	sra	v0,v1,0x1f
a0806280:	00021682 	srl	v0,v0,0x1a
a0806284:	00431021 	addu	v0,v0,v1
a0806288:	00021183 	sra	v0,v0,0x6
a080628c:	00021300 	sll	v0,v0,0xc
a0806290:	00401821 	move	v1,v0
a0806294:	3c02a0f0 	lui	v0,0xa0f0
a0806298:	34424600 	ori	v0,v0,0x4600
a080629c:	00621021 	addu	v0,v1,v0
a08062a0:	00402021 	move	a0,v0
a08062a4:	8fc3001c 	lw	v1,28(s8)
a08062a8:	000317c3 	sra	v0,v1,0x1f
a08062ac:	00021682 	srl	v0,v0,0x1a
a08062b0:	00431021 	addu	v0,v0,v1
a08062b4:	00021183 	sra	v0,v0,0x6
a08062b8:	00021b00 	sll	v1,v0,0xc
a08062bc:	3c021000 	lui	v0,0x1000
a08062c0:	34424400 	ori	v0,v0,0x4400
a08062c4:	00621021 	addu	v0,v1,v0
a08062c8:	00402821 	move	a1,v0
a08062cc:	24061000 	li	a2,4096
a08062d0:	0c203716 	jal	a080dc58 <.pic.sdwrite>
a08062d4:	00000000 	nop
a08062d8:	3c02a081 	lui	v0,0xa081
a08062dc:	244431f0 	addiu	a0,v0,12784
a08062e0:	24051000 	li	a1,4096
a08062e4:	0c202833 	jal	a080a0cc <bzero>
a08062e8:	00000000 	nop
a08062ec:	3c02a081 	lui	v0,0xa081
a08062f0:	244431f0 	addiu	a0,v0,12784
a08062f4:	3c02a081 	lui	v0,0xa081
a08062f8:	8c4300f8 	lw	v1,248(v0)
a08062fc:	8fc2001c 	lw	v0,28(s8)
a0806300:	00021180 	sll	v0,v0,0x6
a0806304:	00621021 	addu	v0,v1,v0
a0806308:	8c420018 	lw	v0,24(v0)
a080630c:	00402821 	move	a1,v0
a0806310:	24061000 	li	a2,4096
a0806314:	0c203716 	jal	a080dc58 <.pic.sdwrite>
a0806318:	00000000 	nop
a080631c:	24020001 	li	v0,1
a0806320:	afc20020 	sw	v0,32(s8)
a0806324:	8fc20020 	lw	v0,32(s8)
a0806328:	03c0e821 	move	sp,s8
a080632c:	8fbf0034 	lw	ra,52(sp)
a0806330:	8fbe0030 	lw	s8,48(sp)
a0806334:	8fb0002c 	lw	s0,44(sp)
a0806338:	27bd0038 	addiu	sp,sp,56
a080633c:	03e00008 	jr	ra
a0806340:	00000000 	nop

a0806344 <do_cat>:
a0806344:	27bdffc8 	addiu	sp,sp,-56
a0806348:	afbf0034 	sw	ra,52(sp)
a080634c:	afbe0030 	sw	s8,48(sp)
a0806350:	03a0f021 	move	s8,sp
a0806354:	afc40038 	sw	a0,56(s8)
a0806358:	3c02a081 	lui	v0,0xa081
a080635c:	8c4200c4 	lw	v0,196(v0)
a0806360:	8c430000 	lw	v1,0(v0)
a0806364:	3c024649 	lui	v0,0x4649
a0806368:	34424c45 	ori	v0,v0,0x4c45
a080636c:	10620009 	beq	v1,v0,a0806394 <do_cat+0x50>
a0806370:	00000000 	nop
a0806374:	3c02a081 	lui	v0,0xa081
a0806378:	2444e998 	addiu	a0,v0,-5736
a080637c:	0c202b4d 	jal	a080ad34 <my_printk>
a0806380:	00000000 	nop
a0806384:	2402ffff 	li	v0,-1
a0806388:	afc20028 	sw	v0,40(s8)
a080638c:	082019a0 	j	a0806680 <do_cat+0x33c>
a0806390:	00000000 	nop
a0806394:	afc00024 	sw	zero,36(s8)
a0806398:	afc00020 	sw	zero,32(s8)
a080639c:	08201998 	j	a0806660 <do_cat+0x31c>
a08063a0:	00000000 	nop
a08063a4:	8fc30024 	lw	v1,36(s8)
a08063a8:	000317c3 	sra	v0,v1,0x1f
a08063ac:	00021682 	srl	v0,v0,0x1a
a08063b0:	00431021 	addu	v0,v0,v1
a08063b4:	00021183 	sra	v0,v0,0x6
a08063b8:	afc20020 	sw	v0,32(s8)
a08063bc:	8fc30024 	lw	v1,36(s8)
a08063c0:	000317c3 	sra	v0,v1,0x1f
a08063c4:	00022682 	srl	a0,v0,0x1a
a08063c8:	00641021 	addu	v0,v1,a0
a08063cc:	3042003f 	andi	v0,v0,0x3f
a08063d0:	00441023 	subu	v0,v0,a0
a08063d4:	afc2001c 	sw	v0,28(s8)
a08063d8:	8fc2001c 	lw	v0,28(s8)
a08063dc:	14400011 	bnez	v0,a0806424 <do_cat+0xe0>
a08063e0:	00000000 	nop
a08063e4:	3c02a081 	lui	v0,0xa081
a08063e8:	244431f0 	addiu	a0,v0,12784
a08063ec:	3c02a081 	lui	v0,0xa081
a08063f0:	8c4300f4 	lw	v1,244(v0)
a08063f4:	8fc20020 	lw	v0,32(s8)
a08063f8:	24420006 	addiu	v0,v0,6
a08063fc:	00021080 	sll	v0,v0,0x2
a0806400:	00621021 	addu	v0,v1,v0
a0806404:	8c420000 	lw	v0,0(v0)
a0806408:	00402821 	move	a1,v0
a080640c:	24061000 	li	a2,4096
a0806410:	0c203792 	jal	a080de48 <.pic.sdread>
a0806414:	00000000 	nop
a0806418:	3c02a081 	lui	v0,0xa081
a080641c:	244231f0 	addiu	v0,v0,12784
a0806420:	afc20018 	sw	v0,24(s8)
a0806424:	8fc2001c 	lw	v0,28(s8)
a0806428:	00021940 	sll	v1,v0,0x5
a080642c:	8fc20018 	lw	v0,24(s8)
a0806430:	00431021 	addu	v0,v0,v1
a0806434:	8c430018 	lw	v1,24(v0)
a0806438:	24020001 	li	v0,1
a080643c:	14620085 	bne	v1,v0,a0806654 <do_cat+0x310>
a0806440:	00000000 	nop
a0806444:	8fc2001c 	lw	v0,28(s8)
a0806448:	00021940 	sll	v1,v0,0x5
a080644c:	8fc20018 	lw	v0,24(s8)
a0806450:	00431021 	addu	v0,v0,v1
a0806454:	00402021 	move	a0,v0
a0806458:	8fc50038 	lw	a1,56(s8)
a080645c:	0c202844 	jal	a080a110 <strcmp>
a0806460:	00000000 	nop
a0806464:	1440007b 	bnez	v0,a0806654 <do_cat+0x310>
a0806468:	00000000 	nop
a080646c:	8fc2001c 	lw	v0,28(s8)
a0806470:	00021940 	sll	v1,v0,0x5
a0806474:	8fc20018 	lw	v0,24(s8)
a0806478:	00431021 	addu	v0,v0,v1
a080647c:	8c42001c 	lw	v0,28(v0)
a0806480:	afc20014 	sw	v0,20(s8)
a0806484:	8fc30014 	lw	v1,20(s8)
a0806488:	000317c3 	sra	v0,v1,0x1f
a080648c:	00021682 	srl	v0,v0,0x1a
a0806490:	00431021 	addu	v0,v0,v1
a0806494:	00021183 	sra	v0,v0,0x6
a0806498:	00401821 	move	v1,v0
a080649c:	24020001 	li	v0,1
a08064a0:	00621004 	sllv	v0,v0,v1
a08064a4:	00021fc3 	sra	v1,v0,0x1f
a08064a8:	00402021 	move	a0,v0
a08064ac:	00602821 	move	a1,v1
a08064b0:	3c02a081 	lui	v0,0xa081
a08064b4:	8c461400 	lw	a2,5120(v0)
a08064b8:	8c471404 	lw	a3,5124(v0)
a08064bc:	00861024 	and	v0,a0,a2
a08064c0:	00a71824 	and	v1,a1,a3
a08064c4:	00402021 	move	a0,v0
a08064c8:	00832025 	or	a0,a0,v1
a08064cc:	14800019 	bnez	a0,a0806534 <do_cat+0x1f0>
a08064d0:	00000000 	nop
a08064d4:	8fc30014 	lw	v1,20(s8)
a08064d8:	000317c3 	sra	v0,v1,0x1f
a08064dc:	00021682 	srl	v0,v0,0x1a
a08064e0:	00431021 	addu	v0,v0,v1
a08064e4:	00021183 	sra	v0,v0,0x6
a08064e8:	00021300 	sll	v0,v0,0xc
a08064ec:	00401821 	move	v1,v0
a08064f0:	3c02a0f0 	lui	v0,0xa0f0
a08064f4:	34424600 	ori	v0,v0,0x4600
a08064f8:	00621021 	addu	v0,v1,v0
a08064fc:	00402021 	move	a0,v0
a0806500:	8fc30014 	lw	v1,20(s8)
a0806504:	000317c3 	sra	v0,v1,0x1f
a0806508:	00021682 	srl	v0,v0,0x1a
a080650c:	00431021 	addu	v0,v0,v1
a0806510:	00021183 	sra	v0,v0,0x6
a0806514:	00021b00 	sll	v1,v0,0xc
a0806518:	3c021000 	lui	v0,0x1000
a080651c:	34424400 	ori	v0,v0,0x4400
a0806520:	00621021 	addu	v0,v1,v0
a0806524:	00402821 	move	a1,v0
a0806528:	24061000 	li	a2,4096
a080652c:	0c203792 	jal	a080de48 <.pic.sdread>
a0806530:	00000000 	nop
a0806534:	3c02a0f4 	lui	v0,0xa0f4
a0806538:	34424600 	ori	v0,v0,0x4600
a080653c:	afc20010 	sw	v0,16(s8)
a0806540:	afc00020 	sw	zero,32(s8)
a0806544:	08201987 	j	a080661c <do_cat+0x2d8>
a0806548:	00000000 	nop
a080654c:	8fc40010 	lw	a0,16(s8)
a0806550:	24051000 	li	a1,4096
a0806554:	0c202833 	jal	a080a0cc <bzero>
a0806558:	00000000 	nop
a080655c:	3c02a081 	lui	v0,0xa081
a0806560:	8c4300f8 	lw	v1,248(v0)
a0806564:	8fc20014 	lw	v0,20(s8)
a0806568:	00021180 	sll	v0,v0,0x6
a080656c:	00621821 	addu	v1,v1,v0
a0806570:	8fc20020 	lw	v0,32(s8)
a0806574:	24420006 	addiu	v0,v0,6
a0806578:	00021080 	sll	v0,v0,0x2
a080657c:	00621021 	addu	v0,v1,v0
a0806580:	8c420000 	lw	v0,0(v0)
a0806584:	8fc40010 	lw	a0,16(s8)
a0806588:	00402821 	move	a1,v0
a080658c:	24061000 	li	a2,4096
a0806590:	0c203792 	jal	a080de48 <.pic.sdread>
a0806594:	00000000 	nop
a0806598:	afc0001c 	sw	zero,28(s8)
a080659c:	08201976 	j	a08065d8 <do_cat+0x294>
a08065a0:	00000000 	nop
a08065a4:	8fc3001c 	lw	v1,28(s8)
a08065a8:	8fc20010 	lw	v0,16(s8)
a08065ac:	00431021 	addu	v0,v0,v1
a08065b0:	80420000 	lb	v0,0(v0)
a08065b4:	00401821 	move	v1,v0
a08065b8:	3c02a081 	lui	v0,0xa081
a08065bc:	2444eacc 	addiu	a0,v0,-5428
a08065c0:	00602821 	move	a1,v1
a08065c4:	0c202b4d 	jal	a080ad34 <my_printk>
a08065c8:	00000000 	nop
a08065cc:	8fc2001c 	lw	v0,28(s8)
a08065d0:	24420001 	addiu	v0,v0,1
a08065d4:	afc2001c 	sw	v0,28(s8)
a08065d8:	8fc4001c 	lw	a0,28(s8)
a08065dc:	3c02a081 	lui	v0,0xa081
a08065e0:	8c4300f8 	lw	v1,248(v0)
a08065e4:	8fc20014 	lw	v0,20(s8)
a08065e8:	00021180 	sll	v0,v0,0x6
a08065ec:	00621021 	addu	v0,v1,v0
a08065f0:	8c430008 	lw	v1,8(v0)
a08065f4:	8fc20020 	lw	v0,32(s8)
a08065f8:	00021300 	sll	v0,v0,0xc
a08065fc:	00021023 	negu	v0,v0
a0806600:	00621021 	addu	v0,v1,v0
a0806604:	0082102b 	sltu	v0,a0,v0
a0806608:	1440ffe6 	bnez	v0,a08065a4 <do_cat+0x260>
a080660c:	00000000 	nop
a0806610:	8fc20020 	lw	v0,32(s8)
a0806614:	24420001 	addiu	v0,v0,1
a0806618:	afc20020 	sw	v0,32(s8)
a080661c:	8fc40020 	lw	a0,32(s8)
a0806620:	3c02a081 	lui	v0,0xa081
a0806624:	8c4300f8 	lw	v1,248(v0)
a0806628:	8fc20014 	lw	v0,20(s8)
a080662c:	00021180 	sll	v0,v0,0x6
a0806630:	00621021 	addu	v0,v1,v0
a0806634:	8c420014 	lw	v0,20(v0)
a0806638:	0082102b 	sltu	v0,a0,v0
a080663c:	1440ffc3 	bnez	v0,a080654c <do_cat+0x208>
a0806640:	00000000 	nop
a0806644:	24020001 	li	v0,1
a0806648:	afc20028 	sw	v0,40(s8)
a080664c:	082019a0 	j	a0806680 <do_cat+0x33c>
a0806650:	00000000 	nop
a0806654:	8fc20024 	lw	v0,36(s8)
a0806658:	24420001 	addiu	v0,v0,1
a080665c:	afc20024 	sw	v0,36(s8)
a0806660:	8fc30024 	lw	v1,36(s8)
a0806664:	3c02a081 	lui	v0,0xa081
a0806668:	8c4200f4 	lw	v0,244(v0)
a080666c:	8c420014 	lw	v0,20(v0)
a0806670:	0062102b 	sltu	v0,v1,v0
a0806674:	1440ff4b 	bnez	v0,a08063a4 <do_cat+0x60>
a0806678:	00000000 	nop
a080667c:	afc00028 	sw	zero,40(s8)
a0806680:	8fc20028 	lw	v0,40(s8)
a0806684:	03c0e821 	move	sp,s8
a0806688:	8fbf0034 	lw	ra,52(sp)
a080668c:	8fbe0030 	lw	s8,48(sp)
a0806690:	27bd0038 	addiu	sp,sp,56
a0806694:	03e00008 	jr	ra
a0806698:	00000000 	nop

a080669c <do_fopen>:
a080669c:	27bdffc8 	addiu	sp,sp,-56
a08066a0:	afbf0034 	sw	ra,52(sp)
a08066a4:	afbe0030 	sw	s8,48(sp)
a08066a8:	03a0f021 	move	s8,sp
a08066ac:	afc40038 	sw	a0,56(s8)
a08066b0:	afc5003c 	sw	a1,60(s8)
a08066b4:	3c02a081 	lui	v0,0xa081
a08066b8:	8c4200c4 	lw	v0,196(v0)
a08066bc:	8c430000 	lw	v1,0(v0)
a08066c0:	3c024649 	lui	v0,0x4649
a08066c4:	34424c45 	ori	v0,v0,0x4c45
a08066c8:	10620009 	beq	v1,v0,a08066f0 <do_fopen+0x54>
a08066cc:	00000000 	nop
a08066d0:	3c02a081 	lui	v0,0xa081
a08066d4:	2444e998 	addiu	a0,v0,-5736
a08066d8:	0c202b4d 	jal	a080ad34 <my_printk>
a08066dc:	00000000 	nop
a08066e0:	2402ffff 	li	v0,-1
a08066e4:	afc20028 	sw	v0,40(s8)
a08066e8:	08201a86 	j	a0806a18 <do_fopen+0x37c>
a08066ec:	00000000 	nop
a08066f0:	afc00020 	sw	zero,32(s8)
a08066f4:	afc0001c 	sw	zero,28(s8)
a08066f8:	08201a76 	j	a08069d8 <do_fopen+0x33c>
a08066fc:	00000000 	nop
a0806700:	8fc30020 	lw	v1,32(s8)
a0806704:	000317c3 	sra	v0,v1,0x1f
a0806708:	00021682 	srl	v0,v0,0x1a
a080670c:	00431021 	addu	v0,v0,v1
a0806710:	00021183 	sra	v0,v0,0x6
a0806714:	afc2001c 	sw	v0,28(s8)
a0806718:	8fc30020 	lw	v1,32(s8)
a080671c:	000317c3 	sra	v0,v1,0x1f
a0806720:	00022682 	srl	a0,v0,0x1a
a0806724:	00641021 	addu	v0,v1,a0
a0806728:	3042003f 	andi	v0,v0,0x3f
a080672c:	00441023 	subu	v0,v0,a0
a0806730:	afc20018 	sw	v0,24(s8)
a0806734:	8fc20018 	lw	v0,24(s8)
a0806738:	14400011 	bnez	v0,a0806780 <do_fopen+0xe4>
a080673c:	00000000 	nop
a0806740:	3c02a081 	lui	v0,0xa081
a0806744:	244431f0 	addiu	a0,v0,12784
a0806748:	3c02a081 	lui	v0,0xa081
a080674c:	8c4300f4 	lw	v1,244(v0)
a0806750:	8fc2001c 	lw	v0,28(s8)
a0806754:	24420006 	addiu	v0,v0,6
a0806758:	00021080 	sll	v0,v0,0x2
a080675c:	00621021 	addu	v0,v1,v0
a0806760:	8c420000 	lw	v0,0(v0)
a0806764:	00402821 	move	a1,v0
a0806768:	24061000 	li	a2,4096
a080676c:	0c203792 	jal	a080de48 <.pic.sdread>
a0806770:	00000000 	nop
a0806774:	3c02a081 	lui	v0,0xa081
a0806778:	244231f0 	addiu	v0,v0,12784
a080677c:	afc20014 	sw	v0,20(s8)
a0806780:	8fc20018 	lw	v0,24(s8)
a0806784:	00021940 	sll	v1,v0,0x5
a0806788:	8fc20014 	lw	v0,20(s8)
a080678c:	00431021 	addu	v0,v0,v1
a0806790:	8c430018 	lw	v1,24(v0)
a0806794:	24020001 	li	v0,1
a0806798:	1462008c 	bne	v1,v0,a08069cc <do_fopen+0x330>
a080679c:	00000000 	nop
a08067a0:	8fc20018 	lw	v0,24(s8)
a08067a4:	00021940 	sll	v1,v0,0x5
a08067a8:	8fc20014 	lw	v0,20(s8)
a08067ac:	00431021 	addu	v0,v0,v1
a08067b0:	00402021 	move	a0,v0
a08067b4:	8fc50038 	lw	a1,56(s8)
a08067b8:	0c202844 	jal	a080a110 <strcmp>
a08067bc:	00000000 	nop
a08067c0:	14400082 	bnez	v0,a08069cc <do_fopen+0x330>
a08067c4:	00000000 	nop
a08067c8:	8fc20018 	lw	v0,24(s8)
a08067cc:	00021940 	sll	v1,v0,0x5
a08067d0:	8fc20014 	lw	v0,20(s8)
a08067d4:	00431021 	addu	v0,v0,v1
a08067d8:	8c42001c 	lw	v0,28(v0)
a08067dc:	afc20010 	sw	v0,16(s8)
a08067e0:	8fc30010 	lw	v1,16(s8)
a08067e4:	000317c3 	sra	v0,v1,0x1f
a08067e8:	00021682 	srl	v0,v0,0x1a
a08067ec:	00431021 	addu	v0,v0,v1
a08067f0:	00021183 	sra	v0,v0,0x6
a08067f4:	00401821 	move	v1,v0
a08067f8:	24020001 	li	v0,1
a08067fc:	00621004 	sllv	v0,v0,v1
a0806800:	00021fc3 	sra	v1,v0,0x1f
a0806804:	00402021 	move	a0,v0
a0806808:	00602821 	move	a1,v1
a080680c:	3c02a081 	lui	v0,0xa081
a0806810:	8c461400 	lw	a2,5120(v0)
a0806814:	8c471404 	lw	a3,5124(v0)
a0806818:	00861024 	and	v0,a0,a2
a080681c:	00a71824 	and	v1,a1,a3
a0806820:	00402021 	move	a0,v0
a0806824:	00832025 	or	a0,a0,v1
a0806828:	14800019 	bnez	a0,a0806890 <do_fopen+0x1f4>
a080682c:	00000000 	nop
a0806830:	8fc30010 	lw	v1,16(s8)
a0806834:	000317c3 	sra	v0,v1,0x1f
a0806838:	00021682 	srl	v0,v0,0x1a
a080683c:	00431021 	addu	v0,v0,v1
a0806840:	00021183 	sra	v0,v0,0x6
a0806844:	00021300 	sll	v0,v0,0xc
a0806848:	00401821 	move	v1,v0
a080684c:	3c02a0f0 	lui	v0,0xa0f0
a0806850:	34424600 	ori	v0,v0,0x4600
a0806854:	00621021 	addu	v0,v1,v0
a0806858:	00402021 	move	a0,v0
a080685c:	8fc30010 	lw	v1,16(s8)
a0806860:	000317c3 	sra	v0,v1,0x1f
a0806864:	00021682 	srl	v0,v0,0x1a
a0806868:	00431021 	addu	v0,v0,v1
a080686c:	00021183 	sra	v0,v0,0x6
a0806870:	00021b00 	sll	v1,v0,0xc
a0806874:	3c021000 	lui	v0,0x1000
a0806878:	34424400 	ori	v0,v0,0x4400
a080687c:	00621021 	addu	v0,v1,v0
a0806880:	00402821 	move	a1,v0
a0806884:	24061000 	li	a2,4096
a0806888:	0c203792 	jal	a080de48 <.pic.sdread>
a080688c:	00000000 	nop
a0806890:	3c02a081 	lui	v0,0xa081
a0806894:	8c4300f8 	lw	v1,248(v0)
a0806898:	8fc20010 	lw	v0,16(s8)
a080689c:	00021180 	sll	v0,v0,0x6
a08068a0:	00621021 	addu	v0,v1,v0
a08068a4:	94420004 	lhu	v0,4(v0)
a08068a8:	00401821 	move	v1,v0
a08068ac:	8fc2003c 	lw	v0,60(s8)
a08068b0:	1062000e 	beq	v1,v0,a08068ec <do_fopen+0x250>
a08068b4:	00000000 	nop
a08068b8:	3c02a081 	lui	v0,0xa081
a08068bc:	8c4300f8 	lw	v1,248(v0)
a08068c0:	8fc20010 	lw	v0,16(s8)
a08068c4:	00021180 	sll	v0,v0,0x6
a08068c8:	00621021 	addu	v0,v1,v0
a08068cc:	94430004 	lhu	v1,4(v0)
a08068d0:	24020002 	li	v0,2
a08068d4:	10620005 	beq	v1,v0,a08068ec <do_fopen+0x250>
a08068d8:	00000000 	nop
a08068dc:	2402ffff 	li	v0,-1
a08068e0:	afc20028 	sw	v0,40(s8)
a08068e4:	08201a86 	j	a0806a18 <do_fopen+0x37c>
a08068e8:	00000000 	nop
a08068ec:	0c200f54 	jal	a0803d50 <alloc_fd>
a08068f0:	00000000 	nop
a08068f4:	afc20010 	sw	v0,16(s8)
a08068f8:	8fc50010 	lw	a1,16(s8)
a08068fc:	8fc20018 	lw	v0,24(s8)
a0806900:	00021940 	sll	v1,v0,0x5
a0806904:	8fc20014 	lw	v0,20(s8)
a0806908:	00431021 	addu	v0,v0,v1
a080690c:	8c46001c 	lw	a2,28(v0)
a0806910:	3c04a081 	lui	a0,0xa081
a0806914:	00a01021 	move	v0,a1
a0806918:	00021080 	sll	v0,v0,0x2
a080691c:	00021880 	sll	v1,v0,0x2
a0806920:	00431021 	addu	v0,v0,v1
a0806924:	24832c70 	addiu	v1,a0,11376
a0806928:	00431021 	addu	v0,v0,v1
a080692c:	ac460000 	sw	a2,0(v0)
a0806930:	8fc30010 	lw	v1,16(s8)
a0806934:	3c02a081 	lui	v0,0xa081
a0806938:	24442c70 	addiu	a0,v0,11376
a080693c:	00601021 	move	v0,v1
a0806940:	00021880 	sll	v1,v0,0x2
a0806944:	00031080 	sll	v0,v1,0x2
a0806948:	00621021 	addu	v0,v1,v0
a080694c:	00821021 	addu	v0,a0,v0
a0806950:	ac40000c 	sw	zero,12(v0)
a0806954:	8fc20010 	lw	v0,16(s8)
a0806958:	3c04a081 	lui	a0,0xa081
a080695c:	00021080 	sll	v0,v0,0x2
a0806960:	00021880 	sll	v1,v0,0x2
a0806964:	00431021 	addu	v0,v0,v1
a0806968:	24832c70 	addiu	v1,a0,11376
a080696c:	00431021 	addu	v0,v0,v1
a0806970:	ac400010 	sw	zero,16(v0)
a0806974:	8fc20010 	lw	v0,16(s8)
a0806978:	3c04a081 	lui	a0,0xa081
a080697c:	00021080 	sll	v0,v0,0x2
a0806980:	00021880 	sll	v1,v0,0x2
a0806984:	00431021 	addu	v0,v0,v1
a0806988:	24832c70 	addiu	v1,a0,11376
a080698c:	00431021 	addu	v0,v0,v1
a0806990:	ac400008 	sw	zero,8(v0)
a0806994:	8fc30010 	lw	v1,16(s8)
a0806998:	8fc5003c 	lw	a1,60(s8)
a080699c:	3c02a081 	lui	v0,0xa081
a08069a0:	24442c70 	addiu	a0,v0,11376
a08069a4:	00601021 	move	v0,v1
a08069a8:	00021880 	sll	v1,v0,0x2
a08069ac:	00031080 	sll	v0,v1,0x2
a08069b0:	00621021 	addu	v0,v1,v0
a08069b4:	00821021 	addu	v0,a0,v0
a08069b8:	ac450004 	sw	a1,4(v0)
a08069bc:	8fc20010 	lw	v0,16(s8)
a08069c0:	afc20028 	sw	v0,40(s8)
a08069c4:	08201a86 	j	a0806a18 <do_fopen+0x37c>
a08069c8:	00000000 	nop
a08069cc:	8fc20020 	lw	v0,32(s8)
a08069d0:	24420001 	addiu	v0,v0,1
a08069d4:	afc20020 	sw	v0,32(s8)
a08069d8:	8fc30020 	lw	v1,32(s8)
a08069dc:	3c02a081 	lui	v0,0xa081
a08069e0:	8c4200f4 	lw	v0,244(v0)
a08069e4:	8c420014 	lw	v0,20(v0)
a08069e8:	0062102b 	sltu	v0,v1,v0
a08069ec:	1440ff44 	bnez	v0,a0806700 <do_fopen+0x64>
a08069f0:	00000000 	nop
a08069f4:	8fc2003c 	lw	v0,60(s8)
a08069f8:	14400005 	bnez	v0,a0806a10 <do_fopen+0x374>
a08069fc:	00000000 	nop
a0806a00:	2402ffff 	li	v0,-1
a0806a04:	afc20028 	sw	v0,40(s8)
a0806a08:	08201a86 	j	a0806a18 <do_fopen+0x37c>
a0806a0c:	00000000 	nop
a0806a10:	2402ffff 	li	v0,-1
a0806a14:	afc20028 	sw	v0,40(s8)
a0806a18:	8fc20028 	lw	v0,40(s8)
a0806a1c:	03c0e821 	move	sp,s8
a0806a20:	8fbf0034 	lw	ra,52(sp)
a0806a24:	8fbe0030 	lw	s8,48(sp)
a0806a28:	27bd0038 	addiu	sp,sp,56
a0806a2c:	03e00008 	jr	ra
a0806a30:	00000000 	nop

a0806a34 <do_fread>:
a0806a34:	27bdffd0 	addiu	sp,sp,-48
a0806a38:	afbf002c 	sw	ra,44(sp)
a0806a3c:	afbe0028 	sw	s8,40(sp)
a0806a40:	03a0f021 	move	s8,sp
a0806a44:	afc40030 	sw	a0,48(s8)
a0806a48:	afc50034 	sw	a1,52(s8)
a0806a4c:	afc60038 	sw	a2,56(s8)
a0806a50:	8fc20030 	lw	v0,48(s8)
a0806a54:	3c04a081 	lui	a0,0xa081
a0806a58:	00021080 	sll	v0,v0,0x2
a0806a5c:	00021880 	sll	v1,v0,0x2
a0806a60:	00431021 	addu	v0,v0,v1
a0806a64:	24832c70 	addiu	v1,a0,11376
a0806a68:	00431021 	addu	v0,v0,v1
a0806a6c:	8c420000 	lw	v0,0(v0)
a0806a70:	afc2001c 	sw	v0,28(s8)
a0806a74:	3c02a081 	lui	v0,0xa081
a0806a78:	8c4300f8 	lw	v1,248(v0)
a0806a7c:	8fc2001c 	lw	v0,28(s8)
a0806a80:	00021180 	sll	v0,v0,0x6
a0806a84:	00621021 	addu	v0,v1,v0
a0806a88:	8c450008 	lw	a1,8(v0)
a0806a8c:	8fc30030 	lw	v1,48(s8)
a0806a90:	3c02a081 	lui	v0,0xa081
a0806a94:	24442c70 	addiu	a0,v0,11376
a0806a98:	00601021 	move	v0,v1
a0806a9c:	00021880 	sll	v1,v0,0x2
a0806aa0:	00031080 	sll	v0,v1,0x2
a0806aa4:	00621021 	addu	v0,v1,v0
a0806aa8:	00821021 	addu	v0,a0,v0
a0806aac:	8c42000c 	lw	v0,12(v0)
a0806ab0:	00a21823 	subu	v1,a1,v0
a0806ab4:	8fc20038 	lw	v0,56(s8)
a0806ab8:	0062102b 	sltu	v0,v1,v0
a0806abc:	10400004 	beqz	v0,a0806ad0 <do_fread+0x9c>
a0806ac0:	00000000 	nop
a0806ac4:	afc00020 	sw	zero,32(s8)
a0806ac8:	08201bc6 	j	a0806f18 <do_fread+0x4e4>
a0806acc:	00000000 	nop
a0806ad0:	8fc30030 	lw	v1,48(s8)
a0806ad4:	3c02a081 	lui	v0,0xa081
a0806ad8:	24442c70 	addiu	a0,v0,11376
a0806adc:	00601021 	move	v0,v1
a0806ae0:	00021880 	sll	v1,v0,0x2
a0806ae4:	00031080 	sll	v0,v1,0x2
a0806ae8:	00621021 	addu	v0,v1,v0
a0806aec:	00821021 	addu	v0,a0,v0
a0806af0:	8c42000c 	lw	v0,12(v0)
a0806af4:	00021302 	srl	v0,v0,0xc
a0806af8:	afc20018 	sw	v0,24(s8)
a0806afc:	afc00014 	sw	zero,20(s8)
a0806b00:	3c02a0f4 	lui	v0,0xa0f4
a0806b04:	34424600 	ori	v0,v0,0x4600
a0806b08:	afc20010 	sw	v0,16(s8)
a0806b0c:	8fc30030 	lw	v1,48(s8)
a0806b10:	3c02a081 	lui	v0,0xa081
a0806b14:	24442c70 	addiu	a0,v0,11376
a0806b18:	00601021 	move	v0,v1
a0806b1c:	00021880 	sll	v1,v0,0x2
a0806b20:	00031080 	sll	v0,v1,0x2
a0806b24:	00621021 	addu	v0,v1,v0
a0806b28:	00821021 	addu	v0,a0,v0
a0806b2c:	8c42000c 	lw	v0,12(v0)
a0806b30:	30420fff 	andi	v0,v0,0xfff
a0806b34:	104000f1 	beqz	v0,a0806efc <do_fread+0x4c8>
a0806b38:	00000000 	nop
a0806b3c:	8fc40010 	lw	a0,16(s8)
a0806b40:	24051000 	li	a1,4096
a0806b44:	0c202833 	jal	a080a0cc <bzero>
a0806b48:	00000000 	nop
a0806b4c:	3c02a081 	lui	v0,0xa081
a0806b50:	8c4300f8 	lw	v1,248(v0)
a0806b54:	8fc2001c 	lw	v0,28(s8)
a0806b58:	00021180 	sll	v0,v0,0x6
a0806b5c:	00621821 	addu	v1,v1,v0
a0806b60:	8fc20018 	lw	v0,24(s8)
a0806b64:	24420006 	addiu	v0,v0,6
a0806b68:	00021080 	sll	v0,v0,0x2
a0806b6c:	00621021 	addu	v0,v1,v0
a0806b70:	8c420000 	lw	v0,0(v0)
a0806b74:	8fc40010 	lw	a0,16(s8)
a0806b78:	00402821 	move	a1,v0
a0806b7c:	24061000 	li	a2,4096
a0806b80:	0c203792 	jal	a080de48 <.pic.sdread>
a0806b84:	00000000 	nop
a0806b88:	8fc30030 	lw	v1,48(s8)
a0806b8c:	3c02a081 	lui	v0,0xa081
a0806b90:	24442c70 	addiu	a0,v0,11376
a0806b94:	00601021 	move	v0,v1
a0806b98:	00021880 	sll	v1,v0,0x2
a0806b9c:	00031080 	sll	v0,v1,0x2
a0806ba0:	00621021 	addu	v0,v1,v0
a0806ba4:	00821021 	addu	v0,a0,v0
a0806ba8:	8c42000c 	lw	v0,12(v0)
a0806bac:	30430fff 	andi	v1,v0,0xfff
a0806bb0:	24021000 	li	v0,4096
a0806bb4:	00431823 	subu	v1,v0,v1
a0806bb8:	8fc20038 	lw	v0,56(s8)
a0806bbc:	0043102b 	sltu	v0,v0,v1
a0806bc0:	14400037 	bnez	v0,a0806ca0 <do_fread+0x26c>
a0806bc4:	00000000 	nop
a0806bc8:	8fc50034 	lw	a1,52(s8)
a0806bcc:	8fc30030 	lw	v1,48(s8)
a0806bd0:	3c02a081 	lui	v0,0xa081
a0806bd4:	24442c70 	addiu	a0,v0,11376
a0806bd8:	00601021 	move	v0,v1
a0806bdc:	00021880 	sll	v1,v0,0x2
a0806be0:	00031080 	sll	v0,v1,0x2
a0806be4:	00621021 	addu	v0,v1,v0
a0806be8:	00821021 	addu	v0,a0,v0
a0806bec:	8c42000c 	lw	v0,12(v0)
a0806bf0:	30430fff 	andi	v1,v0,0xfff
a0806bf4:	8fc20010 	lw	v0,16(s8)
a0806bf8:	00431021 	addu	v0,v0,v1
a0806bfc:	00403021 	move	a2,v0
a0806c00:	8fc30030 	lw	v1,48(s8)
a0806c04:	3c02a081 	lui	v0,0xa081
a0806c08:	24442c70 	addiu	a0,v0,11376
a0806c0c:	00601021 	move	v0,v1
a0806c10:	00021880 	sll	v1,v0,0x2
a0806c14:	00031080 	sll	v0,v1,0x2
a0806c18:	00621021 	addu	v0,v1,v0
a0806c1c:	00821021 	addu	v0,a0,v0
a0806c20:	8c42000c 	lw	v0,12(v0)
a0806c24:	30430fff 	andi	v1,v0,0xfff
a0806c28:	24021000 	li	v0,4096
a0806c2c:	00431023 	subu	v0,v0,v1
a0806c30:	00a02021 	move	a0,a1
a0806c34:	00c02821 	move	a1,a2
a0806c38:	00403021 	move	a2,v0
a0806c3c:	0c2027fa 	jal	a0809fe8 <memcpy>
a0806c40:	00000000 	nop
a0806c44:	8fc60030 	lw	a2,48(s8)
a0806c48:	8fc30030 	lw	v1,48(s8)
a0806c4c:	3c02a081 	lui	v0,0xa081
a0806c50:	24442c70 	addiu	a0,v0,11376
a0806c54:	00601021 	move	v0,v1
a0806c58:	00021880 	sll	v1,v0,0x2
a0806c5c:	00031080 	sll	v0,v1,0x2
a0806c60:	00621021 	addu	v0,v1,v0
a0806c64:	00821021 	addu	v0,a0,v0
a0806c68:	8c43000c 	lw	v1,12(v0)
a0806c6c:	2402f000 	li	v0,-4096
a0806c70:	00621024 	and	v0,v1,v0
a0806c74:	24451000 	addiu	a1,v0,4096
a0806c78:	3c02a081 	lui	v0,0xa081
a0806c7c:	24442c70 	addiu	a0,v0,11376
a0806c80:	00c01021 	move	v0,a2
a0806c84:	00021880 	sll	v1,v0,0x2
a0806c88:	00031080 	sll	v0,v1,0x2
a0806c8c:	00621021 	addu	v0,v1,v0
a0806c90:	00821021 	addu	v0,a0,v0
a0806c94:	ac45000c 	sw	a1,12(v0)
a0806c98:	08201b4f 	j	a0806d3c <do_fread+0x308>
a0806c9c:	00000000 	nop
a0806ca0:	8fc50034 	lw	a1,52(s8)
a0806ca4:	8fc30030 	lw	v1,48(s8)
a0806ca8:	3c02a081 	lui	v0,0xa081
a0806cac:	24442c70 	addiu	a0,v0,11376
a0806cb0:	00601021 	move	v0,v1
a0806cb4:	00021880 	sll	v1,v0,0x2
a0806cb8:	00031080 	sll	v0,v1,0x2
a0806cbc:	00621021 	addu	v0,v1,v0
a0806cc0:	00821021 	addu	v0,a0,v0
a0806cc4:	8c42000c 	lw	v0,12(v0)
a0806cc8:	30430fff 	andi	v1,v0,0xfff
a0806ccc:	8fc20010 	lw	v0,16(s8)
a0806cd0:	00431021 	addu	v0,v0,v1
a0806cd4:	8fc30038 	lw	v1,56(s8)
a0806cd8:	00a02021 	move	a0,a1
a0806cdc:	00402821 	move	a1,v0
a0806ce0:	00603021 	move	a2,v1
a0806ce4:	0c2027fa 	jal	a0809fe8 <memcpy>
a0806ce8:	00000000 	nop
a0806cec:	8fc60030 	lw	a2,48(s8)
a0806cf0:	8fc30030 	lw	v1,48(s8)
a0806cf4:	3c02a081 	lui	v0,0xa081
a0806cf8:	24442c70 	addiu	a0,v0,11376
a0806cfc:	00601021 	move	v0,v1
a0806d00:	00021880 	sll	v1,v0,0x2
a0806d04:	00031080 	sll	v0,v1,0x2
a0806d08:	00621021 	addu	v0,v1,v0
a0806d0c:	00821021 	addu	v0,a0,v0
a0806d10:	8c43000c 	lw	v1,12(v0)
a0806d14:	8fc20038 	lw	v0,56(s8)
a0806d18:	00622821 	addu	a1,v1,v0
a0806d1c:	3c02a081 	lui	v0,0xa081
a0806d20:	24442c70 	addiu	a0,v0,11376
a0806d24:	00c01021 	move	v0,a2
a0806d28:	00021880 	sll	v1,v0,0x2
a0806d2c:	00031080 	sll	v0,v1,0x2
a0806d30:	00621021 	addu	v0,v1,v0
a0806d34:	00821021 	addu	v0,a0,v0
a0806d38:	ac45000c 	sw	a1,12(v0)
a0806d3c:	8fc50014 	lw	a1,20(s8)
a0806d40:	8fc30030 	lw	v1,48(s8)
a0806d44:	3c02a081 	lui	v0,0xa081
a0806d48:	24442c70 	addiu	a0,v0,11376
a0806d4c:	00601021 	move	v0,v1
a0806d50:	00021880 	sll	v1,v0,0x2
a0806d54:	00031080 	sll	v0,v1,0x2
a0806d58:	00621021 	addu	v0,v1,v0
a0806d5c:	00821021 	addu	v0,a0,v0
a0806d60:	8c42000c 	lw	v0,12(v0)
a0806d64:	30420fff 	andi	v0,v0,0xfff
a0806d68:	00a21023 	subu	v0,a1,v0
a0806d6c:	24421000 	addiu	v0,v0,4096
a0806d70:	afc20014 	sw	v0,20(s8)
a0806d74:	8fc20018 	lw	v0,24(s8)
a0806d78:	24420001 	addiu	v0,v0,1
a0806d7c:	afc20018 	sw	v0,24(s8)
a0806d80:	08201bbf 	j	a0806efc <do_fread+0x4c8>
a0806d84:	00000000 	nop
a0806d88:	8fc40010 	lw	a0,16(s8)
a0806d8c:	24051000 	li	a1,4096
a0806d90:	0c202833 	jal	a080a0cc <bzero>
a0806d94:	00000000 	nop
a0806d98:	3c02a081 	lui	v0,0xa081
a0806d9c:	8c4300f8 	lw	v1,248(v0)
a0806da0:	8fc2001c 	lw	v0,28(s8)
a0806da4:	00021180 	sll	v0,v0,0x6
a0806da8:	00621821 	addu	v1,v1,v0
a0806dac:	8fc20018 	lw	v0,24(s8)
a0806db0:	24420006 	addiu	v0,v0,6
a0806db4:	00021080 	sll	v0,v0,0x2
a0806db8:	00621021 	addu	v0,v1,v0
a0806dbc:	8c420000 	lw	v0,0(v0)
a0806dc0:	8fc40010 	lw	a0,16(s8)
a0806dc4:	00402821 	move	a1,v0
a0806dc8:	24061000 	li	a2,4096
a0806dcc:	0c203792 	jal	a080de48 <.pic.sdread>
a0806dd0:	00000000 	nop
a0806dd4:	8fc20014 	lw	v0,20(s8)
a0806dd8:	24431000 	addiu	v1,v0,4096
a0806ddc:	8fc20038 	lw	v0,56(s8)
a0806de0:	0043102a 	slt	v0,v0,v1
a0806de4:	1440001f 	bnez	v0,a0806e64 <do_fread+0x430>
a0806de8:	00000000 	nop
a0806dec:	8fc30034 	lw	v1,52(s8)
a0806df0:	8fc20014 	lw	v0,20(s8)
a0806df4:	00621021 	addu	v0,v1,v0
a0806df8:	8fc30010 	lw	v1,16(s8)
a0806dfc:	00402021 	move	a0,v0
a0806e00:	00602821 	move	a1,v1
a0806e04:	24061000 	li	a2,4096
a0806e08:	0c2027fa 	jal	a0809fe8 <memcpy>
a0806e0c:	00000000 	nop
a0806e10:	8fc60030 	lw	a2,48(s8)
a0806e14:	8fc30030 	lw	v1,48(s8)
a0806e18:	3c02a081 	lui	v0,0xa081
a0806e1c:	24442c70 	addiu	a0,v0,11376
a0806e20:	00601021 	move	v0,v1
a0806e24:	00021880 	sll	v1,v0,0x2
a0806e28:	00031080 	sll	v0,v1,0x2
a0806e2c:	00621021 	addu	v0,v1,v0
a0806e30:	00821021 	addu	v0,a0,v0
a0806e34:	8c42000c 	lw	v0,12(v0)
a0806e38:	24451000 	addiu	a1,v0,4096
a0806e3c:	3c02a081 	lui	v0,0xa081
a0806e40:	24442c70 	addiu	a0,v0,11376
a0806e44:	00c01021 	move	v0,a2
a0806e48:	00021880 	sll	v1,v0,0x2
a0806e4c:	00031080 	sll	v0,v1,0x2
a0806e50:	00621021 	addu	v0,v1,v0
a0806e54:	00821021 	addu	v0,a0,v0
a0806e58:	ac45000c 	sw	a1,12(v0)
a0806e5c:	08201bb9 	j	a0806ee4 <do_fread+0x4b0>
a0806e60:	00000000 	nop
a0806e64:	8fc30034 	lw	v1,52(s8)
a0806e68:	8fc20014 	lw	v0,20(s8)
a0806e6c:	00622021 	addu	a0,v1,v0
a0806e70:	8fc50010 	lw	a1,16(s8)
a0806e74:	8fc30038 	lw	v1,56(s8)
a0806e78:	8fc20014 	lw	v0,20(s8)
a0806e7c:	00621023 	subu	v0,v1,v0
a0806e80:	00403021 	move	a2,v0
a0806e84:	0c2027fa 	jal	a0809fe8 <memcpy>
a0806e88:	00000000 	nop
a0806e8c:	8fc60030 	lw	a2,48(s8)
a0806e90:	8fc30030 	lw	v1,48(s8)
a0806e94:	3c02a081 	lui	v0,0xa081
a0806e98:	24442c70 	addiu	a0,v0,11376
a0806e9c:	00601021 	move	v0,v1
a0806ea0:	00021880 	sll	v1,v0,0x2
a0806ea4:	00031080 	sll	v0,v1,0x2
a0806ea8:	00621021 	addu	v0,v1,v0
a0806eac:	00821021 	addu	v0,a0,v0
a0806eb0:	8c44000c 	lw	a0,12(v0)
a0806eb4:	8fc30038 	lw	v1,56(s8)
a0806eb8:	8fc20014 	lw	v0,20(s8)
a0806ebc:	00621023 	subu	v0,v1,v0
a0806ec0:	00822821 	addu	a1,a0,v0
a0806ec4:	3c02a081 	lui	v0,0xa081
a0806ec8:	24442c70 	addiu	a0,v0,11376
a0806ecc:	00c01021 	move	v0,a2
a0806ed0:	00021880 	sll	v1,v0,0x2
a0806ed4:	00031080 	sll	v0,v1,0x2
a0806ed8:	00621021 	addu	v0,v1,v0
a0806edc:	00821021 	addu	v0,a0,v0
a0806ee0:	ac45000c 	sw	a1,12(v0)
a0806ee4:	8fc20018 	lw	v0,24(s8)
a0806ee8:	24420001 	addiu	v0,v0,1
a0806eec:	afc20018 	sw	v0,24(s8)
a0806ef0:	8fc20014 	lw	v0,20(s8)
a0806ef4:	24421000 	addiu	v0,v0,4096
a0806ef8:	afc20014 	sw	v0,20(s8)
a0806efc:	8fc20014 	lw	v0,20(s8)
a0806f00:	8fc30038 	lw	v1,56(s8)
a0806f04:	0043102a 	slt	v0,v0,v1
a0806f08:	1440ff9f 	bnez	v0,a0806d88 <do_fread+0x354>
a0806f0c:	00000000 	nop
a0806f10:	24020001 	li	v0,1
a0806f14:	afc20020 	sw	v0,32(s8)
a0806f18:	8fc20020 	lw	v0,32(s8)
a0806f1c:	03c0e821 	move	sp,s8
a0806f20:	8fbf002c 	lw	ra,44(sp)
a0806f24:	8fbe0028 	lw	s8,40(sp)
a0806f28:	27bd0030 	addiu	sp,sp,48
a0806f2c:	03e00008 	jr	ra
a0806f30:	00000000 	nop

a0806f34 <do_fwrite>:
a0806f34:	27bdffc0 	addiu	sp,sp,-64
a0806f38:	afbf003c 	sw	ra,60(sp)
a0806f3c:	afbe0038 	sw	s8,56(sp)
a0806f40:	afb10034 	sw	s1,52(sp)
a0806f44:	afb00030 	sw	s0,48(sp)
a0806f48:	03a0f021 	move	s8,sp
a0806f4c:	afc40040 	sw	a0,64(s8)
a0806f50:	afc50044 	sw	a1,68(s8)
a0806f54:	afc60048 	sw	a2,72(s8)
a0806f58:	8fc20040 	lw	v0,64(s8)
a0806f5c:	3c04a081 	lui	a0,0xa081
a0806f60:	00021080 	sll	v0,v0,0x2
a0806f64:	00021880 	sll	v1,v0,0x2
a0806f68:	00431021 	addu	v0,v0,v1
a0806f6c:	24832c70 	addiu	v1,a0,11376
a0806f70:	00431021 	addu	v0,v0,v1
a0806f74:	8c420000 	lw	v0,0(v0)
a0806f78:	afc2001c 	sw	v0,28(s8)
a0806f7c:	8fc20040 	lw	v0,64(s8)
a0806f80:	3c04a081 	lui	a0,0xa081
a0806f84:	00021080 	sll	v0,v0,0x2
a0806f88:	00021880 	sll	v1,v0,0x2
a0806f8c:	00431021 	addu	v0,v0,v1
a0806f90:	24832c70 	addiu	v1,a0,11376
a0806f94:	00431021 	addu	v0,v0,v1
a0806f98:	8c420010 	lw	v0,16(v0)
a0806f9c:	00021302 	srl	v0,v0,0xc
a0806fa0:	afc20018 	sw	v0,24(s8)
a0806fa4:	afc00014 	sw	zero,20(s8)
a0806fa8:	3c02a0f4 	lui	v0,0xa0f4
a0806fac:	34424600 	ori	v0,v0,0x4600
a0806fb0:	afc20010 	sw	v0,16(s8)
a0806fb4:	8fc20040 	lw	v0,64(s8)
a0806fb8:	3c04a081 	lui	a0,0xa081
a0806fbc:	00021080 	sll	v0,v0,0x2
a0806fc0:	00021880 	sll	v1,v0,0x2
a0806fc4:	00431021 	addu	v0,v0,v1
a0806fc8:	24832c70 	addiu	v1,a0,11376
a0806fcc:	00431021 	addu	v0,v0,v1
a0806fd0:	8c420010 	lw	v0,16(v0)
a0806fd4:	30420fff 	andi	v0,v0,0xfff
a0806fd8:	1040011f 	beqz	v0,a0807458 <do_fwrite+0x524>
a0806fdc:	00000000 	nop
a0806fe0:	8fc40010 	lw	a0,16(s8)
a0806fe4:	24051000 	li	a1,4096
a0806fe8:	0c202833 	jal	a080a0cc <bzero>
a0806fec:	00000000 	nop
a0806ff0:	3c02a081 	lui	v0,0xa081
a0806ff4:	8c4300f8 	lw	v1,248(v0)
a0806ff8:	8fc2001c 	lw	v0,28(s8)
a0806ffc:	00021180 	sll	v0,v0,0x6
a0807000:	00621821 	addu	v1,v1,v0
a0807004:	8fc20018 	lw	v0,24(s8)
a0807008:	24420006 	addiu	v0,v0,6
a080700c:	00021080 	sll	v0,v0,0x2
a0807010:	00621021 	addu	v0,v1,v0
a0807014:	8c420000 	lw	v0,0(v0)
a0807018:	8fc40010 	lw	a0,16(s8)
a080701c:	00402821 	move	a1,v0
a0807020:	24061000 	li	a2,4096
a0807024:	0c203792 	jal	a080de48 <.pic.sdread>
a0807028:	00000000 	nop
a080702c:	8fc20040 	lw	v0,64(s8)
a0807030:	3c04a081 	lui	a0,0xa081
a0807034:	00021080 	sll	v0,v0,0x2
a0807038:	00021880 	sll	v1,v0,0x2
a080703c:	00431021 	addu	v0,v0,v1
a0807040:	24832c70 	addiu	v1,a0,11376
a0807044:	00431021 	addu	v0,v0,v1
a0807048:	8c420010 	lw	v0,16(v0)
a080704c:	30430fff 	andi	v1,v0,0xfff
a0807050:	24021000 	li	v0,4096
a0807054:	00431823 	subu	v1,v0,v1
a0807058:	8fc20048 	lw	v0,72(s8)
a080705c:	0043102b 	sltu	v0,v0,v1
a0807060:	14400034 	bnez	v0,a0807134 <do_fwrite+0x200>
a0807064:	00000000 	nop
a0807068:	8fc20040 	lw	v0,64(s8)
a080706c:	3c04a081 	lui	a0,0xa081
a0807070:	00021080 	sll	v0,v0,0x2
a0807074:	00021880 	sll	v1,v0,0x2
a0807078:	00431021 	addu	v0,v0,v1
a080707c:	24832c70 	addiu	v1,a0,11376
a0807080:	00431021 	addu	v0,v0,v1
a0807084:	8c420010 	lw	v0,16(v0)
a0807088:	30430fff 	andi	v1,v0,0xfff
a080708c:	8fc20010 	lw	v0,16(s8)
a0807090:	00431021 	addu	v0,v0,v1
a0807094:	00402821 	move	a1,v0
a0807098:	8fc60044 	lw	a2,68(s8)
a080709c:	8fc20040 	lw	v0,64(s8)
a08070a0:	3c04a081 	lui	a0,0xa081
a08070a4:	00021080 	sll	v0,v0,0x2
a08070a8:	00021880 	sll	v1,v0,0x2
a08070ac:	00431021 	addu	v0,v0,v1
a08070b0:	24832c70 	addiu	v1,a0,11376
a08070b4:	00431021 	addu	v0,v0,v1
a08070b8:	8c420010 	lw	v0,16(v0)
a08070bc:	30430fff 	andi	v1,v0,0xfff
a08070c0:	24021000 	li	v0,4096
a08070c4:	00431023 	subu	v0,v0,v1
a08070c8:	00a02021 	move	a0,a1
a08070cc:	00c02821 	move	a1,a2
a08070d0:	00403021 	move	a2,v0
a08070d4:	0c2027fa 	jal	a0809fe8 <memcpy>
a08070d8:	00000000 	nop
a08070dc:	8fc60040 	lw	a2,64(s8)
a08070e0:	8fc20040 	lw	v0,64(s8)
a08070e4:	3c04a081 	lui	a0,0xa081
a08070e8:	00021080 	sll	v0,v0,0x2
a08070ec:	00021880 	sll	v1,v0,0x2
a08070f0:	00431021 	addu	v0,v0,v1
a08070f4:	24832c70 	addiu	v1,a0,11376
a08070f8:	00431021 	addu	v0,v0,v1
a08070fc:	8c430010 	lw	v1,16(v0)
a0807100:	2402f000 	li	v0,-4096
a0807104:	00621024 	and	v0,v1,v0
a0807108:	24451000 	addiu	a1,v0,4096
a080710c:	3c04a081 	lui	a0,0xa081
a0807110:	00c01021 	move	v0,a2
a0807114:	00021080 	sll	v0,v0,0x2
a0807118:	00021880 	sll	v1,v0,0x2
a080711c:	00431021 	addu	v0,v0,v1
a0807120:	24832c70 	addiu	v1,a0,11376
a0807124:	00431021 	addu	v0,v0,v1
a0807128:	ac450010 	sw	a1,16(v0)
a080712c:	08201c71 	j	a08071c4 <do_fwrite+0x290>
a0807130:	00000000 	nop
a0807134:	8fc20040 	lw	v0,64(s8)
a0807138:	3c04a081 	lui	a0,0xa081
a080713c:	00021080 	sll	v0,v0,0x2
a0807140:	00021880 	sll	v1,v0,0x2
a0807144:	00431021 	addu	v0,v0,v1
a0807148:	24832c70 	addiu	v1,a0,11376
a080714c:	00431021 	addu	v0,v0,v1
a0807150:	8c420010 	lw	v0,16(v0)
a0807154:	30430fff 	andi	v1,v0,0xfff
a0807158:	8fc20010 	lw	v0,16(s8)
a080715c:	00431021 	addu	v0,v0,v1
a0807160:	8fc30044 	lw	v1,68(s8)
a0807164:	8fc60048 	lw	a2,72(s8)
a0807168:	00402021 	move	a0,v0
a080716c:	00602821 	move	a1,v1
a0807170:	0c2027fa 	jal	a0809fe8 <memcpy>
a0807174:	00000000 	nop
a0807178:	8fc60040 	lw	a2,64(s8)
a080717c:	8fc20040 	lw	v0,64(s8)
a0807180:	3c04a081 	lui	a0,0xa081
a0807184:	00021080 	sll	v0,v0,0x2
a0807188:	00021880 	sll	v1,v0,0x2
a080718c:	00431021 	addu	v0,v0,v1
a0807190:	24832c70 	addiu	v1,a0,11376
a0807194:	00431021 	addu	v0,v0,v1
a0807198:	8c430010 	lw	v1,16(v0)
a080719c:	8fc20048 	lw	v0,72(s8)
a08071a0:	00622821 	addu	a1,v1,v0
a08071a4:	3c04a081 	lui	a0,0xa081
a08071a8:	00c01021 	move	v0,a2
a08071ac:	00021080 	sll	v0,v0,0x2
a08071b0:	00021880 	sll	v1,v0,0x2
a08071b4:	00431021 	addu	v0,v0,v1
a08071b8:	24832c70 	addiu	v1,a0,11376
a08071bc:	00431021 	addu	v0,v0,v1
a08071c0:	ac450010 	sw	a1,16(v0)
a08071c4:	3c02a081 	lui	v0,0xa081
a08071c8:	8c4300f8 	lw	v1,248(v0)
a08071cc:	8fc2001c 	lw	v0,28(s8)
a08071d0:	00021180 	sll	v0,v0,0x6
a08071d4:	00621821 	addu	v1,v1,v0
a08071d8:	8fc20018 	lw	v0,24(s8)
a08071dc:	24420006 	addiu	v0,v0,6
a08071e0:	00021080 	sll	v0,v0,0x2
a08071e4:	00621021 	addu	v0,v1,v0
a08071e8:	8c420000 	lw	v0,0(v0)
a08071ec:	8fc40010 	lw	a0,16(s8)
a08071f0:	00402821 	move	a1,v0
a08071f4:	24061000 	li	a2,4096
a08071f8:	0c203716 	jal	a080dc58 <.pic.sdwrite>
a08071fc:	00000000 	nop
a0807200:	8fc50014 	lw	a1,20(s8)
a0807204:	8fc20040 	lw	v0,64(s8)
a0807208:	3c04a081 	lui	a0,0xa081
a080720c:	00021080 	sll	v0,v0,0x2
a0807210:	00021880 	sll	v1,v0,0x2
a0807214:	00431021 	addu	v0,v0,v1
a0807218:	24832c70 	addiu	v1,a0,11376
a080721c:	00431021 	addu	v0,v0,v1
a0807220:	8c420010 	lw	v0,16(v0)
a0807224:	30420fff 	andi	v0,v0,0xfff
a0807228:	00a21023 	subu	v0,a1,v0
a080722c:	24421000 	addiu	v0,v0,4096
a0807230:	afc20014 	sw	v0,20(s8)
a0807234:	8fc20018 	lw	v0,24(s8)
a0807238:	24420001 	addiu	v0,v0,1
a080723c:	afc20018 	sw	v0,24(s8)
a0807240:	08201d16 	j	a0807458 <do_fwrite+0x524>
a0807244:	00000000 	nop
a0807248:	8fc40010 	lw	a0,16(s8)
a080724c:	24051000 	li	a1,4096
a0807250:	0c202833 	jal	a080a0cc <bzero>
a0807254:	00000000 	nop
a0807258:	3c02a081 	lui	v0,0xa081
a080725c:	8c4300f8 	lw	v1,248(v0)
a0807260:	8fc2001c 	lw	v0,28(s8)
a0807264:	00021180 	sll	v0,v0,0x6
a0807268:	00621821 	addu	v1,v1,v0
a080726c:	8fc20018 	lw	v0,24(s8)
a0807270:	24420006 	addiu	v0,v0,6
a0807274:	00021080 	sll	v0,v0,0x2
a0807278:	00621021 	addu	v0,v1,v0
a080727c:	8c420000 	lw	v0,0(v0)
a0807280:	10400012 	beqz	v0,a08072cc <do_fwrite+0x398>
a0807284:	00000000 	nop
a0807288:	3c02a081 	lui	v0,0xa081
a080728c:	8c4300f8 	lw	v1,248(v0)
a0807290:	8fc2001c 	lw	v0,28(s8)
a0807294:	00021180 	sll	v0,v0,0x6
a0807298:	00621821 	addu	v1,v1,v0
a080729c:	8fc20018 	lw	v0,24(s8)
a08072a0:	24420006 	addiu	v0,v0,6
a08072a4:	00021080 	sll	v0,v0,0x2
a08072a8:	00621021 	addu	v0,v1,v0
a08072ac:	8c420000 	lw	v0,0(v0)
a08072b0:	8fc40010 	lw	a0,16(s8)
a08072b4:	00402821 	move	a1,v0
a08072b8:	24061000 	li	a2,4096
a08072bc:	0c203792 	jal	a080de48 <.pic.sdread>
a08072c0:	00000000 	nop
a08072c4:	08201cc0 	j	a0807300 <do_fwrite+0x3cc>
a08072c8:	00000000 	nop
a08072cc:	3c02a081 	lui	v0,0xa081
a08072d0:	8c4300f8 	lw	v1,248(v0)
a08072d4:	8fc2001c 	lw	v0,28(s8)
a08072d8:	00021180 	sll	v0,v0,0x6
a08072dc:	00628821 	addu	s1,v1,v0
a08072e0:	8fd00018 	lw	s0,24(s8)
a08072e4:	0c200eda 	jal	a0803b68 <alloc_datablk>
a08072e8:	00000000 	nop
a08072ec:	00401821 	move	v1,v0
a08072f0:	26020006 	addiu	v0,s0,6
a08072f4:	00021080 	sll	v0,v0,0x2
a08072f8:	02221021 	addu	v0,s1,v0
a08072fc:	ac430000 	sw	v1,0(v0)
a0807300:	8fc20014 	lw	v0,20(s8)
a0807304:	24431000 	addiu	v1,v0,4096
a0807308:	8fc20048 	lw	v0,72(s8)
a080730c:	0043102a 	slt	v0,v0,v1
a0807310:	1440001d 	bnez	v0,a0807388 <do_fwrite+0x454>
a0807314:	00000000 	nop
a0807318:	8fc40010 	lw	a0,16(s8)
a080731c:	8fc30044 	lw	v1,68(s8)
a0807320:	8fc20014 	lw	v0,20(s8)
a0807324:	00621021 	addu	v0,v1,v0
a0807328:	00402821 	move	a1,v0
a080732c:	24061000 	li	a2,4096
a0807330:	0c2027fa 	jal	a0809fe8 <memcpy>
a0807334:	00000000 	nop
a0807338:	8fc60040 	lw	a2,64(s8)
a080733c:	8fc20040 	lw	v0,64(s8)
a0807340:	3c04a081 	lui	a0,0xa081
a0807344:	00021080 	sll	v0,v0,0x2
a0807348:	00021880 	sll	v1,v0,0x2
a080734c:	00431021 	addu	v0,v0,v1
a0807350:	24832c70 	addiu	v1,a0,11376
a0807354:	00431021 	addu	v0,v0,v1
a0807358:	8c420010 	lw	v0,16(v0)
a080735c:	24451000 	addiu	a1,v0,4096
a0807360:	3c04a081 	lui	a0,0xa081
a0807364:	00c01021 	move	v0,a2
a0807368:	00021080 	sll	v0,v0,0x2
a080736c:	00021880 	sll	v1,v0,0x2
a0807370:	00431021 	addu	v0,v0,v1
a0807374:	24832c70 	addiu	v1,a0,11376
a0807378:	00431021 	addu	v0,v0,v1
a080737c:	ac450010 	sw	a1,16(v0)
a0807380:	08201d01 	j	a0807404 <do_fwrite+0x4d0>
a0807384:	00000000 	nop
a0807388:	8fc40010 	lw	a0,16(s8)
a080738c:	8fc30044 	lw	v1,68(s8)
a0807390:	8fc20014 	lw	v0,20(s8)
a0807394:	00622821 	addu	a1,v1,v0
a0807398:	8fc30048 	lw	v1,72(s8)
a080739c:	8fc20014 	lw	v0,20(s8)
a08073a0:	00621023 	subu	v0,v1,v0
a08073a4:	00403021 	move	a2,v0
a08073a8:	0c2027fa 	jal	a0809fe8 <memcpy>
a08073ac:	00000000 	nop
a08073b0:	8fc60040 	lw	a2,64(s8)
a08073b4:	8fc20040 	lw	v0,64(s8)
a08073b8:	3c04a081 	lui	a0,0xa081
a08073bc:	00021080 	sll	v0,v0,0x2
a08073c0:	00021880 	sll	v1,v0,0x2
a08073c4:	00431021 	addu	v0,v0,v1
a08073c8:	24832c70 	addiu	v1,a0,11376
a08073cc:	00431021 	addu	v0,v0,v1
a08073d0:	8c440010 	lw	a0,16(v0)
a08073d4:	8fc30048 	lw	v1,72(s8)
a08073d8:	8fc20014 	lw	v0,20(s8)
a08073dc:	00621023 	subu	v0,v1,v0
a08073e0:	00822821 	addu	a1,a0,v0
a08073e4:	3c04a081 	lui	a0,0xa081
a08073e8:	00c01021 	move	v0,a2
a08073ec:	00021080 	sll	v0,v0,0x2
a08073f0:	00021880 	sll	v1,v0,0x2
a08073f4:	00431021 	addu	v0,v0,v1
a08073f8:	24832c70 	addiu	v1,a0,11376
a08073fc:	00431021 	addu	v0,v0,v1
a0807400:	ac450010 	sw	a1,16(v0)
a0807404:	3c02a081 	lui	v0,0xa081
a0807408:	8c4300f8 	lw	v1,248(v0)
a080740c:	8fc2001c 	lw	v0,28(s8)
a0807410:	00021180 	sll	v0,v0,0x6
a0807414:	00621821 	addu	v1,v1,v0
a0807418:	8fc20018 	lw	v0,24(s8)
a080741c:	24420006 	addiu	v0,v0,6
a0807420:	00021080 	sll	v0,v0,0x2
a0807424:	00621021 	addu	v0,v1,v0
a0807428:	8c420000 	lw	v0,0(v0)
a080742c:	8fc40010 	lw	a0,16(s8)
a0807430:	00402821 	move	a1,v0
a0807434:	24061000 	li	a2,4096
a0807438:	0c203716 	jal	a080dc58 <.pic.sdwrite>
a080743c:	00000000 	nop
a0807440:	8fc20018 	lw	v0,24(s8)
a0807444:	24420001 	addiu	v0,v0,1
a0807448:	afc20018 	sw	v0,24(s8)
a080744c:	8fc20014 	lw	v0,20(s8)
a0807450:	24421000 	addiu	v0,v0,4096
a0807454:	afc20014 	sw	v0,20(s8)
a0807458:	8fc20014 	lw	v0,20(s8)
a080745c:	8fc30048 	lw	v1,72(s8)
a0807460:	0043102a 	slt	v0,v0,v1
a0807464:	1440ff78 	bnez	v0,a0807248 <do_fwrite+0x314>
a0807468:	00000000 	nop
a080746c:	3c02a081 	lui	v0,0xa081
a0807470:	8c4300f8 	lw	v1,248(v0)
a0807474:	8fc2001c 	lw	v0,28(s8)
a0807478:	00021180 	sll	v0,v0,0x6
a080747c:	00622021 	addu	a0,v1,v0
a0807480:	3c02a081 	lui	v0,0xa081
a0807484:	8c431420 	lw	v1,5152(v0)
a0807488:	3c026b5f 	lui	v0,0x6b5f
a080748c:	3442ca6b 	ori	v0,v0,0xca6b
a0807490:	00620019 	multu	v1,v0
a0807494:	00001010 	mfhi	v0
a0807498:	00021582 	srl	v0,v0,0x16
a080749c:	ac820010 	sw	v0,16(a0)
a08074a0:	3c02a081 	lui	v0,0xa081
a08074a4:	8c4300f8 	lw	v1,248(v0)
a08074a8:	8fc2001c 	lw	v0,28(s8)
a08074ac:	00021180 	sll	v0,v0,0x6
a08074b0:	00621821 	addu	v1,v1,v0
a08074b4:	afc30028 	sw	v1,40(s8)
a08074b8:	3c02a081 	lui	v0,0xa081
a08074bc:	8c4300f8 	lw	v1,248(v0)
a08074c0:	8fc2001c 	lw	v0,28(s8)
a08074c4:	00021180 	sll	v0,v0,0x6
a08074c8:	00621021 	addu	v0,v1,v0
a08074cc:	8c420014 	lw	v0,20(v0)
a08074d0:	8fc30018 	lw	v1,24(s8)
a08074d4:	afc30024 	sw	v1,36(s8)
a08074d8:	afc20020 	sw	v0,32(s8)
a08074dc:	8fc40020 	lw	a0,32(s8)
a08074e0:	8fc30024 	lw	v1,36(s8)
a08074e4:	0083102b 	sltu	v0,a0,v1
a08074e8:	10400003 	beqz	v0,a08074f8 <do_fwrite+0x5c4>
a08074ec:	00000000 	nop
a08074f0:	8fc40024 	lw	a0,36(s8)
a08074f4:	afc40020 	sw	a0,32(s8)
a08074f8:	8fc30020 	lw	v1,32(s8)
a08074fc:	8fc20028 	lw	v0,40(s8)
a0807500:	ac430014 	sw	v1,20(v0)
a0807504:	3c02a081 	lui	v0,0xa081
a0807508:	8c4300f8 	lw	v1,248(v0)
a080750c:	8fc2001c 	lw	v0,28(s8)
a0807510:	00021180 	sll	v0,v0,0x6
a0807514:	00622021 	addu	a0,v1,v0
a0807518:	3c02a081 	lui	v0,0xa081
a080751c:	8c4300f8 	lw	v1,248(v0)
a0807520:	8fc2001c 	lw	v0,28(s8)
a0807524:	00021180 	sll	v0,v0,0x6
a0807528:	00621021 	addu	v0,v1,v0
a080752c:	8c430008 	lw	v1,8(v0)
a0807530:	8fc20048 	lw	v0,72(s8)
a0807534:	00621021 	addu	v0,v1,v0
a0807538:	ac820008 	sw	v0,8(a0)
a080753c:	3c02a081 	lui	v0,0xa081
a0807540:	8c4300f8 	lw	v1,248(v0)
a0807544:	8fc2001c 	lw	v0,28(s8)
a0807548:	00021180 	sll	v0,v0,0x6
a080754c:	00621021 	addu	v0,v1,v0
a0807550:	8c420000 	lw	v0,0(v0)
a0807554:	00021182 	srl	v0,v0,0x6
a0807558:	00021b00 	sll	v1,v0,0xc
a080755c:	3c02a0f0 	lui	v0,0xa0f0
a0807560:	34424600 	ori	v0,v0,0x4600
a0807564:	00621021 	addu	v0,v1,v0
a0807568:	00402021 	move	a0,v0
a080756c:	3c02a081 	lui	v0,0xa081
a0807570:	8c4300f8 	lw	v1,248(v0)
a0807574:	8fc2001c 	lw	v0,28(s8)
a0807578:	00021180 	sll	v0,v0,0x6
a080757c:	00621021 	addu	v0,v1,v0
a0807580:	8c420000 	lw	v0,0(v0)
a0807584:	00021182 	srl	v0,v0,0x6
a0807588:	00021b00 	sll	v1,v0,0xc
a080758c:	3c021000 	lui	v0,0x1000
a0807590:	34424400 	ori	v0,v0,0x4400
a0807594:	00621021 	addu	v0,v1,v0
a0807598:	00402821 	move	a1,v0
a080759c:	24061000 	li	a2,4096
a08075a0:	0c203716 	jal	a080dc58 <.pic.sdwrite>
a08075a4:	00000000 	nop
a08075a8:	24020001 	li	v0,1
a08075ac:	03c0e821 	move	sp,s8
a08075b0:	8fbf003c 	lw	ra,60(sp)
a08075b4:	8fbe0038 	lw	s8,56(sp)
a08075b8:	8fb10034 	lw	s1,52(sp)
a08075bc:	8fb00030 	lw	s0,48(sp)
a08075c0:	27bd0040 	addiu	sp,sp,64
a08075c4:	03e00008 	jr	ra
a08075c8:	00000000 	nop

a08075cc <do_close>:
a08075cc:	27bdffe0 	addiu	sp,sp,-32
a08075d0:	afbf001c 	sw	ra,28(sp)
a08075d4:	afbe0018 	sw	s8,24(sp)
a08075d8:	03a0f021 	move	s8,sp
a08075dc:	afc40020 	sw	a0,32(s8)
a08075e0:	8fc20020 	lw	v0,32(s8)
a08075e4:	3c04a081 	lui	a0,0xa081
a08075e8:	00021080 	sll	v0,v0,0x2
a08075ec:	00021880 	sll	v1,v0,0x2
a08075f0:	00431021 	addu	v0,v0,v1
a08075f4:	24832c70 	addiu	v1,a0,11376
a08075f8:	00431021 	addu	v0,v0,v1
a08075fc:	8c420000 	lw	v0,0(v0)
a0807600:	afc20010 	sw	v0,16(s8)
a0807604:	3c02a081 	lui	v0,0xa081
a0807608:	8c4300f8 	lw	v1,248(v0)
a080760c:	8fc20010 	lw	v0,16(s8)
a0807610:	00021180 	sll	v0,v0,0x6
a0807614:	00622021 	addu	a0,v1,v0
a0807618:	3c02a081 	lui	v0,0xa081
a080761c:	8c431420 	lw	v1,5152(v0)
a0807620:	3c026b5f 	lui	v0,0x6b5f
a0807624:	3442ca6b 	ori	v0,v0,0xca6b
a0807628:	00620019 	multu	v1,v0
a080762c:	00001010 	mfhi	v0
a0807630:	00021582 	srl	v0,v0,0x16
a0807634:	ac820010 	sw	v0,16(a0)
a0807638:	3c02a081 	lui	v0,0xa081
a080763c:	8c4300f8 	lw	v1,248(v0)
a0807640:	8fc20010 	lw	v0,16(s8)
a0807644:	00021180 	sll	v0,v0,0x6
a0807648:	00621021 	addu	v0,v1,v0
a080764c:	8c420000 	lw	v0,0(v0)
a0807650:	00021182 	srl	v0,v0,0x6
a0807654:	00021b00 	sll	v1,v0,0xc
a0807658:	3c02a0f0 	lui	v0,0xa0f0
a080765c:	34424600 	ori	v0,v0,0x4600
a0807660:	00621021 	addu	v0,v1,v0
a0807664:	00402021 	move	a0,v0
a0807668:	3c02a081 	lui	v0,0xa081
a080766c:	8c4300f8 	lw	v1,248(v0)
a0807670:	8fc20010 	lw	v0,16(s8)
a0807674:	00021180 	sll	v0,v0,0x6
a0807678:	00621021 	addu	v0,v1,v0
a080767c:	8c420000 	lw	v0,0(v0)
a0807680:	00021182 	srl	v0,v0,0x6
a0807684:	00021b00 	sll	v1,v0,0xc
a0807688:	3c021000 	lui	v0,0x1000
a080768c:	34424400 	ori	v0,v0,0x4400
a0807690:	00621021 	addu	v0,v1,v0
a0807694:	00402821 	move	a1,v0
a0807698:	24061000 	li	a2,4096
a080769c:	0c203716 	jal	a080dc58 <.pic.sdwrite>
a08076a0:	00000000 	nop
a08076a4:	8fc20020 	lw	v0,32(s8)
a08076a8:	00021880 	sll	v1,v0,0x2
a08076ac:	00031080 	sll	v0,v1,0x2
a08076b0:	00621821 	addu	v1,v1,v0
a08076b4:	3c02a081 	lui	v0,0xa081
a08076b8:	24422c70 	addiu	v0,v0,11376
a08076bc:	00621021 	addu	v0,v1,v0
a08076c0:	00402021 	move	a0,v0
a08076c4:	24050014 	li	a1,20
a08076c8:	0c202833 	jal	a080a0cc <bzero>
a08076cc:	00000000 	nop
a08076d0:	03c0e821 	move	sp,s8
a08076d4:	8fbf001c 	lw	ra,28(sp)
a08076d8:	8fbe0018 	lw	s8,24(sp)
a08076dc:	27bd0020 	addiu	sp,sp,32
a08076e0:	03e00008 	jr	ra
a08076e4:	00000000 	nop

a08076e8 <do_cfs>:
a08076e8:	27bdffe8 	addiu	sp,sp,-24
a08076ec:	afbf0014 	sw	ra,20(sp)
a08076f0:	afbe0010 	sw	s8,16(sp)
a08076f4:	03a0f021 	move	s8,sp
a08076f8:	3c02a081 	lui	v0,0xa081
a08076fc:	8c4200c4 	lw	v0,196(v0)
a0807700:	00402021 	move	a0,v0
a0807704:	24050200 	li	a1,512
a0807708:	0c202833 	jal	a080a0cc <bzero>
a080770c:	00000000 	nop
a0807710:	3c02a081 	lui	v0,0xa081
a0807714:	8c4200c4 	lw	v0,196(v0)
a0807718:	00402021 	move	a0,v0
a080771c:	3c051000 	lui	a1,0x1000
a0807720:	24060200 	li	a2,512
a0807724:	0c203716 	jal	a080dc58 <.pic.sdwrite>
a0807728:	00000000 	nop
a080772c:	3c02a081 	lui	v0,0xa081
a0807730:	2444ead0 	addiu	a0,v0,-5424
a0807734:	0c202b4d 	jal	a080ad34 <my_printk>
a0807738:	00000000 	nop
a080773c:	03c0e821 	move	sp,s8
a0807740:	8fbf0014 	lw	ra,20(sp)
a0807744:	8fbe0010 	lw	s8,16(sp)
a0807748:	27bd0018 	addiu	sp,sp,24
a080774c:	03e00008 	jr	ra
a0807750:	00000000 	nop
	...

a0807760 <check_sleeping>:
a0807760:	27bdffd8 	addiu	sp,sp,-40
a0807764:	afbf0024 	sw	ra,36(sp)
a0807768:	afbe0020 	sw	s8,32(sp)
a080776c:	03a0f021 	move	s8,sp
a0807770:	3c02a081 	lui	v0,0xa081
a0807774:	8c4200e8 	lw	v0,232(v0)
a0807778:	afc20018 	sw	v0,24(s8)
a080777c:	0c202232 	jal	a08088c8 <get_timer>
a0807780:	00000000 	nop
a0807784:	afc20014 	sw	v0,20(s8)
a0807788:	08201e08 	j	a0807820 <check_sleeping+0xc0>
a080778c:	00000000 	nop
a0807790:	8fc20018 	lw	v0,24(s8)
a0807794:	8c430174 	lw	v1,372(v0)
a0807798:	8fc20014 	lw	v0,20(s8)
a080779c:	00431823 	subu	v1,v0,v1
a08077a0:	8fc20018 	lw	v0,24(s8)
a08077a4:	8c420178 	lw	v0,376(v0)
a08077a8:	0062102b 	sltu	v0,v1,v0
a08077ac:	14400019 	bnez	v0,a0807814 <check_sleeping+0xb4>
a08077b0:	00000000 	nop
a08077b4:	3c02a081 	lui	v0,0xa081
a08077b8:	244400e8 	addiu	a0,v0,232
a08077bc:	8fc50018 	lw	a1,24(s8)
a08077c0:	0c2021db 	jal	a080876c <queue_remove>
a08077c4:	00000000 	nop
a08077c8:	afc20010 	sw	v0,16(s8)
a08077cc:	8fc20018 	lw	v0,24(s8)
a08077d0:	ac400178 	sw	zero,376(v0)
a08077d4:	8fc30018 	lw	v1,24(s8)
a08077d8:	24020002 	li	v0,2
a08077dc:	ac620198 	sw	v0,408(v1)
a08077e0:	8fc30018 	lw	v1,24(s8)
a08077e4:	3c02a081 	lui	v0,0xa081
a08077e8:	244200d4 	addiu	v0,v0,212
a08077ec:	ac620190 	sw	v0,400(v1)
a08077f0:	3c02a081 	lui	v0,0xa081
a08077f4:	244400d4 	addiu	a0,v0,212
a08077f8:	8fc50018 	lw	a1,24(s8)
a08077fc:	0c20218c 	jal	a0808630 <priority_queue_push>
a0807800:	00000000 	nop
a0807804:	8fc20010 	lw	v0,16(s8)
a0807808:	afc20018 	sw	v0,24(s8)
a080780c:	08201e08 	j	a0807820 <check_sleeping+0xc0>
a0807810:	00000000 	nop
a0807814:	8fc20018 	lw	v0,24(s8)
a0807818:	8c420188 	lw	v0,392(v0)
a080781c:	afc20018 	sw	v0,24(s8)
a0807820:	8fc20018 	lw	v0,24(s8)
a0807824:	1440ffda 	bnez	v0,a0807790 <check_sleeping+0x30>
a0807828:	00000000 	nop
a080782c:	03c0e821 	move	sp,s8
a0807830:	8fbf0024 	lw	ra,36(sp)
a0807834:	8fbe0020 	lw	s8,32(sp)
a0807838:	27bd0028 	addiu	sp,sp,40
a080783c:	03e00008 	jr	ra
a0807840:	00000000 	nop

a0807844 <scheduler>:
a0807844:	27bdffe0 	addiu	sp,sp,-32
a0807848:	afbf001c 	sw	ra,28(sp)
a080784c:	afbe0018 	sw	s8,24(sp)
a0807850:	03a0f021 	move	s8,sp
a0807854:	0c201dd8 	jal	a0807760 <check_sleeping>
a0807858:	00000000 	nop
a080785c:	3c02a081 	lui	v0,0xa081
a0807860:	244400d4 	addiu	a0,v0,212
a0807864:	0c20214f 	jal	a080853c <queue_is_empty>
a0807868:	00000000 	nop
a080786c:	10400006 	beqz	v0,a0807888 <scheduler+0x44>
a0807870:	00000000 	nop
a0807874:	3c02a081 	lui	v0,0xa081
a0807878:	8c420100 	lw	v0,256(v0)
a080787c:	afc20014 	sw	v0,20(s8)
a0807880:	08201e27 	j	a080789c <scheduler+0x58>
a0807884:	00000000 	nop
a0807888:	3c02a081 	lui	v0,0xa081
a080788c:	244400d4 	addiu	a0,v0,212
a0807890:	0c2021b6 	jal	a08086d8 <queue_dequeue>
a0807894:	00000000 	nop
a0807898:	afc20014 	sw	v0,20(s8)
a080789c:	3c02a081 	lui	v0,0xa081
a08078a0:	8c420100 	lw	v0,256(v0)
a08078a4:	8c420198 	lw	v0,408(v0)
a08078a8:	1040001c 	beqz	v0,a080791c <scheduler+0xd8>
a08078ac:	00000000 	nop
a08078b0:	3c02a081 	lui	v0,0xa081
a08078b4:	8c430100 	lw	v1,256(v0)
a08078b8:	8fc20014 	lw	v0,20(s8)
a08078bc:	10430017 	beq	v0,v1,a080791c <scheduler+0xd8>
a08078c0:	00000000 	nop
a08078c4:	3c02a081 	lui	v0,0xa081
a08078c8:	8c420100 	lw	v0,256(v0)
a08078cc:	8c430198 	lw	v1,408(v0)
a08078d0:	24020003 	li	v0,3
a08078d4:	10620011 	beq	v1,v0,a080791c <scheduler+0xd8>
a08078d8:	00000000 	nop
a08078dc:	3c02a081 	lui	v0,0xa081
a08078e0:	8c430100 	lw	v1,256(v0)
a08078e4:	24020002 	li	v0,2
a08078e8:	ac620198 	sw	v0,408(v1)
a08078ec:	3c02a081 	lui	v0,0xa081
a08078f0:	8c430100 	lw	v1,256(v0)
a08078f4:	3c02a081 	lui	v0,0xa081
a08078f8:	244200d4 	addiu	v0,v0,212
a08078fc:	ac620190 	sw	v0,400(v1)
a0807900:	3c02a081 	lui	v0,0xa081
a0807904:	8c430100 	lw	v1,256(v0)
a0807908:	3c02a081 	lui	v0,0xa081
a080790c:	244400d4 	addiu	a0,v0,212
a0807910:	00602821 	move	a1,v1
a0807914:	0c20218c 	jal	a0808630 <priority_queue_push>
a0807918:	00000000 	nop
a080791c:	3c03a081 	lui	v1,0xa081
a0807920:	8fc20014 	lw	v0,20(s8)
a0807924:	ac620100 	sw	v0,256(v1)
a0807928:	3c02a081 	lui	v0,0xa081
a080792c:	8c430100 	lw	v1,256(v0)
a0807930:	3c02a081 	lui	v0,0xa081
a0807934:	8c420100 	lw	v0,256(v0)
a0807938:	8c4201a0 	lw	v0,416(v0)
a080793c:	ac62019c 	sw	v0,412(v1)
a0807940:	3c02a081 	lui	v0,0xa081
a0807944:	8c430100 	lw	v1,256(v0)
a0807948:	24020001 	li	v0,1
a080794c:	ac620198 	sw	v0,408(v1)
a0807950:	3c02a081 	lui	v0,0xa081
a0807954:	8c420100 	lw	v0,256(v0)
a0807958:	ac400190 	sw	zero,400(v0)
a080795c:	3c02a081 	lui	v0,0xa081
a0807960:	8c4200d4 	lw	v0,212(v0)
a0807964:	afc20010 	sw	v0,16(s8)
a0807968:	08201e64 	j	a0807990 <scheduler+0x14c>
a080796c:	00000000 	nop
a0807970:	8fc20010 	lw	v0,16(s8)
a0807974:	8c42019c 	lw	v0,412(v0)
a0807978:	24430001 	addiu	v1,v0,1
a080797c:	8fc20010 	lw	v0,16(s8)
a0807980:	ac43019c 	sw	v1,412(v0)
a0807984:	8fc20010 	lw	v0,16(s8)
a0807988:	8c420188 	lw	v0,392(v0)
a080798c:	afc20010 	sw	v0,16(s8)
a0807990:	8fc20010 	lw	v0,16(s8)
a0807994:	1440fff6 	bnez	v0,a0807970 <scheduler+0x12c>
a0807998:	00000000 	nop
a080799c:	03c0e821 	move	sp,s8
a08079a0:	8fbf001c 	lw	ra,28(sp)
a08079a4:	8fbe0018 	lw	s8,24(sp)
a08079a8:	27bd0020 	addiu	sp,sp,32
a08079ac:	03e00008 	jr	ra
a08079b0:	00000000 	nop

a08079b4 <do_sleep>:
a08079b4:	27bdffe0 	addiu	sp,sp,-32
a08079b8:	afbf001c 	sw	ra,28(sp)
a08079bc:	afbe0018 	sw	s8,24(sp)
a08079c0:	afb00014 	sw	s0,20(sp)
a08079c4:	03a0f021 	move	s8,sp
a08079c8:	afc40020 	sw	a0,32(s8)
a08079cc:	3c02a081 	lui	v0,0xa081
a08079d0:	8c420100 	lw	v0,256(v0)
a08079d4:	ac400198 	sw	zero,408(v0)
a08079d8:	3c02a081 	lui	v0,0xa081
a08079dc:	8c430100 	lw	v1,256(v0)
a08079e0:	3c02a081 	lui	v0,0xa081
a08079e4:	244200e8 	addiu	v0,v0,232
a08079e8:	ac620190 	sw	v0,400(v1)
a08079ec:	3c02a081 	lui	v0,0xa081
a08079f0:	8c500100 	lw	s0,256(v0)
a08079f4:	0c202232 	jal	a08088c8 <get_timer>
a08079f8:	00000000 	nop
a08079fc:	ae020174 	sw	v0,372(s0)
a0807a00:	3c02a081 	lui	v0,0xa081
a0807a04:	8c430100 	lw	v1,256(v0)
a0807a08:	8fc20020 	lw	v0,32(s8)
a0807a0c:	ac620178 	sw	v0,376(v1)
a0807a10:	3c02a081 	lui	v0,0xa081
a0807a14:	8c430100 	lw	v1,256(v0)
a0807a18:	3c02a081 	lui	v0,0xa081
a0807a1c:	244400e8 	addiu	a0,v0,232
a0807a20:	00602821 	move	a1,v1
a0807a24:	0c202162 	jal	a0808588 <queue_push>
a0807a28:	00000000 	nop
a0807a2c:	0c20010a 	jal	a0800428 <do_scheduler>
a0807a30:	00000000 	nop
a0807a34:	03c0e821 	move	sp,s8
a0807a38:	8fbf001c 	lw	ra,28(sp)
a0807a3c:	8fbe0018 	lw	s8,24(sp)
a0807a40:	8fb00014 	lw	s0,20(sp)
a0807a44:	27bd0020 	addiu	sp,sp,32
a0807a48:	03e00008 	jr	ra
a0807a4c:	00000000 	nop

a0807a50 <do_block>:
a0807a50:	27bdffe8 	addiu	sp,sp,-24
a0807a54:	afbf0014 	sw	ra,20(sp)
a0807a58:	afbe0010 	sw	s8,16(sp)
a0807a5c:	03a0f021 	move	s8,sp
a0807a60:	afc40018 	sw	a0,24(s8)
a0807a64:	3c02a081 	lui	v0,0xa081
a0807a68:	8c420100 	lw	v0,256(v0)
a0807a6c:	ac400198 	sw	zero,408(v0)
a0807a70:	3c02a081 	lui	v0,0xa081
a0807a74:	8c430100 	lw	v1,256(v0)
a0807a78:	8fc20018 	lw	v0,24(s8)
a0807a7c:	ac620190 	sw	v0,400(v1)
a0807a80:	3c02a081 	lui	v0,0xa081
a0807a84:	8c420100 	lw	v0,256(v0)
a0807a88:	8fc40018 	lw	a0,24(s8)
a0807a8c:	00402821 	move	a1,v0
a0807a90:	0c20218c 	jal	a0808630 <priority_queue_push>
a0807a94:	00000000 	nop
a0807a98:	0c20010a 	jal	a0800428 <do_scheduler>
a0807a9c:	00000000 	nop
a0807aa0:	03c0e821 	move	sp,s8
a0807aa4:	8fbf0014 	lw	ra,20(sp)
a0807aa8:	8fbe0010 	lw	s8,16(sp)
a0807aac:	27bd0018 	addiu	sp,sp,24
a0807ab0:	03e00008 	jr	ra
a0807ab4:	00000000 	nop

a0807ab8 <do_unblock_one>:
a0807ab8:	27bdffe0 	addiu	sp,sp,-32
a0807abc:	afbf001c 	sw	ra,28(sp)
a0807ac0:	afbe0018 	sw	s8,24(sp)
a0807ac4:	03a0f021 	move	s8,sp
a0807ac8:	afc40020 	sw	a0,32(s8)
a0807acc:	8fc20020 	lw	v0,32(s8)
a0807ad0:	8c420000 	lw	v0,0(v0)
a0807ad4:	afc20014 	sw	v0,20(s8)
a0807ad8:	08201ec0 	j	a0807b00 <do_unblock_one+0x48>
a0807adc:	00000000 	nop
a0807ae0:	8fc20014 	lw	v0,20(s8)
a0807ae4:	8c42019c 	lw	v0,412(v0)
a0807ae8:	24430001 	addiu	v1,v0,1
a0807aec:	8fc20014 	lw	v0,20(s8)
a0807af0:	ac43019c 	sw	v1,412(v0)
a0807af4:	8fc20014 	lw	v0,20(s8)
a0807af8:	8c420188 	lw	v0,392(v0)
a0807afc:	afc20014 	sw	v0,20(s8)
a0807b00:	8fc20014 	lw	v0,20(s8)
a0807b04:	1440fff6 	bnez	v0,a0807ae0 <do_unblock_one+0x28>
a0807b08:	00000000 	nop
a0807b0c:	8fc40020 	lw	a0,32(s8)
a0807b10:	0c2021b6 	jal	a08086d8 <queue_dequeue>
a0807b14:	00000000 	nop
a0807b18:	afc20010 	sw	v0,16(s8)
a0807b1c:	8fc30010 	lw	v1,16(s8)
a0807b20:	24020002 	li	v0,2
a0807b24:	ac620198 	sw	v0,408(v1)
a0807b28:	8fc30010 	lw	v1,16(s8)
a0807b2c:	3c02a081 	lui	v0,0xa081
a0807b30:	244200d4 	addiu	v0,v0,212
a0807b34:	ac620190 	sw	v0,400(v1)
a0807b38:	3c02a081 	lui	v0,0xa081
a0807b3c:	244400d4 	addiu	a0,v0,212
a0807b40:	8fc50010 	lw	a1,16(s8)
a0807b44:	0c20218c 	jal	a0808630 <priority_queue_push>
a0807b48:	00000000 	nop
a0807b4c:	03c0e821 	move	sp,s8
a0807b50:	8fbf001c 	lw	ra,28(sp)
a0807b54:	8fbe0018 	lw	s8,24(sp)
a0807b58:	27bd0020 	addiu	sp,sp,32
a0807b5c:	03e00008 	jr	ra
a0807b60:	00000000 	nop

a0807b64 <do_unblock_all>:
a0807b64:	27bdffe0 	addiu	sp,sp,-32
a0807b68:	afbf001c 	sw	ra,28(sp)
a0807b6c:	afbe0018 	sw	s8,24(sp)
a0807b70:	03a0f021 	move	s8,sp
a0807b74:	afc40020 	sw	a0,32(s8)
a0807b78:	08201ef0 	j	a0807bc0 <do_unblock_all+0x5c>
a0807b7c:	00000000 	nop
a0807b80:	8fc40020 	lw	a0,32(s8)
a0807b84:	0c2021b6 	jal	a08086d8 <queue_dequeue>
a0807b88:	00000000 	nop
a0807b8c:	afc20010 	sw	v0,16(s8)
a0807b90:	8fc30010 	lw	v1,16(s8)
a0807b94:	24020002 	li	v0,2
a0807b98:	ac620198 	sw	v0,408(v1)
a0807b9c:	8fc30010 	lw	v1,16(s8)
a0807ba0:	3c02a081 	lui	v0,0xa081
a0807ba4:	244200d4 	addiu	v0,v0,212
a0807ba8:	ac620190 	sw	v0,400(v1)
a0807bac:	3c02a081 	lui	v0,0xa081
a0807bb0:	244400d4 	addiu	a0,v0,212
a0807bb4:	8fc50010 	lw	a1,16(s8)
a0807bb8:	0c20218c 	jal	a0808630 <priority_queue_push>
a0807bbc:	00000000 	nop
a0807bc0:	8fc40020 	lw	a0,32(s8)
a0807bc4:	0c20214f 	jal	a080853c <queue_is_empty>
a0807bc8:	00000000 	nop
a0807bcc:	1040ffec 	beqz	v0,a0807b80 <do_unblock_all+0x1c>
a0807bd0:	00000000 	nop
a0807bd4:	03c0e821 	move	sp,s8
a0807bd8:	8fbf001c 	lw	ra,28(sp)
a0807bdc:	8fbe0018 	lw	s8,24(sp)
a0807be0:	27bd0020 	addiu	sp,sp,32
a0807be4:	03e00008 	jr	ra
a0807be8:	00000000 	nop

a0807bec <do_getpid>:
a0807bec:	27bdfff8 	addiu	sp,sp,-8
a0807bf0:	afbe0004 	sw	s8,4(sp)
a0807bf4:	03a0f021 	move	s8,sp
a0807bf8:	3c02a081 	lui	v0,0xa081
a0807bfc:	8c420100 	lw	v0,256(v0)
a0807c00:	8c42018c 	lw	v0,396(v0)
a0807c04:	03c0e821 	move	sp,s8
a0807c08:	8fbe0004 	lw	s8,4(sp)
a0807c0c:	27bd0008 	addiu	sp,sp,8
a0807c10:	03e00008 	jr	ra
a0807c14:	00000000 	nop

a0807c18 <do_ps>:
a0807c18:	27bdffe0 	addiu	sp,sp,-32
a0807c1c:	afbf001c 	sw	ra,28(sp)
a0807c20:	afbe0018 	sw	s8,24(sp)
a0807c24:	03a0f021 	move	s8,sp
a0807c28:	24020001 	li	v0,1
a0807c2c:	afc20014 	sw	v0,20(s8)
a0807c30:	3c02a081 	lui	v0,0xa081
a0807c34:	8c4200d4 	lw	v0,212(v0)
a0807c38:	afc20010 	sw	v0,16(s8)
a0807c3c:	3c02a081 	lui	v0,0xa081
a0807c40:	2444eaf0 	addiu	a0,v0,-5392
a0807c44:	0c202b4d 	jal	a080ad34 <my_printk>
a0807c48:	00000000 	nop
a0807c4c:	3c02a081 	lui	v0,0xa081
a0807c50:	8c420100 	lw	v0,256(v0)
a0807c54:	8c43018c 	lw	v1,396(v0)
a0807c58:	3c02a081 	lui	v0,0xa081
a0807c5c:	2444eb04 	addiu	a0,v0,-5372
a0807c60:	00602821 	move	a1,v1
a0807c64:	0c202b4d 	jal	a080ad34 <my_printk>
a0807c68:	00000000 	nop
a0807c6c:	08201f2b 	j	a0807cac <do_ps+0x94>
a0807c70:	00000000 	nop
a0807c74:	8fc50014 	lw	a1,20(s8)
a0807c78:	8fc20014 	lw	v0,20(s8)
a0807c7c:	24420001 	addiu	v0,v0,1
a0807c80:	afc20014 	sw	v0,20(s8)
a0807c84:	8fc20010 	lw	v0,16(s8)
a0807c88:	8c43018c 	lw	v1,396(v0)
a0807c8c:	3c02a081 	lui	v0,0xa081
a0807c90:	2444eb24 	addiu	a0,v0,-5340
a0807c94:	00603021 	move	a2,v1
a0807c98:	0c202b4d 	jal	a080ad34 <my_printk>
a0807c9c:	00000000 	nop
a0807ca0:	8fc20010 	lw	v0,16(s8)
a0807ca4:	8c420188 	lw	v0,392(v0)
a0807ca8:	afc20010 	sw	v0,16(s8)
a0807cac:	8fc20010 	lw	v0,16(s8)
a0807cb0:	1440fff0 	bnez	v0,a0807c74 <do_ps+0x5c>
a0807cb4:	00000000 	nop
a0807cb8:	3c02a081 	lui	v0,0xa081
a0807cbc:	8c4200e8 	lw	v0,232(v0)
a0807cc0:	afc20010 	sw	v0,16(s8)
a0807cc4:	08201f41 	j	a0807d04 <do_ps+0xec>
a0807cc8:	00000000 	nop
a0807ccc:	8fc50014 	lw	a1,20(s8)
a0807cd0:	8fc20014 	lw	v0,20(s8)
a0807cd4:	24420001 	addiu	v0,v0,1
a0807cd8:	afc20014 	sw	v0,20(s8)
a0807cdc:	8fc20010 	lw	v0,16(s8)
a0807ce0:	8c43018c 	lw	v1,396(v0)
a0807ce4:	3c02a081 	lui	v0,0xa081
a0807ce8:	2444eb44 	addiu	a0,v0,-5308
a0807cec:	00603021 	move	a2,v1
a0807cf0:	0c202b4d 	jal	a080ad34 <my_printk>
a0807cf4:	00000000 	nop
a0807cf8:	8fc20010 	lw	v0,16(s8)
a0807cfc:	8c420188 	lw	v0,392(v0)
a0807d00:	afc20010 	sw	v0,16(s8)
a0807d04:	8fc20010 	lw	v0,16(s8)
a0807d08:	1440fff0 	bnez	v0,a0807ccc <do_ps+0xb4>
a0807d0c:	00000000 	nop
a0807d10:	03c0e821 	move	sp,s8
a0807d14:	8fbf001c 	lw	ra,28(sp)
a0807d18:	8fbe0018 	lw	s8,24(sp)
a0807d1c:	27bd0020 	addiu	sp,sp,32
a0807d20:	03e00008 	jr	ra
a0807d24:	00000000 	nop

a0807d28 <do_clear>:
a0807d28:	27bdffe8 	addiu	sp,sp,-24
a0807d2c:	afbf0014 	sw	ra,20(sp)
a0807d30:	afbe0010 	sw	s8,16(sp)
a0807d34:	03a0f021 	move	s8,sp
a0807d38:	24040010 	li	a0,16
a0807d3c:	2405001e 	li	a1,30
a0807d40:	0c2003f3 	jal	a0800fcc <screen_clear>
a0807d44:	00000000 	nop
a0807d48:	00002021 	move	a0,zero
a0807d4c:	24050010 	li	a1,16
a0807d50:	0c200430 	jal	a08010c0 <screen_move_cursor>
a0807d54:	00000000 	nop
a0807d58:	03c0e821 	move	sp,s8
a0807d5c:	8fbf0014 	lw	ra,20(sp)
a0807d60:	8fbe0010 	lw	s8,16(sp)
a0807d64:	27bd0018 	addiu	sp,sp,24
a0807d68:	03e00008 	jr	ra
a0807d6c:	00000000 	nop

a0807d70 <do_clear_all>:
a0807d70:	27bdffe8 	addiu	sp,sp,-24
a0807d74:	afbf0014 	sw	ra,20(sp)
a0807d78:	afbe0010 	sw	s8,16(sp)
a0807d7c:	03a0f021 	move	s8,sp
a0807d80:	00002021 	move	a0,zero
a0807d84:	2405001e 	li	a1,30
a0807d88:	0c2003f3 	jal	a0800fcc <screen_clear>
a0807d8c:	00000000 	nop
a0807d90:	00002021 	move	a0,zero
a0807d94:	2405000f 	li	a1,15
a0807d98:	0c200430 	jal	a08010c0 <screen_move_cursor>
a0807d9c:	00000000 	nop
a0807da0:	3c02a081 	lui	v0,0xa081
a0807da4:	2444eb64 	addiu	a0,v0,-5276
a0807da8:	0c202b4d 	jal	a080ad34 <my_printk>
a0807dac:	00000000 	nop
a0807db0:	03c0e821 	move	sp,s8
a0807db4:	8fbf0014 	lw	ra,20(sp)
a0807db8:	8fbe0010 	lw	s8,16(sp)
a0807dbc:	27bd0018 	addiu	sp,sp,24
a0807dc0:	03e00008 	jr	ra
a0807dc4:	00000000 	nop

a0807dc8 <new_stack>:
a0807dc8:	27bdfff0 	addiu	sp,sp,-16
a0807dcc:	afbe000c 	sw	s8,12(sp)
a0807dd0:	03a0f021 	move	s8,sp
a0807dd4:	3c02a081 	lui	v0,0xa081
a0807dd8:	8c42f760 	lw	v0,-2208(v0)
a0807ddc:	afc20000 	sw	v0,0(s8)
a0807de0:	3c02a081 	lui	v0,0xa081
a0807de4:	8c42f764 	lw	v0,-2204(v0)
a0807de8:	04410009 	bgez	v0,a0807e10 <new_stack+0x48>
a0807dec:	00000000 	nop
a0807df0:	3c02a081 	lui	v0,0xa081
a0807df4:	8c43f760 	lw	v1,-2208(v0)
a0807df8:	3c02ffff 	lui	v0,0xffff
a0807dfc:	00621821 	addu	v1,v1,v0
a0807e00:	3c02a081 	lui	v0,0xa081
a0807e04:	ac43f760 	sw	v1,-2208(v0)
a0807e08:	08201f8f 	j	a0807e3c <new_stack+0x74>
a0807e0c:	00000000 	nop
a0807e10:	3c02a081 	lui	v0,0xa081
a0807e14:	8c44f764 	lw	a0,-2204(v0)
a0807e18:	3c02a081 	lui	v0,0xa081
a0807e1c:	00041880 	sll	v1,a0,0x2
a0807e20:	24422bd0 	addiu	v0,v0,11216
a0807e24:	00621021 	addu	v0,v1,v0
a0807e28:	8c420000 	lw	v0,0(v0)
a0807e2c:	afc20000 	sw	v0,0(s8)
a0807e30:	2483ffff 	addiu	v1,a0,-1
a0807e34:	3c02a081 	lui	v0,0xa081
a0807e38:	ac43f764 	sw	v1,-2204(v0)
a0807e3c:	8fc20000 	lw	v0,0(s8)
a0807e40:	03c0e821 	move	sp,s8
a0807e44:	8fbe000c 	lw	s8,12(sp)
a0807e48:	27bd0010 	addiu	sp,sp,16
a0807e4c:	03e00008 	jr	ra
a0807e50:	00000000 	nop

a0807e54 <do_spawn>:
a0807e54:	27bdffe0 	addiu	sp,sp,-32
a0807e58:	afbf001c 	sw	ra,28(sp)
a0807e5c:	afbe0018 	sw	s8,24(sp)
a0807e60:	03a0f021 	move	s8,sp
a0807e64:	afc40020 	sw	a0,32(s8)
a0807e68:	3c02a081 	lui	v0,0xa081
a0807e6c:	244400c8 	addiu	a0,v0,200
a0807e70:	0c20214f 	jal	a080853c <queue_is_empty>
a0807e74:	00000000 	nop
a0807e78:	10400012 	beqz	v0,a0807ec4 <do_spawn+0x70>
a0807e7c:	00000000 	nop
a0807e80:	3c02a081 	lui	v0,0xa081
a0807e84:	8c4400f0 	lw	a0,240(v0)
a0807e88:	00801021 	move	v0,a0
a0807e8c:	00021880 	sll	v1,v0,0x2
a0807e90:	000310c0 	sll	v0,v1,0x3
a0807e94:	00431023 	subu	v0,v0,v1
a0807e98:	00021900 	sll	v1,v0,0x4
a0807e9c:	00621823 	subu	v1,v1,v0
a0807ea0:	3c02a081 	lui	v0,0xa081
a0807ea4:	244241f0 	addiu	v0,v0,16880
a0807ea8:	00621021 	addu	v0,v1,v0
a0807eac:	afc20010 	sw	v0,16(s8)
a0807eb0:	24830001 	addiu	v1,a0,1
a0807eb4:	3c02a081 	lui	v0,0xa081
a0807eb8:	ac4300f0 	sw	v1,240(v0)
a0807ebc:	08201fb6 	j	a0807ed8 <do_spawn+0x84>
a0807ec0:	00000000 	nop
a0807ec4:	3c02a081 	lui	v0,0xa081
a0807ec8:	244400c8 	addiu	a0,v0,200
a0807ecc:	0c2021b6 	jal	a08086d8 <queue_dequeue>
a0807ed0:	00000000 	nop
a0807ed4:	afc20010 	sw	v0,16(s8)
a0807ed8:	8fc20010 	lw	v0,16(s8)
a0807edc:	00402021 	move	a0,v0
a0807ee0:	2405009c 	li	a1,156
a0807ee4:	0c202833 	jal	a080a0cc <bzero>
a0807ee8:	00000000 	nop
a0807eec:	8fc20010 	lw	v0,16(s8)
a0807ef0:	2442009c 	addiu	v0,v0,156
a0807ef4:	00402021 	move	a0,v0
a0807ef8:	2405009c 	li	a1,156
a0807efc:	0c202833 	jal	a080a0cc <bzero>
a0807f00:	00000000 	nop
a0807f04:	0c201f72 	jal	a0807dc8 <new_stack>
a0807f08:	00000000 	nop
a0807f0c:	00401821 	move	v1,v0
a0807f10:	8fc20010 	lw	v0,16(s8)
a0807f14:	ac430074 	sw	v1,116(v0)
a0807f18:	8fc20010 	lw	v0,16(s8)
a0807f1c:	8c430074 	lw	v1,116(v0)
a0807f20:	8fc20010 	lw	v0,16(s8)
a0807f24:	ac430138 	sw	v1,312(v0)
a0807f28:	0c201f72 	jal	a0807dc8 <new_stack>
a0807f2c:	00000000 	nop
a0807f30:	00401821 	move	v1,v0
a0807f34:	8fc20010 	lw	v0,16(s8)
a0807f38:	ac430110 	sw	v1,272(v0)
a0807f3c:	8fc20010 	lw	v0,16(s8)
a0807f40:	8c430110 	lw	v1,272(v0)
a0807f44:	8fc20010 	lw	v0,16(s8)
a0807f48:	ac43013c 	sw	v1,316(v0)
a0807f4c:	3c02a080 	lui	v0,0xa080
a0807f50:	24430758 	addiu	v1,v0,1880
a0807f54:	8fc20010 	lw	v0,16(s8)
a0807f58:	ac43007c 	sw	v1,124(v0)
a0807f5c:	8fc30010 	lw	v1,16(s8)
a0807f60:	3c021000 	lui	v0,0x1000
a0807f64:	34428003 	ori	v0,v0,0x8003
a0807f68:	ac620080 	sw	v0,128(v1)
a0807f6c:	8fc20020 	lw	v0,32(s8)
a0807f70:	8c430004 	lw	v1,4(v0)
a0807f74:	8fc20010 	lw	v0,16(s8)
a0807f78:	ac430094 	sw	v1,148(v0)
a0807f7c:	8fc20020 	lw	v0,32(s8)
a0807f80:	8c430004 	lw	v1,4(v0)
a0807f84:	8fc20010 	lw	v0,16(s8)
a0807f88:	ac430118 	sw	v1,280(v0)
a0807f8c:	8fc30010 	lw	v1,16(s8)
a0807f90:	3c021000 	lui	v0,0x1000
a0807f94:	34428003 	ori	v0,v0,0x8003
a0807f98:	ac62011c 	sw	v0,284(v1)
a0807f9c:	8fc20020 	lw	v0,32(s8)
a0807fa0:	8c430004 	lw	v1,4(v0)
a0807fa4:	8fc20010 	lw	v0,16(s8)
a0807fa8:	ac430130 	sw	v1,304(v0)
a0807fac:	8fc30010 	lw	v1,16(s8)
a0807fb0:	2402ffff 	li	v0,-1
a0807fb4:	ac620150 	sw	v0,336(v1)
a0807fb8:	8fc20010 	lw	v0,16(s8)
a0807fbc:	2442016c 	addiu	v0,v0,364
a0807fc0:	00402021 	move	a0,v0
a0807fc4:	0c202140 	jal	a0808500 <queue_init>
a0807fc8:	00000000 	nop
a0807fcc:	8fc30010 	lw	v1,16(s8)
a0807fd0:	3c02a081 	lui	v0,0xa081
a0807fd4:	244241f0 	addiu	v0,v0,16880
a0807fd8:	00621023 	subu	v0,v1,v0
a0807fdc:	00021882 	srl	v1,v0,0x2
a0807fe0:	3c024e04 	lui	v0,0x4e04
a0807fe4:	3442e04f 	ori	v0,v0,0xe04f
a0807fe8:	00620019 	multu	v1,v0
a0807fec:	00001010 	mfhi	v0
a0807ff0:	00021142 	srl	v0,v0,0x5
a0807ff4:	00401821 	move	v1,v0
a0807ff8:	8fc20010 	lw	v0,16(s8)
a0807ffc:	ac43018c 	sw	v1,396(v0)
a0808000:	8fc20010 	lw	v0,16(s8)
a0808004:	8c42018c 	lw	v0,396(v0)
a0808008:	00401821 	move	v1,v0
a080800c:	8fc20010 	lw	v0,16(s8)
a0808010:	ac430120 	sw	v1,288(v0)
a0808014:	8fc20010 	lw	v0,16(s8)
a0808018:	8c430120 	lw	v1,288(v0)
a080801c:	8fc20010 	lw	v0,16(s8)
a0808020:	ac430084 	sw	v1,132(v0)
a0808024:	8fc30010 	lw	v1,16(s8)
a0808028:	3c02a081 	lui	v0,0xa081
a080802c:	244200d4 	addiu	v0,v0,212
a0808030:	ac620190 	sw	v0,400(v1)
a0808034:	8fc20020 	lw	v0,32(s8)
a0808038:	8c430008 	lw	v1,8(v0)
a080803c:	8fc20010 	lw	v0,16(s8)
a0808040:	ac430194 	sw	v1,404(v0)
a0808044:	8fc30010 	lw	v1,16(s8)
a0808048:	24020002 	li	v0,2
a080804c:	ac620198 	sw	v0,408(v1)
a0808050:	3c02a081 	lui	v0,0xa081
a0808054:	244400d4 	addiu	a0,v0,212
a0808058:	8fc50010 	lw	a1,16(s8)
a080805c:	0c20218c 	jal	a0808630 <priority_queue_push>
a0808060:	00000000 	nop
a0808064:	03c0e821 	move	sp,s8
a0808068:	8fbf001c 	lw	ra,28(sp)
a080806c:	8fbe0018 	lw	s8,24(sp)
a0808070:	27bd0020 	addiu	sp,sp,32
a0808074:	03e00008 	jr	ra
a0808078:	00000000 	nop

a080807c <do_kill>:
a080807c:	27bdffd8 	addiu	sp,sp,-40
a0808080:	afbf0024 	sw	ra,36(sp)
a0808084:	afbe0020 	sw	s8,32(sp)
a0808088:	03a0f021 	move	s8,sp
a080808c:	afc40028 	sw	a0,40(s8)
a0808090:	8fc20028 	lw	v0,40(s8)
a0808094:	00021880 	sll	v1,v0,0x2
a0808098:	000310c0 	sll	v0,v1,0x3
a080809c:	00431023 	subu	v0,v0,v1
a08080a0:	00021900 	sll	v1,v0,0x4
a08080a4:	00621823 	subu	v1,v1,v0
a08080a8:	3c02a081 	lui	v0,0xa081
a08080ac:	244241f0 	addiu	v0,v0,16880
a08080b0:	00621021 	addu	v0,v1,v0
a08080b4:	afc20014 	sw	v0,20(s8)
a08080b8:	8fc30014 	lw	v1,20(s8)
a08080bc:	24020003 	li	v0,3
a08080c0:	ac620198 	sw	v0,408(v1)
a08080c4:	8fc20014 	lw	v0,20(s8)
a08080c8:	8c420190 	lw	v0,400(v0)
a08080cc:	10400009 	beqz	v0,a08080f4 <do_kill+0x78>
a08080d0:	00000000 	nop
a08080d4:	8fc20014 	lw	v0,20(s8)
a08080d8:	8c420190 	lw	v0,400(v0)
a08080dc:	00402021 	move	a0,v0
a08080e0:	8fc50014 	lw	a1,20(s8)
a08080e4:	0c2021db 	jal	a080876c <queue_remove>
a08080e8:	00000000 	nop
a08080ec:	8fc20014 	lw	v0,20(s8)
a08080f0:	ac400190 	sw	zero,400(v0)
a08080f4:	afc00018 	sw	zero,24(s8)
a08080f8:	0820204c 	j	a0808130 <do_kill+0xb4>
a08080fc:	00000000 	nop
a0808100:	8fc20018 	lw	v0,24(s8)
a0808104:	8fc30014 	lw	v1,20(s8)
a0808108:	24420050 	addiu	v0,v0,80
a080810c:	00021080 	sll	v0,v0,0x2
a0808110:	00621021 	addu	v0,v1,v0
a0808114:	8c420000 	lw	v0,0(v0)
a0808118:	00402021 	move	a0,v0
a080811c:	0c200cdf 	jal	a080337c <do_mutex_lock_release>
a0808120:	00000000 	nop
a0808124:	8fc20018 	lw	v0,24(s8)
a0808128:	24420001 	addiu	v0,v0,1
a080812c:	afc20018 	sw	v0,24(s8)
a0808130:	8fc20014 	lw	v0,20(s8)
a0808134:	8c430150 	lw	v1,336(v0)
a0808138:	8fc20018 	lw	v0,24(s8)
a080813c:	0062102a 	slt	v0,v1,v0
a0808140:	1040ffef 	beqz	v0,a0808100 <do_kill+0x84>
a0808144:	00000000 	nop
a0808148:	08202066 	j	a0808198 <do_kill+0x11c>
a080814c:	00000000 	nop
a0808150:	8fc20014 	lw	v0,20(s8)
a0808154:	2442016c 	addiu	v0,v0,364
a0808158:	00402021 	move	a0,v0
a080815c:	0c2021b6 	jal	a08086d8 <queue_dequeue>
a0808160:	00000000 	nop
a0808164:	afc20010 	sw	v0,16(s8)
a0808168:	8fc30010 	lw	v1,16(s8)
a080816c:	24020002 	li	v0,2
a0808170:	ac620198 	sw	v0,408(v1)
a0808174:	8fc30010 	lw	v1,16(s8)
a0808178:	3c02a081 	lui	v0,0xa081
a080817c:	244200d4 	addiu	v0,v0,212
a0808180:	ac620190 	sw	v0,400(v1)
a0808184:	3c02a081 	lui	v0,0xa081
a0808188:	244400d4 	addiu	a0,v0,212
a080818c:	8fc50010 	lw	a1,16(s8)
a0808190:	0c20218c 	jal	a0808630 <priority_queue_push>
a0808194:	00000000 	nop
a0808198:	8fc20014 	lw	v0,20(s8)
a080819c:	2442016c 	addiu	v0,v0,364
a08081a0:	00402021 	move	a0,v0
a08081a4:	0c20214f 	jal	a080853c <queue_is_empty>
a08081a8:	00000000 	nop
a08081ac:	1040ffe8 	beqz	v0,a0808150 <do_kill+0xd4>
a08081b0:	00000000 	nop
a08081b4:	3c02a081 	lui	v0,0xa081
a08081b8:	8c42f764 	lw	v0,-2204(v0)
a08081bc:	24430001 	addiu	v1,v0,1
a08081c0:	3c02a081 	lui	v0,0xa081
a08081c4:	ac43f764 	sw	v1,-2204(v0)
a08081c8:	3c02a081 	lui	v0,0xa081
a08081cc:	8c43f764 	lw	v1,-2204(v0)
a08081d0:	8fc20014 	lw	v0,20(s8)
a08081d4:	8c440138 	lw	a0,312(v0)
a08081d8:	3c02a081 	lui	v0,0xa081
a08081dc:	00031880 	sll	v1,v1,0x2
a08081e0:	24422bd0 	addiu	v0,v0,11216
a08081e4:	00621021 	addu	v0,v1,v0
a08081e8:	ac440000 	sw	a0,0(v0)
a08081ec:	3c02a081 	lui	v0,0xa081
a08081f0:	8c42f764 	lw	v0,-2204(v0)
a08081f4:	24430001 	addiu	v1,v0,1
a08081f8:	3c02a081 	lui	v0,0xa081
a08081fc:	ac43f764 	sw	v1,-2204(v0)
a0808200:	3c02a081 	lui	v0,0xa081
a0808204:	8c43f764 	lw	v1,-2204(v0)
a0808208:	8fc20014 	lw	v0,20(s8)
a080820c:	8c44013c 	lw	a0,316(v0)
a0808210:	3c02a081 	lui	v0,0xa081
a0808214:	00031880 	sll	v1,v1,0x2
a0808218:	24422bd0 	addiu	v0,v0,11216
a080821c:	00621021 	addu	v0,v1,v0
a0808220:	ac440000 	sw	a0,0(v0)
a0808224:	3c02a081 	lui	v0,0xa081
a0808228:	244400c8 	addiu	a0,v0,200
a080822c:	8fc50014 	lw	a1,20(s8)
a0808230:	0c202162 	jal	a0808588 <queue_push>
a0808234:	00000000 	nop
a0808238:	03c0e821 	move	sp,s8
a080823c:	8fbf0024 	lw	ra,36(sp)
a0808240:	8fbe0020 	lw	s8,32(sp)
a0808244:	27bd0028 	addiu	sp,sp,40
a0808248:	03e00008 	jr	ra
a080824c:	00000000 	nop

a0808250 <do_exit>:
a0808250:	27bdffd8 	addiu	sp,sp,-40
a0808254:	afbf0024 	sw	ra,36(sp)
a0808258:	afbe0020 	sw	s8,32(sp)
a080825c:	03a0f021 	move	s8,sp
a0808260:	3c02a081 	lui	v0,0xa081
a0808264:	8c420100 	lw	v0,256(v0)
a0808268:	afc20014 	sw	v0,20(s8)
a080826c:	8fc30014 	lw	v1,20(s8)
a0808270:	24020003 	li	v0,3
a0808274:	ac620198 	sw	v0,408(v1)
a0808278:	8fc20014 	lw	v0,20(s8)
a080827c:	ac400190 	sw	zero,400(v0)
a0808280:	afc00018 	sw	zero,24(s8)
a0808284:	082020af 	j	a08082bc <do_exit+0x6c>
a0808288:	00000000 	nop
a080828c:	8fc20018 	lw	v0,24(s8)
a0808290:	8fc30014 	lw	v1,20(s8)
a0808294:	24420050 	addiu	v0,v0,80
a0808298:	00021080 	sll	v0,v0,0x2
a080829c:	00621021 	addu	v0,v1,v0
a08082a0:	8c420000 	lw	v0,0(v0)
a08082a4:	00402021 	move	a0,v0
a08082a8:	0c200cdf 	jal	a080337c <do_mutex_lock_release>
a08082ac:	00000000 	nop
a08082b0:	8fc20018 	lw	v0,24(s8)
a08082b4:	24420001 	addiu	v0,v0,1
a08082b8:	afc20018 	sw	v0,24(s8)
a08082bc:	8fc20014 	lw	v0,20(s8)
a08082c0:	8c430150 	lw	v1,336(v0)
a08082c4:	8fc20018 	lw	v0,24(s8)
a08082c8:	0062102a 	slt	v0,v1,v0
a08082cc:	1040ffef 	beqz	v0,a080828c <do_exit+0x3c>
a08082d0:	00000000 	nop
a08082d4:	082020c9 	j	a0808324 <do_exit+0xd4>
a08082d8:	00000000 	nop
a08082dc:	8fc20014 	lw	v0,20(s8)
a08082e0:	2442016c 	addiu	v0,v0,364
a08082e4:	00402021 	move	a0,v0
a08082e8:	0c2021b6 	jal	a08086d8 <queue_dequeue>
a08082ec:	00000000 	nop
a08082f0:	afc20010 	sw	v0,16(s8)
a08082f4:	8fc30010 	lw	v1,16(s8)
a08082f8:	24020002 	li	v0,2
a08082fc:	ac620198 	sw	v0,408(v1)
a0808300:	8fc30010 	lw	v1,16(s8)
a0808304:	3c02a081 	lui	v0,0xa081
a0808308:	244200d4 	addiu	v0,v0,212
a080830c:	ac620190 	sw	v0,400(v1)
a0808310:	3c02a081 	lui	v0,0xa081
a0808314:	244400d4 	addiu	a0,v0,212
a0808318:	8fc50010 	lw	a1,16(s8)
a080831c:	0c20218c 	jal	a0808630 <priority_queue_push>
a0808320:	00000000 	nop
a0808324:	8fc20014 	lw	v0,20(s8)
a0808328:	2442016c 	addiu	v0,v0,364
a080832c:	00402021 	move	a0,v0
a0808330:	0c20214f 	jal	a080853c <queue_is_empty>
a0808334:	00000000 	nop
a0808338:	1040ffe8 	beqz	v0,a08082dc <do_exit+0x8c>
a080833c:	00000000 	nop
a0808340:	3c02a081 	lui	v0,0xa081
a0808344:	8c42f764 	lw	v0,-2204(v0)
a0808348:	24430001 	addiu	v1,v0,1
a080834c:	3c02a081 	lui	v0,0xa081
a0808350:	ac43f764 	sw	v1,-2204(v0)
a0808354:	3c02a081 	lui	v0,0xa081
a0808358:	8c43f764 	lw	v1,-2204(v0)
a080835c:	8fc20014 	lw	v0,20(s8)
a0808360:	8c440138 	lw	a0,312(v0)
a0808364:	3c02a081 	lui	v0,0xa081
a0808368:	00031880 	sll	v1,v1,0x2
a080836c:	24422bd0 	addiu	v0,v0,11216
a0808370:	00621021 	addu	v0,v1,v0
a0808374:	ac440000 	sw	a0,0(v0)
a0808378:	3c02a081 	lui	v0,0xa081
a080837c:	8c42f764 	lw	v0,-2204(v0)
a0808380:	24430001 	addiu	v1,v0,1
a0808384:	3c02a081 	lui	v0,0xa081
a0808388:	ac43f764 	sw	v1,-2204(v0)
a080838c:	3c02a081 	lui	v0,0xa081
a0808390:	8c43f764 	lw	v1,-2204(v0)
a0808394:	8fc20014 	lw	v0,20(s8)
a0808398:	8c44013c 	lw	a0,316(v0)
a080839c:	3c02a081 	lui	v0,0xa081
a08083a0:	00031880 	sll	v1,v1,0x2
a08083a4:	24422bd0 	addiu	v0,v0,11216
a08083a8:	00621021 	addu	v0,v1,v0
a08083ac:	ac440000 	sw	a0,0(v0)
a08083b0:	3c02a081 	lui	v0,0xa081
a08083b4:	244400c8 	addiu	a0,v0,200
a08083b8:	8fc50014 	lw	a1,20(s8)
a08083bc:	0c202162 	jal	a0808588 <queue_push>
a08083c0:	00000000 	nop
a08083c4:	0c20010a 	jal	a0800428 <do_scheduler>
a08083c8:	00000000 	nop
a08083cc:	03c0e821 	move	sp,s8
a08083d0:	8fbf0024 	lw	ra,36(sp)
a08083d4:	8fbe0020 	lw	s8,32(sp)
a08083d8:	27bd0028 	addiu	sp,sp,40
a08083dc:	03e00008 	jr	ra
a08083e0:	00000000 	nop

a08083e4 <do_wait>:
a08083e4:	27bdffe8 	addiu	sp,sp,-24
a08083e8:	afbf0014 	sw	ra,20(sp)
a08083ec:	afbe0010 	sw	s8,16(sp)
a08083f0:	03a0f021 	move	s8,sp
a08083f4:	afc40018 	sw	a0,24(s8)
a08083f8:	8fc20018 	lw	v0,24(s8)
a08083fc:	3c04a081 	lui	a0,0xa081
a0808400:	00021880 	sll	v1,v0,0x2
a0808404:	000310c0 	sll	v0,v1,0x3
a0808408:	00431023 	subu	v0,v0,v1
a080840c:	00021900 	sll	v1,v0,0x4
a0808410:	00621823 	subu	v1,v1,v0
a0808414:	248241f0 	addiu	v0,a0,16880
a0808418:	00621021 	addu	v0,v1,v0
a080841c:	8c420190 	lw	v0,400(v0)
a0808420:	1440000d 	bnez	v0,a0808458 <do_wait+0x74>
a0808424:	00000000 	nop
a0808428:	3c02a081 	lui	v0,0xa081
a080842c:	8c4200a8 	lw	v0,168(v0)
a0808430:	00002021 	move	a0,zero
a0808434:	00402821 	move	a1,v0
a0808438:	0c200430 	jal	a08010c0 <screen_move_cursor>
a080843c:	00000000 	nop
a0808440:	3c02a081 	lui	v0,0xa081
a0808444:	2444eb98 	addiu	a0,v0,-5224
a0808448:	0c202b4d 	jal	a080ad34 <my_printk>
a080844c:	00000000 	nop
a0808450:	0820213a 	j	a08084e8 <do_wait+0x104>
a0808454:	00000000 	nop
a0808458:	3c02a081 	lui	v0,0xa081
a080845c:	8c420100 	lw	v0,256(v0)
a0808460:	ac400198 	sw	zero,408(v0)
a0808464:	3c02a081 	lui	v0,0xa081
a0808468:	8c440100 	lw	a0,256(v0)
a080846c:	8fc20018 	lw	v0,24(s8)
a0808470:	00021080 	sll	v0,v0,0x2
a0808474:	000218c0 	sll	v1,v0,0x3
a0808478:	00621823 	subu	v1,v1,v0
a080847c:	00031100 	sll	v0,v1,0x4
a0808480:	00431023 	subu	v0,v0,v1
a0808484:	24430168 	addiu	v1,v0,360
a0808488:	3c02a081 	lui	v0,0xa081
a080848c:	244241f0 	addiu	v0,v0,16880
a0808490:	00621021 	addu	v0,v1,v0
a0808494:	24420004 	addiu	v0,v0,4
a0808498:	ac820190 	sw	v0,400(a0)
a080849c:	8fc20018 	lw	v0,24(s8)
a08084a0:	00021080 	sll	v0,v0,0x2
a08084a4:	000218c0 	sll	v1,v0,0x3
a08084a8:	00621823 	subu	v1,v1,v0
a08084ac:	00031100 	sll	v0,v1,0x4
a08084b0:	00431023 	subu	v0,v0,v1
a08084b4:	24430168 	addiu	v1,v0,360
a08084b8:	3c02a081 	lui	v0,0xa081
a08084bc:	244241f0 	addiu	v0,v0,16880
a08084c0:	00621021 	addu	v0,v1,v0
a08084c4:	24430004 	addiu	v1,v0,4
a08084c8:	3c02a081 	lui	v0,0xa081
a08084cc:	8c420100 	lw	v0,256(v0)
a08084d0:	00602021 	move	a0,v1
a08084d4:	00402821 	move	a1,v0
a08084d8:	0c202162 	jal	a0808588 <queue_push>
a08084dc:	00000000 	nop
a08084e0:	0c20010a 	jal	a0800428 <do_scheduler>
a08084e4:	00000000 	nop
a08084e8:	03c0e821 	move	sp,s8
a08084ec:	8fbf0014 	lw	ra,20(sp)
a08084f0:	8fbe0010 	lw	s8,16(sp)
a08084f4:	27bd0018 	addiu	sp,sp,24
a08084f8:	03e00008 	jr	ra
a08084fc:	00000000 	nop

a0808500 <queue_init>:
a0808500:	27bdfff8 	addiu	sp,sp,-8
a0808504:	afbe0004 	sw	s8,4(sp)
a0808508:	03a0f021 	move	s8,sp
a080850c:	afc40008 	sw	a0,8(s8)
a0808510:	8fc20008 	lw	v0,8(s8)
a0808514:	ac400004 	sw	zero,4(v0)
a0808518:	8fc20008 	lw	v0,8(s8)
a080851c:	8c430004 	lw	v1,4(v0)
a0808520:	8fc20008 	lw	v0,8(s8)
a0808524:	ac430000 	sw	v1,0(v0)
a0808528:	03c0e821 	move	sp,s8
a080852c:	8fbe0004 	lw	s8,4(sp)
a0808530:	27bd0008 	addiu	sp,sp,8
a0808534:	03e00008 	jr	ra
a0808538:	00000000 	nop

a080853c <queue_is_empty>:
a080853c:	27bdfff0 	addiu	sp,sp,-16
a0808540:	afbe000c 	sw	s8,12(sp)
a0808544:	03a0f021 	move	s8,sp
a0808548:	afc40010 	sw	a0,16(s8)
a080854c:	8fc20010 	lw	v0,16(s8)
a0808550:	8c420000 	lw	v0,0(v0)
a0808554:	14400005 	bnez	v0,a080856c <queue_is_empty+0x30>
a0808558:	00000000 	nop
a080855c:	24020001 	li	v0,1
a0808560:	afc20000 	sw	v0,0(s8)
a0808564:	0820215c 	j	a0808570 <queue_is_empty+0x34>
a0808568:	00000000 	nop
a080856c:	afc00000 	sw	zero,0(s8)
a0808570:	8fc20000 	lw	v0,0(s8)
a0808574:	03c0e821 	move	sp,s8
a0808578:	8fbe000c 	lw	s8,12(sp)
a080857c:	27bd0010 	addiu	sp,sp,16
a0808580:	03e00008 	jr	ra
a0808584:	00000000 	nop

a0808588 <queue_push>:
a0808588:	27bdfff0 	addiu	sp,sp,-16
a080858c:	afbe000c 	sw	s8,12(sp)
a0808590:	03a0f021 	move	s8,sp
a0808594:	afc40010 	sw	a0,16(s8)
a0808598:	afc50014 	sw	a1,20(s8)
a080859c:	8fc20014 	lw	v0,20(s8)
a08085a0:	afc20000 	sw	v0,0(s8)
a08085a4:	8fc20010 	lw	v0,16(s8)
a08085a8:	8c420000 	lw	v0,0(v0)
a08085ac:	1440000d 	bnez	v0,a08085e4 <queue_push+0x5c>
a08085b0:	00000000 	nop
a08085b4:	8fc30010 	lw	v1,16(s8)
a08085b8:	8fc20014 	lw	v0,20(s8)
a08085bc:	ac620000 	sw	v0,0(v1)
a08085c0:	8fc30010 	lw	v1,16(s8)
a08085c4:	8fc20014 	lw	v0,20(s8)
a08085c8:	ac620004 	sw	v0,4(v1)
a08085cc:	8fc20000 	lw	v0,0(s8)
a08085d0:	ac400188 	sw	zero,392(v0)
a08085d4:	8fc20000 	lw	v0,0(s8)
a08085d8:	ac400184 	sw	zero,388(v0)
a08085dc:	08202187 	j	a080861c <queue_push+0x94>
a08085e0:	00000000 	nop
a08085e4:	8fc20010 	lw	v0,16(s8)
a08085e8:	8c420004 	lw	v0,4(v0)
a08085ec:	00401821 	move	v1,v0
a08085f0:	8fc20014 	lw	v0,20(s8)
a08085f4:	ac620188 	sw	v0,392(v1)
a08085f8:	8fc20000 	lw	v0,0(s8)
a08085fc:	ac400188 	sw	zero,392(v0)
a0808600:	8fc20010 	lw	v0,16(s8)
a0808604:	8c430004 	lw	v1,4(v0)
a0808608:	8fc20000 	lw	v0,0(s8)
a080860c:	ac430184 	sw	v1,388(v0)
a0808610:	8fc30010 	lw	v1,16(s8)
a0808614:	8fc20014 	lw	v0,20(s8)
a0808618:	ac620004 	sw	v0,4(v1)
a080861c:	03c0e821 	move	sp,s8
a0808620:	8fbe000c 	lw	s8,12(sp)
a0808624:	27bd0010 	addiu	sp,sp,16
a0808628:	03e00008 	jr	ra
a080862c:	00000000 	nop

a0808630 <priority_queue_push>:
a0808630:	27bdfff0 	addiu	sp,sp,-16
a0808634:	afbe000c 	sw	s8,12(sp)
a0808638:	03a0f021 	move	s8,sp
a080863c:	afc40010 	sw	a0,16(s8)
a0808640:	afc50014 	sw	a1,20(s8)
a0808644:	8fc20014 	lw	v0,20(s8)
a0808648:	afc20000 	sw	v0,0(s8)
a080864c:	8fc20010 	lw	v0,16(s8)
a0808650:	8c420000 	lw	v0,0(v0)
a0808654:	1440000d 	bnez	v0,a080868c <priority_queue_push+0x5c>
a0808658:	00000000 	nop
a080865c:	8fc30010 	lw	v1,16(s8)
a0808660:	8fc20014 	lw	v0,20(s8)
a0808664:	ac620000 	sw	v0,0(v1)
a0808668:	8fc30010 	lw	v1,16(s8)
a080866c:	8fc20014 	lw	v0,20(s8)
a0808670:	ac620004 	sw	v0,4(v1)
a0808674:	8fc20000 	lw	v0,0(s8)
a0808678:	ac400188 	sw	zero,392(v0)
a080867c:	8fc20000 	lw	v0,0(s8)
a0808680:	ac400184 	sw	zero,388(v0)
a0808684:	082021b1 	j	a08086c4 <priority_queue_push+0x94>
a0808688:	00000000 	nop
a080868c:	8fc20010 	lw	v0,16(s8)
a0808690:	8c420004 	lw	v0,4(v0)
a0808694:	00401821 	move	v1,v0
a0808698:	8fc20014 	lw	v0,20(s8)
a080869c:	ac620188 	sw	v0,392(v1)
a08086a0:	8fc20000 	lw	v0,0(s8)
a08086a4:	ac400188 	sw	zero,392(v0)
a08086a8:	8fc20010 	lw	v0,16(s8)
a08086ac:	8c430004 	lw	v1,4(v0)
a08086b0:	8fc20000 	lw	v0,0(s8)
a08086b4:	ac430184 	sw	v1,388(v0)
a08086b8:	8fc30010 	lw	v1,16(s8)
a08086bc:	8fc20014 	lw	v0,20(s8)
a08086c0:	ac620004 	sw	v0,4(v1)
a08086c4:	03c0e821 	move	sp,s8
a08086c8:	8fbe000c 	lw	s8,12(sp)
a08086cc:	27bd0010 	addiu	sp,sp,16
a08086d0:	03e00008 	jr	ra
a08086d4:	00000000 	nop

a08086d8 <queue_dequeue>:
a08086d8:	27bdfff0 	addiu	sp,sp,-16
a08086dc:	afbe000c 	sw	s8,12(sp)
a08086e0:	03a0f021 	move	s8,sp
a08086e4:	afc40010 	sw	a0,16(s8)
a08086e8:	8fc20010 	lw	v0,16(s8)
a08086ec:	8c420000 	lw	v0,0(v0)
a08086f0:	afc20000 	sw	v0,0(s8)
a08086f4:	8fc20000 	lw	v0,0(s8)
a08086f8:	8c420188 	lw	v0,392(v0)
a08086fc:	14400009 	bnez	v0,a0808724 <queue_dequeue+0x4c>
a0808700:	00000000 	nop
a0808704:	8fc20010 	lw	v0,16(s8)
a0808708:	ac400004 	sw	zero,4(v0)
a080870c:	8fc20010 	lw	v0,16(s8)
a0808710:	8c430004 	lw	v1,4(v0)
a0808714:	8fc20010 	lw	v0,16(s8)
a0808718:	ac430000 	sw	v1,0(v0)
a080871c:	082021d1 	j	a0808744 <queue_dequeue+0x6c>
a0808720:	00000000 	nop
a0808724:	8fc20010 	lw	v0,16(s8)
a0808728:	8c420000 	lw	v0,0(v0)
a080872c:	8c430188 	lw	v1,392(v0)
a0808730:	8fc20010 	lw	v0,16(s8)
a0808734:	ac430000 	sw	v1,0(v0)
a0808738:	8fc20010 	lw	v0,16(s8)
a080873c:	8c420000 	lw	v0,0(v0)
a0808740:	ac400184 	sw	zero,388(v0)
a0808744:	8fc20000 	lw	v0,0(s8)
a0808748:	ac400184 	sw	zero,388(v0)
a080874c:	8fc20000 	lw	v0,0(s8)
a0808750:	ac400188 	sw	zero,392(v0)
a0808754:	8fc20000 	lw	v0,0(s8)
a0808758:	03c0e821 	move	sp,s8
a080875c:	8fbe000c 	lw	s8,12(sp)
a0808760:	27bd0010 	addiu	sp,sp,16
a0808764:	03e00008 	jr	ra
a0808768:	00000000 	nop

a080876c <queue_remove>:
a080876c:	27bdfff0 	addiu	sp,sp,-16
a0808770:	afbe000c 	sw	s8,12(sp)
a0808774:	03a0f021 	move	s8,sp
a0808778:	afc40010 	sw	a0,16(s8)
a080877c:	afc50014 	sw	a1,20(s8)
a0808780:	8fc20014 	lw	v0,20(s8)
a0808784:	afc20004 	sw	v0,4(s8)
a0808788:	8fc20004 	lw	v0,4(s8)
a080878c:	8c420188 	lw	v0,392(v0)
a0808790:	afc20000 	sw	v0,0(s8)
a0808794:	8fc20010 	lw	v0,16(s8)
a0808798:	8c430000 	lw	v1,0(v0)
a080879c:	8fc20014 	lw	v0,20(s8)
a08087a0:	1462000c 	bne	v1,v0,a08087d4 <queue_remove+0x68>
a08087a4:	00000000 	nop
a08087a8:	8fc20010 	lw	v0,16(s8)
a08087ac:	8c430004 	lw	v1,4(v0)
a08087b0:	8fc20014 	lw	v0,20(s8)
a08087b4:	14620007 	bne	v1,v0,a08087d4 <queue_remove+0x68>
a08087b8:	00000000 	nop
a08087bc:	8fc20010 	lw	v0,16(s8)
a08087c0:	ac400000 	sw	zero,0(v0)
a08087c4:	8fc20010 	lw	v0,16(s8)
a08087c8:	ac400004 	sw	zero,4(v0)
a08087cc:	0820221d 	j	a0808874 <queue_remove+0x108>
a08087d0:	00000000 	nop
a08087d4:	8fc20010 	lw	v0,16(s8)
a08087d8:	8c430000 	lw	v1,0(v0)
a08087dc:	8fc20014 	lw	v0,20(s8)
a08087e0:	1462000a 	bne	v1,v0,a080880c <queue_remove+0xa0>
a08087e4:	00000000 	nop
a08087e8:	8fc20004 	lw	v0,4(s8)
a08087ec:	8c430188 	lw	v1,392(v0)
a08087f0:	8fc20010 	lw	v0,16(s8)
a08087f4:	ac430000 	sw	v1,0(v0)
a08087f8:	8fc20010 	lw	v0,16(s8)
a08087fc:	8c420000 	lw	v0,0(v0)
a0808800:	ac400184 	sw	zero,388(v0)
a0808804:	0820221d 	j	a0808874 <queue_remove+0x108>
a0808808:	00000000 	nop
a080880c:	8fc20010 	lw	v0,16(s8)
a0808810:	8c430004 	lw	v1,4(v0)
a0808814:	8fc20014 	lw	v0,20(s8)
a0808818:	1462000a 	bne	v1,v0,a0808844 <queue_remove+0xd8>
a080881c:	00000000 	nop
a0808820:	8fc20004 	lw	v0,4(s8)
a0808824:	8c430184 	lw	v1,388(v0)
a0808828:	8fc20010 	lw	v0,16(s8)
a080882c:	ac430004 	sw	v1,4(v0)
a0808830:	8fc20010 	lw	v0,16(s8)
a0808834:	8c420004 	lw	v0,4(v0)
a0808838:	ac400188 	sw	zero,392(v0)
a080883c:	0820221d 	j	a0808874 <queue_remove+0x108>
a0808840:	00000000 	nop
a0808844:	8fc20004 	lw	v0,4(s8)
a0808848:	8c420184 	lw	v0,388(v0)
a080884c:	00401821 	move	v1,v0
a0808850:	8fc20004 	lw	v0,4(s8)
a0808854:	8c420188 	lw	v0,392(v0)
a0808858:	ac620188 	sw	v0,392(v1)
a080885c:	8fc20004 	lw	v0,4(s8)
a0808860:	8c420188 	lw	v0,392(v0)
a0808864:	00401821 	move	v1,v0
a0808868:	8fc20004 	lw	v0,4(s8)
a080886c:	8c420184 	lw	v0,388(v0)
a0808870:	ac620184 	sw	v0,388(v1)
a0808874:	8fc20004 	lw	v0,4(s8)
a0808878:	ac400184 	sw	zero,388(v0)
a080887c:	8fc20004 	lw	v0,4(s8)
a0808880:	ac400188 	sw	zero,392(v0)
a0808884:	8fc20000 	lw	v0,0(s8)
a0808888:	03c0e821 	move	sp,s8
a080888c:	8fbe000c 	lw	s8,12(sp)
a0808890:	27bd0010 	addiu	sp,sp,16
a0808894:	03e00008 	jr	ra
a0808898:	00000000 	nop
a080889c:	00000000 	nop

a08088a0 <get_ticks>:
a08088a0:	27bdfff8 	addiu	sp,sp,-8
a08088a4:	afbe0004 	sw	s8,4(sp)
a08088a8:	03a0f021 	move	s8,sp
a08088ac:	3c02a081 	lui	v0,0xa081
a08088b0:	8c421420 	lw	v0,5152(v0)
a08088b4:	03c0e821 	move	sp,s8
a08088b8:	8fbe0004 	lw	s8,4(sp)
a08088bc:	27bd0008 	addiu	sp,sp,8
a08088c0:	03e00008 	jr	ra
a08088c4:	00000000 	nop

a08088c8 <get_timer>:
a08088c8:	27bdfff8 	addiu	sp,sp,-8
a08088cc:	afbe0004 	sw	s8,4(sp)
a08088d0:	03a0f021 	move	s8,sp
a08088d4:	3c02a081 	lui	v0,0xa081
a08088d8:	8c431420 	lw	v1,5152(v0)
a08088dc:	3c026b5f 	lui	v0,0x6b5f
a08088e0:	3442ca6b 	ori	v0,v0,0xca6b
a08088e4:	00620019 	multu	v1,v0
a08088e8:	00001010 	mfhi	v0
a08088ec:	00021582 	srl	v0,v0,0x16
a08088f0:	03c0e821 	move	sp,s8
a08088f4:	8fbe0004 	lw	s8,4(sp)
a08088f8:	27bd0008 	addiu	sp,sp,8
a08088fc:	03e00008 	jr	ra
a0808900:	00000000 	nop

a0808904 <latency>:
a0808904:	27bdffe0 	addiu	sp,sp,-32
a0808908:	afbf001c 	sw	ra,28(sp)
a080890c:	afbe0018 	sw	s8,24(sp)
a0808910:	03a0f021 	move	s8,sp
a0808914:	afc40020 	sw	a0,32(s8)
a0808918:	0c202232 	jal	a08088c8 <get_timer>
a080891c:	00000000 	nop
a0808920:	afc20010 	sw	v0,16(s8)
a0808924:	0c202232 	jal	a08088c8 <get_timer>
a0808928:	00000000 	nop
a080892c:	00401821 	move	v1,v0
a0808930:	8fc20010 	lw	v0,16(s8)
a0808934:	00621823 	subu	v1,v1,v0
a0808938:	8fc20020 	lw	v0,32(s8)
a080893c:	0062102b 	sltu	v0,v1,v0
a0808940:	1440fff8 	bnez	v0,a0808924 <latency+0x20>
a0808944:	00000000 	nop
a0808948:	03c0e821 	move	sp,s8
a080894c:	8fbf001c 	lw	ra,28(sp)
a0808950:	8fbe0018 	lw	s8,24(sp)
a0808954:	27bd0020 	addiu	sp,sp,32
a0808958:	03e00008 	jr	ra
a080895c:	00000000 	nop

a0808960 <system_call_helper>:
a0808960:	27bdffe0 	addiu	sp,sp,-32
a0808964:	afbf001c 	sw	ra,28(sp)
a0808968:	afbe0018 	sw	s8,24(sp)
a080896c:	03a0f021 	move	s8,sp
a0808970:	afc40020 	sw	a0,32(s8)
a0808974:	afc50024 	sw	a1,36(s8)
a0808978:	afc60028 	sw	a2,40(s8)
a080897c:	afc7002c 	sw	a3,44(s8)
a0808980:	3c02a081 	lui	v0,0xa081
a0808984:	8c430100 	lw	v1,256(v0)
a0808988:	3c02a081 	lui	v0,0xa081
a080898c:	8c420100 	lw	v0,256(v0)
a0808990:	8c420130 	lw	v0,304(v0)
a0808994:	24420004 	addiu	v0,v0,4
a0808998:	ac620130 	sw	v0,304(v1)
a080899c:	8fc20020 	lw	v0,32(s8)
a08089a0:	3c03a081 	lui	v1,0xa081
a08089a4:	00022080 	sll	a0,v0,0x2
a08089a8:	24622ad0 	addiu	v0,v1,10960
a08089ac:	00821021 	addu	v0,a0,v0
a08089b0:	8c420000 	lw	v0,0(v0)
a08089b4:	8fc40024 	lw	a0,36(s8)
a08089b8:	8fc50028 	lw	a1,40(s8)
a08089bc:	8fc6002c 	lw	a2,44(s8)
a08089c0:	0040f809 	jalr	v0
a08089c4:	00000000 	nop
a08089c8:	afc20010 	sw	v0,16(s8)
a08089cc:	3c02a081 	lui	v0,0xa081
a08089d0:	8c430100 	lw	v1,256(v0)
a08089d4:	8fc20010 	lw	v0,16(s8)
a08089d8:	ac6200a4 	sw	v0,164(v1)
a08089dc:	03c0e821 	move	sp,s8
a08089e0:	8fbf001c 	lw	ra,28(sp)
a08089e4:	8fbe0018 	lw	s8,24(sp)
a08089e8:	27bd0020 	addiu	sp,sp,32
a08089ec:	03e00008 	jr	ra
a08089f0:	00000000 	nop

a08089f4 <sys_sleep>:
a08089f4:	27bdffe8 	addiu	sp,sp,-24
a08089f8:	afbf0014 	sw	ra,20(sp)
a08089fc:	afbe0010 	sw	s8,16(sp)
a0808a00:	03a0f021 	move	s8,sp
a0808a04:	afc40018 	sw	a0,24(s8)
a0808a08:	8fc20018 	lw	v0,24(s8)
a0808a0c:	24040002 	li	a0,2
a0808a10:	00402821 	move	a1,v0
a0808a14:	00003021 	move	a2,zero
a0808a18:	00003821 	move	a3,zero
a0808a1c:	0c20029c 	jal	a0800a70 <invoke_syscall>
a0808a20:	00000000 	nop
a0808a24:	03c0e821 	move	sp,s8
a0808a28:	8fbf0014 	lw	ra,20(sp)
a0808a2c:	8fbe0010 	lw	s8,16(sp)
a0808a30:	27bd0018 	addiu	sp,sp,24
a0808a34:	03e00008 	jr	ra
a0808a38:	00000000 	nop

a0808a3c <sys_getpid>:
a0808a3c:	27bdffe0 	addiu	sp,sp,-32
a0808a40:	afbf001c 	sw	ra,28(sp)
a0808a44:	afbe0018 	sw	s8,24(sp)
a0808a48:	03a0f021 	move	s8,sp
a0808a4c:	24040003 	li	a0,3
a0808a50:	00002821 	move	a1,zero
a0808a54:	00003021 	move	a2,zero
a0808a58:	00003821 	move	a3,zero
a0808a5c:	0c20029c 	jal	a0800a70 <invoke_syscall>
a0808a60:	00000000 	nop
a0808a64:	03c0e821 	move	sp,s8
a0808a68:	8fbf001c 	lw	ra,28(sp)
a0808a6c:	8fbe0018 	lw	s8,24(sp)
a0808a70:	27bd0020 	addiu	sp,sp,32
a0808a74:	03e00008 	jr	ra
a0808a78:	00000000 	nop

a0808a7c <sys_block>:
a0808a7c:	27bdffe8 	addiu	sp,sp,-24
a0808a80:	afbf0014 	sw	ra,20(sp)
a0808a84:	afbe0010 	sw	s8,16(sp)
a0808a88:	03a0f021 	move	s8,sp
a0808a8c:	afc40018 	sw	a0,24(s8)
a0808a90:	8fc20018 	lw	v0,24(s8)
a0808a94:	2404000a 	li	a0,10
a0808a98:	00402821 	move	a1,v0
a0808a9c:	00003021 	move	a2,zero
a0808aa0:	00003821 	move	a3,zero
a0808aa4:	0c20029c 	jal	a0800a70 <invoke_syscall>
a0808aa8:	00000000 	nop
a0808aac:	03c0e821 	move	sp,s8
a0808ab0:	8fbf0014 	lw	ra,20(sp)
a0808ab4:	8fbe0010 	lw	s8,16(sp)
a0808ab8:	27bd0018 	addiu	sp,sp,24
a0808abc:	03e00008 	jr	ra
a0808ac0:	00000000 	nop

a0808ac4 <sys_unblock_one>:
a0808ac4:	27bdffe8 	addiu	sp,sp,-24
a0808ac8:	afbf0014 	sw	ra,20(sp)
a0808acc:	afbe0010 	sw	s8,16(sp)
a0808ad0:	03a0f021 	move	s8,sp
a0808ad4:	afc40018 	sw	a0,24(s8)
a0808ad8:	8fc20018 	lw	v0,24(s8)
a0808adc:	2404000b 	li	a0,11
a0808ae0:	00402821 	move	a1,v0
a0808ae4:	00003021 	move	a2,zero
a0808ae8:	00003821 	move	a3,zero
a0808aec:	0c20029c 	jal	a0800a70 <invoke_syscall>
a0808af0:	00000000 	nop
a0808af4:	03c0e821 	move	sp,s8
a0808af8:	8fbf0014 	lw	ra,20(sp)
a0808afc:	8fbe0010 	lw	s8,16(sp)
a0808b00:	27bd0018 	addiu	sp,sp,24
a0808b04:	03e00008 	jr	ra
a0808b08:	00000000 	nop

a0808b0c <sys_unblock_all>:
a0808b0c:	27bdffe8 	addiu	sp,sp,-24
a0808b10:	afbf0014 	sw	ra,20(sp)
a0808b14:	afbe0010 	sw	s8,16(sp)
a0808b18:	03a0f021 	move	s8,sp
a0808b1c:	afc40018 	sw	a0,24(s8)
a0808b20:	8fc20018 	lw	v0,24(s8)
a0808b24:	2404000c 	li	a0,12
a0808b28:	00402821 	move	a1,v0
a0808b2c:	00003021 	move	a2,zero
a0808b30:	00003821 	move	a3,zero
a0808b34:	0c20029c 	jal	a0800a70 <invoke_syscall>
a0808b38:	00000000 	nop
a0808b3c:	03c0e821 	move	sp,s8
a0808b40:	8fbf0014 	lw	ra,20(sp)
a0808b44:	8fbe0010 	lw	s8,16(sp)
a0808b48:	27bd0018 	addiu	sp,sp,24
a0808b4c:	03e00008 	jr	ra
a0808b50:	00000000 	nop

a0808b54 <sys_write>:
a0808b54:	27bdffe8 	addiu	sp,sp,-24
a0808b58:	afbf0014 	sw	ra,20(sp)
a0808b5c:	afbe0010 	sw	s8,16(sp)
a0808b60:	03a0f021 	move	s8,sp
a0808b64:	afc40018 	sw	a0,24(s8)
a0808b68:	8fc20018 	lw	v0,24(s8)
a0808b6c:	24040014 	li	a0,20
a0808b70:	00402821 	move	a1,v0
a0808b74:	00003021 	move	a2,zero
a0808b78:	00003821 	move	a3,zero
a0808b7c:	0c20029c 	jal	a0800a70 <invoke_syscall>
a0808b80:	00000000 	nop
a0808b84:	03c0e821 	move	sp,s8
a0808b88:	8fbf0014 	lw	ra,20(sp)
a0808b8c:	8fbe0010 	lw	s8,16(sp)
a0808b90:	27bd0018 	addiu	sp,sp,24
a0808b94:	03e00008 	jr	ra
a0808b98:	00000000 	nop

a0808b9c <sys_move_cursor>:
a0808b9c:	27bdffe8 	addiu	sp,sp,-24
a0808ba0:	afbf0014 	sw	ra,20(sp)
a0808ba4:	afbe0010 	sw	s8,16(sp)
a0808ba8:	03a0f021 	move	s8,sp
a0808bac:	afc40018 	sw	a0,24(s8)
a0808bb0:	afc5001c 	sw	a1,28(s8)
a0808bb4:	24040016 	li	a0,22
a0808bb8:	8fc50018 	lw	a1,24(s8)
a0808bbc:	8fc6001c 	lw	a2,28(s8)
a0808bc0:	00003821 	move	a3,zero
a0808bc4:	0c20029c 	jal	a0800a70 <invoke_syscall>
a0808bc8:	00000000 	nop
a0808bcc:	03c0e821 	move	sp,s8
a0808bd0:	8fbf0014 	lw	ra,20(sp)
a0808bd4:	8fbe0010 	lw	s8,16(sp)
a0808bd8:	27bd0018 	addiu	sp,sp,24
a0808bdc:	03e00008 	jr	ra
a0808be0:	00000000 	nop

a0808be4 <sys_reflush>:
a0808be4:	27bdffe8 	addiu	sp,sp,-24
a0808be8:	afbf0014 	sw	ra,20(sp)
a0808bec:	afbe0010 	sw	s8,16(sp)
a0808bf0:	03a0f021 	move	s8,sp
a0808bf4:	24040017 	li	a0,23
a0808bf8:	00002821 	move	a1,zero
a0808bfc:	00003021 	move	a2,zero
a0808c00:	00003821 	move	a3,zero
a0808c04:	0c20029c 	jal	a0800a70 <invoke_syscall>
a0808c08:	00000000 	nop
a0808c0c:	03c0e821 	move	sp,s8
a0808c10:	8fbf0014 	lw	ra,20(sp)
a0808c14:	8fbe0010 	lw	s8,16(sp)
a0808c18:	27bd0018 	addiu	sp,sp,24
a0808c1c:	03e00008 	jr	ra
a0808c20:	00000000 	nop

a0808c24 <sys_ps>:
a0808c24:	27bdffe8 	addiu	sp,sp,-24
a0808c28:	afbf0014 	sw	ra,20(sp)
a0808c2c:	afbe0010 	sw	s8,16(sp)
a0808c30:	03a0f021 	move	s8,sp
a0808c34:	24040018 	li	a0,24
a0808c38:	00002821 	move	a1,zero
a0808c3c:	00003021 	move	a2,zero
a0808c40:	00003821 	move	a3,zero
a0808c44:	0c20029c 	jal	a0800a70 <invoke_syscall>
a0808c48:	00000000 	nop
a0808c4c:	03c0e821 	move	sp,s8
a0808c50:	8fbf0014 	lw	ra,20(sp)
a0808c54:	8fbe0010 	lw	s8,16(sp)
a0808c58:	27bd0018 	addiu	sp,sp,24
a0808c5c:	03e00008 	jr	ra
a0808c60:	00000000 	nop

a0808c64 <sys_clear>:
a0808c64:	27bdffe8 	addiu	sp,sp,-24
a0808c68:	afbf0014 	sw	ra,20(sp)
a0808c6c:	afbe0010 	sw	s8,16(sp)
a0808c70:	03a0f021 	move	s8,sp
a0808c74:	24040019 	li	a0,25
a0808c78:	00002821 	move	a1,zero
a0808c7c:	00003021 	move	a2,zero
a0808c80:	00003821 	move	a3,zero
a0808c84:	0c20029c 	jal	a0800a70 <invoke_syscall>
a0808c88:	00000000 	nop
a0808c8c:	03c0e821 	move	sp,s8
a0808c90:	8fbf0014 	lw	ra,20(sp)
a0808c94:	8fbe0010 	lw	s8,16(sp)
a0808c98:	27bd0018 	addiu	sp,sp,24
a0808c9c:	03e00008 	jr	ra
a0808ca0:	00000000 	nop

a0808ca4 <sys_clear_all>:
a0808ca4:	27bdffe8 	addiu	sp,sp,-24
a0808ca8:	afbf0014 	sw	ra,20(sp)
a0808cac:	afbe0010 	sw	s8,16(sp)
a0808cb0:	03a0f021 	move	s8,sp
a0808cb4:	24040021 	li	a0,33
a0808cb8:	00002821 	move	a1,zero
a0808cbc:	00003021 	move	a2,zero
a0808cc0:	00003821 	move	a3,zero
a0808cc4:	0c20029c 	jal	a0800a70 <invoke_syscall>
a0808cc8:	00000000 	nop
a0808ccc:	03c0e821 	move	sp,s8
a0808cd0:	8fbf0014 	lw	ra,20(sp)
a0808cd4:	8fbe0010 	lw	s8,16(sp)
a0808cd8:	27bd0018 	addiu	sp,sp,24
a0808cdc:	03e00008 	jr	ra
a0808ce0:	00000000 	nop

a0808ce4 <sys_spawn>:
a0808ce4:	27bdffe8 	addiu	sp,sp,-24
a0808ce8:	afbf0014 	sw	ra,20(sp)
a0808cec:	afbe0010 	sw	s8,16(sp)
a0808cf0:	03a0f021 	move	s8,sp
a0808cf4:	afc40018 	sw	a0,24(s8)
a0808cf8:	8fc20018 	lw	v0,24(s8)
a0808cfc:	2404001a 	li	a0,26
a0808d00:	00402821 	move	a1,v0
a0808d04:	00003021 	move	a2,zero
a0808d08:	00003821 	move	a3,zero
a0808d0c:	0c20029c 	jal	a0800a70 <invoke_syscall>
a0808d10:	00000000 	nop
a0808d14:	03c0e821 	move	sp,s8
a0808d18:	8fbf0014 	lw	ra,20(sp)
a0808d1c:	8fbe0010 	lw	s8,16(sp)
a0808d20:	27bd0018 	addiu	sp,sp,24
a0808d24:	03e00008 	jr	ra
a0808d28:	00000000 	nop

a0808d2c <sys_kill>:
a0808d2c:	27bdffe8 	addiu	sp,sp,-24
a0808d30:	afbf0014 	sw	ra,20(sp)
a0808d34:	afbe0010 	sw	s8,16(sp)
a0808d38:	03a0f021 	move	s8,sp
a0808d3c:	afc40018 	sw	a0,24(s8)
a0808d40:	2404001b 	li	a0,27
a0808d44:	8fc50018 	lw	a1,24(s8)
a0808d48:	00003021 	move	a2,zero
a0808d4c:	00003821 	move	a3,zero
a0808d50:	0c20029c 	jal	a0800a70 <invoke_syscall>
a0808d54:	00000000 	nop
a0808d58:	03c0e821 	move	sp,s8
a0808d5c:	8fbf0014 	lw	ra,20(sp)
a0808d60:	8fbe0010 	lw	s8,16(sp)
a0808d64:	27bd0018 	addiu	sp,sp,24
a0808d68:	03e00008 	jr	ra
a0808d6c:	00000000 	nop

a0808d70 <sys_exit>:
a0808d70:	27bdffe8 	addiu	sp,sp,-24
a0808d74:	afbf0014 	sw	ra,20(sp)
a0808d78:	afbe0010 	sw	s8,16(sp)
a0808d7c:	03a0f021 	move	s8,sp
a0808d80:	2404001c 	li	a0,28
a0808d84:	00002821 	move	a1,zero
a0808d88:	00003021 	move	a2,zero
a0808d8c:	00003821 	move	a3,zero
a0808d90:	0c20029c 	jal	a0800a70 <invoke_syscall>
a0808d94:	00000000 	nop
a0808d98:	03c0e821 	move	sp,s8
a0808d9c:	8fbf0014 	lw	ra,20(sp)
a0808da0:	8fbe0010 	lw	s8,16(sp)
a0808da4:	27bd0018 	addiu	sp,sp,24
a0808da8:	03e00008 	jr	ra
a0808dac:	00000000 	nop

a0808db0 <sys_waitpid>:
a0808db0:	27bdffe8 	addiu	sp,sp,-24
a0808db4:	afbf0014 	sw	ra,20(sp)
a0808db8:	afbe0010 	sw	s8,16(sp)
a0808dbc:	03a0f021 	move	s8,sp
a0808dc0:	afc40018 	sw	a0,24(s8)
a0808dc4:	2404001d 	li	a0,29
a0808dc8:	8fc50018 	lw	a1,24(s8)
a0808dcc:	00003021 	move	a2,zero
a0808dd0:	00003821 	move	a3,zero
a0808dd4:	0c20029c 	jal	a0800a70 <invoke_syscall>
a0808dd8:	00000000 	nop
a0808ddc:	03c0e821 	move	sp,s8
a0808de0:	8fbf0014 	lw	ra,20(sp)
a0808de4:	8fbe0010 	lw	s8,16(sp)
a0808de8:	27bd0018 	addiu	sp,sp,24
a0808dec:	03e00008 	jr	ra
a0808df0:	00000000 	nop

a0808df4 <mutex_lock_init>:
a0808df4:	27bdffe8 	addiu	sp,sp,-24
a0808df8:	afbf0014 	sw	ra,20(sp)
a0808dfc:	afbe0010 	sw	s8,16(sp)
a0808e00:	03a0f021 	move	s8,sp
a0808e04:	afc40018 	sw	a0,24(s8)
a0808e08:	8fc20018 	lw	v0,24(s8)
a0808e0c:	2404001e 	li	a0,30
a0808e10:	00402821 	move	a1,v0
a0808e14:	00003021 	move	a2,zero
a0808e18:	00003821 	move	a3,zero
a0808e1c:	0c20029c 	jal	a0800a70 <invoke_syscall>
a0808e20:	00000000 	nop
a0808e24:	03c0e821 	move	sp,s8
a0808e28:	8fbf0014 	lw	ra,20(sp)
a0808e2c:	8fbe0010 	lw	s8,16(sp)
a0808e30:	27bd0018 	addiu	sp,sp,24
a0808e34:	03e00008 	jr	ra
a0808e38:	00000000 	nop

a0808e3c <mutex_lock_acquire>:
a0808e3c:	27bdffe8 	addiu	sp,sp,-24
a0808e40:	afbf0014 	sw	ra,20(sp)
a0808e44:	afbe0010 	sw	s8,16(sp)
a0808e48:	03a0f021 	move	s8,sp
a0808e4c:	afc40018 	sw	a0,24(s8)
a0808e50:	8fc20018 	lw	v0,24(s8)
a0808e54:	2404001f 	li	a0,31
a0808e58:	00402821 	move	a1,v0
a0808e5c:	00003021 	move	a2,zero
a0808e60:	00003821 	move	a3,zero
a0808e64:	0c20029c 	jal	a0800a70 <invoke_syscall>
a0808e68:	00000000 	nop
a0808e6c:	03c0e821 	move	sp,s8
a0808e70:	8fbf0014 	lw	ra,20(sp)
a0808e74:	8fbe0010 	lw	s8,16(sp)
a0808e78:	27bd0018 	addiu	sp,sp,24
a0808e7c:	03e00008 	jr	ra
a0808e80:	00000000 	nop

a0808e84 <mutex_lock_release>:
a0808e84:	27bdffe8 	addiu	sp,sp,-24
a0808e88:	afbf0014 	sw	ra,20(sp)
a0808e8c:	afbe0010 	sw	s8,16(sp)
a0808e90:	03a0f021 	move	s8,sp
a0808e94:	afc40018 	sw	a0,24(s8)
a0808e98:	8fc20018 	lw	v0,24(s8)
a0808e9c:	24040020 	li	a0,32
a0808ea0:	00402821 	move	a1,v0
a0808ea4:	00003021 	move	a2,zero
a0808ea8:	00003821 	move	a3,zero
a0808eac:	0c20029c 	jal	a0800a70 <invoke_syscall>
a0808eb0:	00000000 	nop
a0808eb4:	03c0e821 	move	sp,s8
a0808eb8:	8fbf0014 	lw	ra,20(sp)
a0808ebc:	8fbe0010 	lw	s8,16(sp)
a0808ec0:	27bd0018 	addiu	sp,sp,24
a0808ec4:	03e00008 	jr	ra
a0808ec8:	00000000 	nop

a0808ecc <barrier_init>:
a0808ecc:	27bdffe8 	addiu	sp,sp,-24
a0808ed0:	afbf0014 	sw	ra,20(sp)
a0808ed4:	afbe0010 	sw	s8,16(sp)
a0808ed8:	03a0f021 	move	s8,sp
a0808edc:	afc40018 	sw	a0,24(s8)
a0808ee0:	afc5001c 	sw	a1,28(s8)
a0808ee4:	8fc20018 	lw	v0,24(s8)
a0808ee8:	24040022 	li	a0,34
a0808eec:	00402821 	move	a1,v0
a0808ef0:	8fc6001c 	lw	a2,28(s8)
a0808ef4:	00003821 	move	a3,zero
a0808ef8:	0c20029c 	jal	a0800a70 <invoke_syscall>
a0808efc:	00000000 	nop
a0808f00:	03c0e821 	move	sp,s8
a0808f04:	8fbf0014 	lw	ra,20(sp)
a0808f08:	8fbe0010 	lw	s8,16(sp)
a0808f0c:	27bd0018 	addiu	sp,sp,24
a0808f10:	03e00008 	jr	ra
a0808f14:	00000000 	nop

a0808f18 <barrier_wait>:
a0808f18:	27bdffe8 	addiu	sp,sp,-24
a0808f1c:	afbf0014 	sw	ra,20(sp)
a0808f20:	afbe0010 	sw	s8,16(sp)
a0808f24:	03a0f021 	move	s8,sp
a0808f28:	afc40018 	sw	a0,24(s8)
a0808f2c:	8fc20018 	lw	v0,24(s8)
a0808f30:	24040023 	li	a0,35
a0808f34:	00402821 	move	a1,v0
a0808f38:	00003021 	move	a2,zero
a0808f3c:	00003821 	move	a3,zero
a0808f40:	0c20029c 	jal	a0800a70 <invoke_syscall>
a0808f44:	00000000 	nop
a0808f48:	03c0e821 	move	sp,s8
a0808f4c:	8fbf0014 	lw	ra,20(sp)
a0808f50:	8fbe0010 	lw	s8,16(sp)
a0808f54:	27bd0018 	addiu	sp,sp,24
a0808f58:	03e00008 	jr	ra
a0808f5c:	00000000 	nop

a0808f60 <semaphore_init>:
a0808f60:	27bdffe8 	addiu	sp,sp,-24
a0808f64:	afbf0014 	sw	ra,20(sp)
a0808f68:	afbe0010 	sw	s8,16(sp)
a0808f6c:	03a0f021 	move	s8,sp
a0808f70:	afc40018 	sw	a0,24(s8)
a0808f74:	afc5001c 	sw	a1,28(s8)
a0808f78:	8fc20018 	lw	v0,24(s8)
a0808f7c:	24040024 	li	a0,36
a0808f80:	00402821 	move	a1,v0
a0808f84:	8fc6001c 	lw	a2,28(s8)
a0808f88:	00003821 	move	a3,zero
a0808f8c:	0c20029c 	jal	a0800a70 <invoke_syscall>
a0808f90:	00000000 	nop
a0808f94:	03c0e821 	move	sp,s8
a0808f98:	8fbf0014 	lw	ra,20(sp)
a0808f9c:	8fbe0010 	lw	s8,16(sp)
a0808fa0:	27bd0018 	addiu	sp,sp,24
a0808fa4:	03e00008 	jr	ra
a0808fa8:	00000000 	nop

a0808fac <semaphore_up>:
a0808fac:	27bdffe8 	addiu	sp,sp,-24
a0808fb0:	afbf0014 	sw	ra,20(sp)
a0808fb4:	afbe0010 	sw	s8,16(sp)
a0808fb8:	03a0f021 	move	s8,sp
a0808fbc:	afc40018 	sw	a0,24(s8)
a0808fc0:	8fc20018 	lw	v0,24(s8)
a0808fc4:	24040025 	li	a0,37
a0808fc8:	00402821 	move	a1,v0
a0808fcc:	00003021 	move	a2,zero
a0808fd0:	00003821 	move	a3,zero
a0808fd4:	0c20029c 	jal	a0800a70 <invoke_syscall>
a0808fd8:	00000000 	nop
a0808fdc:	03c0e821 	move	sp,s8
a0808fe0:	8fbf0014 	lw	ra,20(sp)
a0808fe4:	8fbe0010 	lw	s8,16(sp)
a0808fe8:	27bd0018 	addiu	sp,sp,24
a0808fec:	03e00008 	jr	ra
a0808ff0:	00000000 	nop

a0808ff4 <semaphore_down>:
a0808ff4:	27bdffe8 	addiu	sp,sp,-24
a0808ff8:	afbf0014 	sw	ra,20(sp)
a0808ffc:	afbe0010 	sw	s8,16(sp)
a0809000:	03a0f021 	move	s8,sp
a0809004:	afc40018 	sw	a0,24(s8)
a0809008:	8fc20018 	lw	v0,24(s8)
a080900c:	24040026 	li	a0,38
a0809010:	00402821 	move	a1,v0
a0809014:	00003021 	move	a2,zero
a0809018:	00003821 	move	a3,zero
a080901c:	0c20029c 	jal	a0800a70 <invoke_syscall>
a0809020:	00000000 	nop
a0809024:	03c0e821 	move	sp,s8
a0809028:	8fbf0014 	lw	ra,20(sp)
a080902c:	8fbe0010 	lw	s8,16(sp)
a0809030:	27bd0018 	addiu	sp,sp,24
a0809034:	03e00008 	jr	ra
a0809038:	00000000 	nop

a080903c <condition_init>:
a080903c:	27bdffe8 	addiu	sp,sp,-24
a0809040:	afbf0014 	sw	ra,20(sp)
a0809044:	afbe0010 	sw	s8,16(sp)
a0809048:	03a0f021 	move	s8,sp
a080904c:	afc40018 	sw	a0,24(s8)
a0809050:	8fc20018 	lw	v0,24(s8)
a0809054:	24040027 	li	a0,39
a0809058:	00402821 	move	a1,v0
a080905c:	00003021 	move	a2,zero
a0809060:	00003821 	move	a3,zero
a0809064:	0c20029c 	jal	a0800a70 <invoke_syscall>
a0809068:	00000000 	nop
a080906c:	03c0e821 	move	sp,s8
a0809070:	8fbf0014 	lw	ra,20(sp)
a0809074:	8fbe0010 	lw	s8,16(sp)
a0809078:	27bd0018 	addiu	sp,sp,24
a080907c:	03e00008 	jr	ra
a0809080:	00000000 	nop

a0809084 <condition_wait>:
a0809084:	27bdffe8 	addiu	sp,sp,-24
a0809088:	afbf0014 	sw	ra,20(sp)
a080908c:	afbe0010 	sw	s8,16(sp)
a0809090:	03a0f021 	move	s8,sp
a0809094:	afc40018 	sw	a0,24(s8)
a0809098:	afc5001c 	sw	a1,28(s8)
a080909c:	8fc20018 	lw	v0,24(s8)
a08090a0:	8fc3001c 	lw	v1,28(s8)
a08090a4:	24040028 	li	a0,40
a08090a8:	00402821 	move	a1,v0
a08090ac:	00603021 	move	a2,v1
a08090b0:	00003821 	move	a3,zero
a08090b4:	0c20029c 	jal	a0800a70 <invoke_syscall>
a08090b8:	00000000 	nop
a08090bc:	03c0e821 	move	sp,s8
a08090c0:	8fbf0014 	lw	ra,20(sp)
a08090c4:	8fbe0010 	lw	s8,16(sp)
a08090c8:	27bd0018 	addiu	sp,sp,24
a08090cc:	03e00008 	jr	ra
a08090d0:	00000000 	nop

a08090d4 <condition_signal>:
a08090d4:	27bdffe8 	addiu	sp,sp,-24
a08090d8:	afbf0014 	sw	ra,20(sp)
a08090dc:	afbe0010 	sw	s8,16(sp)
a08090e0:	03a0f021 	move	s8,sp
a08090e4:	afc40018 	sw	a0,24(s8)
a08090e8:	8fc20018 	lw	v0,24(s8)
a08090ec:	24040029 	li	a0,41
a08090f0:	00402821 	move	a1,v0
a08090f4:	00003021 	move	a2,zero
a08090f8:	00003821 	move	a3,zero
a08090fc:	0c20029c 	jal	a0800a70 <invoke_syscall>
a0809100:	00000000 	nop
a0809104:	03c0e821 	move	sp,s8
a0809108:	8fbf0014 	lw	ra,20(sp)
a080910c:	8fbe0010 	lw	s8,16(sp)
a0809110:	27bd0018 	addiu	sp,sp,24
a0809114:	03e00008 	jr	ra
a0809118:	00000000 	nop

a080911c <condition_broadcast>:
a080911c:	27bdffe8 	addiu	sp,sp,-24
a0809120:	afbf0014 	sw	ra,20(sp)
a0809124:	afbe0010 	sw	s8,16(sp)
a0809128:	03a0f021 	move	s8,sp
a080912c:	afc40018 	sw	a0,24(s8)
a0809130:	8fc20018 	lw	v0,24(s8)
a0809134:	2404002a 	li	a0,42
a0809138:	00402821 	move	a1,v0
a080913c:	00003021 	move	a2,zero
a0809140:	00003821 	move	a3,zero
a0809144:	0c20029c 	jal	a0800a70 <invoke_syscall>
a0809148:	00000000 	nop
a080914c:	03c0e821 	move	sp,s8
a0809150:	8fbf0014 	lw	ra,20(sp)
a0809154:	8fbe0010 	lw	s8,16(sp)
a0809158:	27bd0018 	addiu	sp,sp,24
a080915c:	03e00008 	jr	ra
a0809160:	00000000 	nop

a0809164 <sys_init_mac>:
a0809164:	27bdffe8 	addiu	sp,sp,-24
a0809168:	afbf0014 	sw	ra,20(sp)
a080916c:	afbe0010 	sw	s8,16(sp)
a0809170:	03a0f021 	move	s8,sp
a0809174:	2404002b 	li	a0,43
a0809178:	00002821 	move	a1,zero
a080917c:	00003021 	move	a2,zero
a0809180:	00003821 	move	a3,zero
a0809184:	0c20029c 	jal	a0800a70 <invoke_syscall>
a0809188:	00000000 	nop
a080918c:	03c0e821 	move	sp,s8
a0809190:	8fbf0014 	lw	ra,20(sp)
a0809194:	8fbe0010 	lw	s8,16(sp)
a0809198:	27bd0018 	addiu	sp,sp,24
a080919c:	03e00008 	jr	ra
a08091a0:	00000000 	nop

a08091a4 <sys_net_send>:
a08091a4:	27bdffe8 	addiu	sp,sp,-24
a08091a8:	afbf0014 	sw	ra,20(sp)
a08091ac:	afbe0010 	sw	s8,16(sp)
a08091b0:	03a0f021 	move	s8,sp
a08091b4:	afc40018 	sw	a0,24(s8)
a08091b8:	afc5001c 	sw	a1,28(s8)
a08091bc:	8fc20018 	lw	v0,24(s8)
a08091c0:	8fc3001c 	lw	v1,28(s8)
a08091c4:	2404002c 	li	a0,44
a08091c8:	00402821 	move	a1,v0
a08091cc:	00603021 	move	a2,v1
a08091d0:	00003821 	move	a3,zero
a08091d4:	0c20029c 	jal	a0800a70 <invoke_syscall>
a08091d8:	00000000 	nop
a08091dc:	03c0e821 	move	sp,s8
a08091e0:	8fbf0014 	lw	ra,20(sp)
a08091e4:	8fbe0010 	lw	s8,16(sp)
a08091e8:	27bd0018 	addiu	sp,sp,24
a08091ec:	03e00008 	jr	ra
a08091f0:	00000000 	nop

a08091f4 <sys_net_recv>:
a08091f4:	27bdffe0 	addiu	sp,sp,-32
a08091f8:	afbf001c 	sw	ra,28(sp)
a08091fc:	afbe0018 	sw	s8,24(sp)
a0809200:	03a0f021 	move	s8,sp
a0809204:	afc40020 	sw	a0,32(s8)
a0809208:	afc50024 	sw	a1,36(s8)
a080920c:	afc60028 	sw	a2,40(s8)
a0809210:	8fc20020 	lw	v0,32(s8)
a0809214:	8fc30024 	lw	v1,36(s8)
a0809218:	8fc70028 	lw	a3,40(s8)
a080921c:	2404002d 	li	a0,45
a0809220:	00402821 	move	a1,v0
a0809224:	00603021 	move	a2,v1
a0809228:	0c20029c 	jal	a0800a70 <invoke_syscall>
a080922c:	00000000 	nop
a0809230:	03c0e821 	move	sp,s8
a0809234:	8fbf001c 	lw	ra,28(sp)
a0809238:	8fbe0018 	lw	s8,24(sp)
a080923c:	27bd0020 	addiu	sp,sp,32
a0809240:	03e00008 	jr	ra
a0809244:	00000000 	nop

a0809248 <sys_wait_recv_package>:
a0809248:	27bdffe8 	addiu	sp,sp,-24
a080924c:	afbf0014 	sw	ra,20(sp)
a0809250:	afbe0010 	sw	s8,16(sp)
a0809254:	03a0f021 	move	s8,sp
a0809258:	2404002e 	li	a0,46
a080925c:	00002821 	move	a1,zero
a0809260:	00003021 	move	a2,zero
a0809264:	00003821 	move	a3,zero
a0809268:	0c20029c 	jal	a0800a70 <invoke_syscall>
a080926c:	00000000 	nop
a0809270:	03c0e821 	move	sp,s8
a0809274:	8fbf0014 	lw	ra,20(sp)
a0809278:	8fbe0010 	lw	s8,16(sp)
a080927c:	27bd0018 	addiu	sp,sp,24
a0809280:	03e00008 	jr	ra
a0809284:	00000000 	nop

a0809288 <sys_mkfs>:
a0809288:	27bdffe0 	addiu	sp,sp,-32
a080928c:	afbf001c 	sw	ra,28(sp)
a0809290:	afbe0018 	sw	s8,24(sp)
a0809294:	03a0f021 	move	s8,sp
a0809298:	2404002f 	li	a0,47
a080929c:	00002821 	move	a1,zero
a08092a0:	00003021 	move	a2,zero
a08092a4:	00003821 	move	a3,zero
a08092a8:	0c20029c 	jal	a0800a70 <invoke_syscall>
a08092ac:	00000000 	nop
a08092b0:	03c0e821 	move	sp,s8
a08092b4:	8fbf001c 	lw	ra,28(sp)
a08092b8:	8fbe0018 	lw	s8,24(sp)
a08092bc:	27bd0020 	addiu	sp,sp,32
a08092c0:	03e00008 	jr	ra
a08092c4:	00000000 	nop

a08092c8 <sys_statfs>:
a08092c8:	27bdffe8 	addiu	sp,sp,-24
a08092cc:	afbf0014 	sw	ra,20(sp)
a08092d0:	afbe0010 	sw	s8,16(sp)
a08092d4:	03a0f021 	move	s8,sp
a08092d8:	24040030 	li	a0,48
a08092dc:	00002821 	move	a1,zero
a08092e0:	00003021 	move	a2,zero
a08092e4:	00003821 	move	a3,zero
a08092e8:	0c20029c 	jal	a0800a70 <invoke_syscall>
a08092ec:	00000000 	nop
a08092f0:	03c0e821 	move	sp,s8
a08092f4:	8fbf0014 	lw	ra,20(sp)
a08092f8:	8fbe0010 	lw	s8,16(sp)
a08092fc:	27bd0018 	addiu	sp,sp,24
a0809300:	03e00008 	jr	ra
a0809304:	00000000 	nop

a0809308 <sys_cd>:
a0809308:	27bdffe0 	addiu	sp,sp,-32
a080930c:	afbf001c 	sw	ra,28(sp)
a0809310:	afbe0018 	sw	s8,24(sp)
a0809314:	03a0f021 	move	s8,sp
a0809318:	afc40020 	sw	a0,32(s8)
a080931c:	8fc20020 	lw	v0,32(s8)
a0809320:	24040031 	li	a0,49
a0809324:	00402821 	move	a1,v0
a0809328:	00003021 	move	a2,zero
a080932c:	00003821 	move	a3,zero
a0809330:	0c20029c 	jal	a0800a70 <invoke_syscall>
a0809334:	00000000 	nop
a0809338:	03c0e821 	move	sp,s8
a080933c:	8fbf001c 	lw	ra,28(sp)
a0809340:	8fbe0018 	lw	s8,24(sp)
a0809344:	27bd0020 	addiu	sp,sp,32
a0809348:	03e00008 	jr	ra
a080934c:	00000000 	nop

a0809350 <sys_mkdir>:
a0809350:	27bdffe0 	addiu	sp,sp,-32
a0809354:	afbf001c 	sw	ra,28(sp)
a0809358:	afbe0018 	sw	s8,24(sp)
a080935c:	03a0f021 	move	s8,sp
a0809360:	afc40020 	sw	a0,32(s8)
a0809364:	8fc20020 	lw	v0,32(s8)
a0809368:	24040032 	li	a0,50
a080936c:	00402821 	move	a1,v0
a0809370:	00003021 	move	a2,zero
a0809374:	00003821 	move	a3,zero
a0809378:	0c20029c 	jal	a0800a70 <invoke_syscall>
a080937c:	00000000 	nop
a0809380:	03c0e821 	move	sp,s8
a0809384:	8fbf001c 	lw	ra,28(sp)
a0809388:	8fbe0018 	lw	s8,24(sp)
a080938c:	27bd0020 	addiu	sp,sp,32
a0809390:	03e00008 	jr	ra
a0809394:	00000000 	nop

a0809398 <sys_rmdir>:
a0809398:	27bdffe0 	addiu	sp,sp,-32
a080939c:	afbf001c 	sw	ra,28(sp)
a08093a0:	afbe0018 	sw	s8,24(sp)
a08093a4:	03a0f021 	move	s8,sp
a08093a8:	afc40020 	sw	a0,32(s8)
a08093ac:	8fc20020 	lw	v0,32(s8)
a08093b0:	24040033 	li	a0,51
a08093b4:	00402821 	move	a1,v0
a08093b8:	00003021 	move	a2,zero
a08093bc:	00003821 	move	a3,zero
a08093c0:	0c20029c 	jal	a0800a70 <invoke_syscall>
a08093c4:	00000000 	nop
a08093c8:	03c0e821 	move	sp,s8
a08093cc:	8fbf001c 	lw	ra,28(sp)
a08093d0:	8fbe0018 	lw	s8,24(sp)
a08093d4:	27bd0020 	addiu	sp,sp,32
a08093d8:	03e00008 	jr	ra
a08093dc:	00000000 	nop

a08093e0 <sys_ls>:
a08093e0:	27bdffe0 	addiu	sp,sp,-32
a08093e4:	afbf001c 	sw	ra,28(sp)
a08093e8:	afbe0018 	sw	s8,24(sp)
a08093ec:	03a0f021 	move	s8,sp
a08093f0:	afc40020 	sw	a0,32(s8)
a08093f4:	8fc20020 	lw	v0,32(s8)
a08093f8:	24040034 	li	a0,52
a08093fc:	00402821 	move	a1,v0
a0809400:	00003021 	move	a2,zero
a0809404:	00003821 	move	a3,zero
a0809408:	0c20029c 	jal	a0800a70 <invoke_syscall>
a080940c:	00000000 	nop
a0809410:	03c0e821 	move	sp,s8
a0809414:	8fbf001c 	lw	ra,28(sp)
a0809418:	8fbe0018 	lw	s8,24(sp)
a080941c:	27bd0020 	addiu	sp,sp,32
a0809420:	03e00008 	jr	ra
a0809424:	00000000 	nop

a0809428 <sys_touch>:
a0809428:	27bdffe0 	addiu	sp,sp,-32
a080942c:	afbf001c 	sw	ra,28(sp)
a0809430:	afbe0018 	sw	s8,24(sp)
a0809434:	03a0f021 	move	s8,sp
a0809438:	afc40020 	sw	a0,32(s8)
a080943c:	8fc20020 	lw	v0,32(s8)
a0809440:	24040035 	li	a0,53
a0809444:	00402821 	move	a1,v0
a0809448:	00003021 	move	a2,zero
a080944c:	00003821 	move	a3,zero
a0809450:	0c20029c 	jal	a0800a70 <invoke_syscall>
a0809454:	00000000 	nop
a0809458:	03c0e821 	move	sp,s8
a080945c:	8fbf001c 	lw	ra,28(sp)
a0809460:	8fbe0018 	lw	s8,24(sp)
a0809464:	27bd0020 	addiu	sp,sp,32
a0809468:	03e00008 	jr	ra
a080946c:	00000000 	nop

a0809470 <sys_cat>:
a0809470:	27bdffe0 	addiu	sp,sp,-32
a0809474:	afbf001c 	sw	ra,28(sp)
a0809478:	afbe0018 	sw	s8,24(sp)
a080947c:	03a0f021 	move	s8,sp
a0809480:	afc40020 	sw	a0,32(s8)
a0809484:	8fc20020 	lw	v0,32(s8)
a0809488:	24040036 	li	a0,54
a080948c:	00402821 	move	a1,v0
a0809490:	00003021 	move	a2,zero
a0809494:	00003821 	move	a3,zero
a0809498:	0c20029c 	jal	a0800a70 <invoke_syscall>
a080949c:	00000000 	nop
a08094a0:	03c0e821 	move	sp,s8
a08094a4:	8fbf001c 	lw	ra,28(sp)
a08094a8:	8fbe0018 	lw	s8,24(sp)
a08094ac:	27bd0020 	addiu	sp,sp,32
a08094b0:	03e00008 	jr	ra
a08094b4:	00000000 	nop

a08094b8 <sys_fopen>:
a08094b8:	27bdffe0 	addiu	sp,sp,-32
a08094bc:	afbf001c 	sw	ra,28(sp)
a08094c0:	afbe0018 	sw	s8,24(sp)
a08094c4:	03a0f021 	move	s8,sp
a08094c8:	afc40020 	sw	a0,32(s8)
a08094cc:	afc50024 	sw	a1,36(s8)
a08094d0:	8fc20020 	lw	v0,32(s8)
a08094d4:	24040037 	li	a0,55
a08094d8:	00402821 	move	a1,v0
a08094dc:	8fc60024 	lw	a2,36(s8)
a08094e0:	00003821 	move	a3,zero
a08094e4:	0c20029c 	jal	a0800a70 <invoke_syscall>
a08094e8:	00000000 	nop
a08094ec:	03c0e821 	move	sp,s8
a08094f0:	8fbf001c 	lw	ra,28(sp)
a08094f4:	8fbe0018 	lw	s8,24(sp)
a08094f8:	27bd0020 	addiu	sp,sp,32
a08094fc:	03e00008 	jr	ra
a0809500:	00000000 	nop

a0809504 <sys_fread>:
a0809504:	27bdffe0 	addiu	sp,sp,-32
a0809508:	afbf001c 	sw	ra,28(sp)
a080950c:	afbe0018 	sw	s8,24(sp)
a0809510:	03a0f021 	move	s8,sp
a0809514:	afc40020 	sw	a0,32(s8)
a0809518:	afc50024 	sw	a1,36(s8)
a080951c:	afc60028 	sw	a2,40(s8)
a0809520:	8fc20024 	lw	v0,36(s8)
a0809524:	24040038 	li	a0,56
a0809528:	8fc50020 	lw	a1,32(s8)
a080952c:	00403021 	move	a2,v0
a0809530:	8fc70028 	lw	a3,40(s8)
a0809534:	0c20029c 	jal	a0800a70 <invoke_syscall>
a0809538:	00000000 	nop
a080953c:	03c0e821 	move	sp,s8
a0809540:	8fbf001c 	lw	ra,28(sp)
a0809544:	8fbe0018 	lw	s8,24(sp)
a0809548:	27bd0020 	addiu	sp,sp,32
a080954c:	03e00008 	jr	ra
a0809550:	00000000 	nop

a0809554 <sys_fwrite>:
a0809554:	27bdffe0 	addiu	sp,sp,-32
a0809558:	afbf001c 	sw	ra,28(sp)
a080955c:	afbe0018 	sw	s8,24(sp)
a0809560:	03a0f021 	move	s8,sp
a0809564:	afc40020 	sw	a0,32(s8)
a0809568:	afc50024 	sw	a1,36(s8)
a080956c:	afc60028 	sw	a2,40(s8)
a0809570:	8fc20024 	lw	v0,36(s8)
a0809574:	24040039 	li	a0,57
a0809578:	8fc50020 	lw	a1,32(s8)
a080957c:	00403021 	move	a2,v0
a0809580:	8fc70028 	lw	a3,40(s8)
a0809584:	0c20029c 	jal	a0800a70 <invoke_syscall>
a0809588:	00000000 	nop
a080958c:	03c0e821 	move	sp,s8
a0809590:	8fbf001c 	lw	ra,28(sp)
a0809594:	8fbe0018 	lw	s8,24(sp)
a0809598:	27bd0020 	addiu	sp,sp,32
a080959c:	03e00008 	jr	ra
a08095a0:	00000000 	nop

a08095a4 <sys_close>:
a08095a4:	27bdffe8 	addiu	sp,sp,-24
a08095a8:	afbf0014 	sw	ra,20(sp)
a08095ac:	afbe0010 	sw	s8,16(sp)
a08095b0:	03a0f021 	move	s8,sp
a08095b4:	afc40018 	sw	a0,24(s8)
a08095b8:	2404003a 	li	a0,58
a08095bc:	8fc50018 	lw	a1,24(s8)
a08095c0:	00003021 	move	a2,zero
a08095c4:	00003821 	move	a3,zero
a08095c8:	0c20029c 	jal	a0800a70 <invoke_syscall>
a08095cc:	00000000 	nop
a08095d0:	03c0e821 	move	sp,s8
a08095d4:	8fbf0014 	lw	ra,20(sp)
a08095d8:	8fbe0010 	lw	s8,16(sp)
a08095dc:	27bd0018 	addiu	sp,sp,24
a08095e0:	03e00008 	jr	ra
a08095e4:	00000000 	nop

a08095e8 <sys_cfs>:
a08095e8:	27bdffe8 	addiu	sp,sp,-24
a08095ec:	afbf0014 	sw	ra,20(sp)
a08095f0:	afbe0010 	sw	s8,16(sp)
a08095f4:	03a0f021 	move	s8,sp
a08095f8:	2404003b 	li	a0,59
a08095fc:	00002821 	move	a1,zero
a0809600:	00003021 	move	a2,zero
a0809604:	00003821 	move	a3,zero
a0809608:	0c20029c 	jal	a0800a70 <invoke_syscall>
a080960c:	00000000 	nop
a0809610:	03c0e821 	move	sp,s8
a0809614:	8fbf0014 	lw	ra,20(sp)
a0809618:	8fbe0010 	lw	s8,16(sp)
a080961c:	27bd0018 	addiu	sp,sp,24
a0809620:	03e00008 	jr	ra
a0809624:	00000000 	nop

a0809628 <sys_other>:
a0809628:	27bdfff8 	addiu	sp,sp,-8
a080962c:	afbe0004 	sw	s8,4(sp)
a0809630:	03a0f021 	move	s8,sp
a0809634:	03c0e821 	move	sp,s8
a0809638:	8fbe0004 	lw	s8,4(sp)
a080963c:	27bd0008 	addiu	sp,sp,8
a0809640:	03e00008 	jr	ra
a0809644:	00000000 	nop
	...

a0809650 <mbox_init>:
a0809650:	27bdffe0 	addiu	sp,sp,-32
a0809654:	afbf001c 	sw	ra,28(sp)
a0809658:	afbe0018 	sw	s8,24(sp)
a080965c:	03a0f021 	move	s8,sp
a0809660:	3c02a081 	lui	v0,0xa081
a0809664:	244429b0 	addiu	a0,v0,10672
a0809668:	0c20237d 	jal	a0808df4 <mutex_lock_init>
a080966c:	00000000 	nop
a0809670:	afc00010 	sw	zero,16(s8)
a0809674:	0820261f 	j	a080987c <mbox_init+0x22c>
a0809678:	00000000 	nop
a080967c:	8fc40010 	lw	a0,16(s8)
a0809680:	3c05a081 	lui	a1,0xa081
a0809684:	00801021 	move	v0,a0
a0809688:	00021080 	sll	v0,v0,0x2
a080968c:	00021880 	sll	v1,v0,0x2
a0809690:	00431021 	addu	v0,v0,v1
a0809694:	00441023 	subu	v0,v0,a0
a0809698:	000218c0 	sll	v1,v0,0x3
a080969c:	00431021 	addu	v0,v0,v1
a08096a0:	00441821 	addu	v1,v0,a0
a08096a4:	24a21430 	addiu	v0,a1,5168
a08096a8:	00621021 	addu	v0,v1,v0
a08096ac:	a0400000 	sb	zero,0(v0)
a08096b0:	8fc50010 	lw	a1,16(s8)
a08096b4:	8fc40010 	lw	a0,16(s8)
a08096b8:	3c02a081 	lui	v0,0xa081
a08096bc:	24461430 	addiu	a2,v0,5168
a08096c0:	00801021 	move	v0,a0
a08096c4:	00021080 	sll	v0,v0,0x2
a08096c8:	00021880 	sll	v1,v0,0x2
a08096cc:	00431021 	addu	v0,v0,v1
a08096d0:	00441023 	subu	v0,v0,a0
a08096d4:	000218c0 	sll	v1,v0,0x3
a08096d8:	00431021 	addu	v0,v0,v1
a08096dc:	00441021 	addu	v0,v0,a0
a08096e0:	00c21021 	addu	v0,a2,v0
a08096e4:	ac400084 	sw	zero,132(v0)
a08096e8:	3c02a081 	lui	v0,0xa081
a08096ec:	24461430 	addiu	a2,v0,5168
a08096f0:	00801021 	move	v0,a0
a08096f4:	00021080 	sll	v0,v0,0x2
a08096f8:	00021880 	sll	v1,v0,0x2
a08096fc:	00431021 	addu	v0,v0,v1
a0809700:	00441023 	subu	v0,v0,a0
a0809704:	000218c0 	sll	v1,v0,0x3
a0809708:	00431021 	addu	v0,v0,v1
a080970c:	00441021 	addu	v0,v0,a0
a0809710:	00c21021 	addu	v0,a2,v0
a0809714:	8c460084 	lw	a2,132(v0)
a0809718:	3c04a081 	lui	a0,0xa081
a080971c:	00a01021 	move	v0,a1
a0809720:	00021080 	sll	v0,v0,0x2
a0809724:	00021880 	sll	v1,v0,0x2
a0809728:	00431021 	addu	v0,v0,v1
a080972c:	00451023 	subu	v0,v0,a1
a0809730:	000218c0 	sll	v1,v0,0x3
a0809734:	00431021 	addu	v0,v0,v1
a0809738:	00451821 	addu	v1,v0,a1
a080973c:	24821430 	addiu	v0,a0,5168
a0809740:	00621021 	addu	v0,v1,v0
a0809744:	ac460080 	sw	a2,128(v0)
a0809748:	8fc40010 	lw	a0,16(s8)
a080974c:	3c05a081 	lui	a1,0xa081
a0809750:	00801021 	move	v0,a0
a0809754:	00021080 	sll	v0,v0,0x2
a0809758:	00021880 	sll	v1,v0,0x2
a080975c:	00431021 	addu	v0,v0,v1
a0809760:	00441023 	subu	v0,v0,a0
a0809764:	000218c0 	sll	v1,v0,0x3
a0809768:	00431021 	addu	v0,v0,v1
a080976c:	00441821 	addu	v1,v0,a0
a0809770:	24a21430 	addiu	v0,a1,5168
a0809774:	00621021 	addu	v0,v1,v0
a0809778:	ac400088 	sw	zero,136(v0)
a080977c:	8fc40010 	lw	a0,16(s8)
a0809780:	3c02a081 	lui	v0,0xa081
a0809784:	24451430 	addiu	a1,v0,5168
a0809788:	00801021 	move	v0,a0
a080978c:	00021080 	sll	v0,v0,0x2
a0809790:	00021880 	sll	v1,v0,0x2
a0809794:	00431021 	addu	v0,v0,v1
a0809798:	00441023 	subu	v0,v0,a0
a080979c:	000218c0 	sll	v1,v0,0x3
a08097a0:	00431021 	addu	v0,v0,v1
a08097a4:	00441021 	addu	v0,v0,a0
a08097a8:	00a21021 	addu	v0,a1,v0
a08097ac:	ac40008c 	sw	zero,140(v0)
a08097b0:	8fc40010 	lw	a0,16(s8)
a08097b4:	00801021 	move	v0,a0
a08097b8:	00021080 	sll	v0,v0,0x2
a08097bc:	00021880 	sll	v1,v0,0x2
a08097c0:	00431021 	addu	v0,v0,v1
a08097c4:	00441023 	subu	v0,v0,a0
a08097c8:	000218c0 	sll	v1,v0,0x3
a08097cc:	00431021 	addu	v0,v0,v1
a08097d0:	00441021 	addu	v0,v0,a0
a08097d4:	24430090 	addiu	v1,v0,144
a08097d8:	3c02a081 	lui	v0,0xa081
a08097dc:	24421430 	addiu	v0,v0,5168
a08097e0:	00621021 	addu	v0,v1,v0
a08097e4:	00402021 	move	a0,v0
a08097e8:	0c20240f 	jal	a080903c <condition_init>
a08097ec:	00000000 	nop
a08097f0:	8fc40010 	lw	a0,16(s8)
a08097f4:	00801021 	move	v0,a0
a08097f8:	00021080 	sll	v0,v0,0x2
a08097fc:	00021880 	sll	v1,v0,0x2
a0809800:	00431021 	addu	v0,v0,v1
a0809804:	00441023 	subu	v0,v0,a0
a0809808:	000218c0 	sll	v1,v0,0x3
a080980c:	00431021 	addu	v0,v0,v1
a0809810:	00441021 	addu	v0,v0,a0
a0809814:	24430098 	addiu	v1,v0,152
a0809818:	3c02a081 	lui	v0,0xa081
a080981c:	24421430 	addiu	v0,v0,5168
a0809820:	00621021 	addu	v0,v1,v0
a0809824:	00402021 	move	a0,v0
a0809828:	0c20240f 	jal	a080903c <condition_init>
a080982c:	00000000 	nop
a0809830:	8fc40010 	lw	a0,16(s8)
a0809834:	00801021 	move	v0,a0
a0809838:	00021080 	sll	v0,v0,0x2
a080983c:	00021880 	sll	v1,v0,0x2
a0809840:	00431021 	addu	v0,v0,v1
a0809844:	00441023 	subu	v0,v0,a0
a0809848:	000218c0 	sll	v1,v0,0x3
a080984c:	00431021 	addu	v0,v0,v1
a0809850:	00441021 	addu	v0,v0,a0
a0809854:	244300a0 	addiu	v1,v0,160
a0809858:	3c02a081 	lui	v0,0xa081
a080985c:	24421430 	addiu	v0,v0,5168
a0809860:	00621021 	addu	v0,v1,v0
a0809864:	00402021 	move	a0,v0
a0809868:	0c20237d 	jal	a0808df4 <mutex_lock_init>
a080986c:	00000000 	nop
a0809870:	8fc20010 	lw	v0,16(s8)
a0809874:	24420001 	addiu	v0,v0,1
a0809878:	afc20010 	sw	v0,16(s8)
a080987c:	8fc20010 	lw	v0,16(s8)
a0809880:	28420020 	slti	v0,v0,32
a0809884:	1440ff7d 	bnez	v0,a080967c <mbox_init+0x2c>
a0809888:	00000000 	nop
a080988c:	03c0e821 	move	sp,s8
a0809890:	8fbf001c 	lw	ra,28(sp)
a0809894:	8fbe0018 	lw	s8,24(sp)
a0809898:	27bd0020 	addiu	sp,sp,32
a080989c:	03e00008 	jr	ra
a08098a0:	00000000 	nop

a08098a4 <mbox_open>:
a08098a4:	27bdffe0 	addiu	sp,sp,-32
a08098a8:	afbf001c 	sw	ra,28(sp)
a08098ac:	afbe0018 	sw	s8,24(sp)
a08098b0:	03a0f021 	move	s8,sp
a08098b4:	afc40020 	sw	a0,32(s8)
a08098b8:	2402ffff 	li	v0,-1
a08098bc:	afc20014 	sw	v0,20(s8)
a08098c0:	3c02a081 	lui	v0,0xa081
a08098c4:	244429b0 	addiu	a0,v0,10672
a08098c8:	0c20238f 	jal	a0808e3c <mutex_lock_acquire>
a08098cc:	00000000 	nop
a08098d0:	afc00010 	sw	zero,16(s8)
a08098d4:	0820268e 	j	a0809a38 <mbox_open+0x194>
a08098d8:	00000000 	nop
a08098dc:	8fc40010 	lw	a0,16(s8)
a08098e0:	3c05a081 	lui	a1,0xa081
a08098e4:	00801021 	move	v0,a0
a08098e8:	00021080 	sll	v0,v0,0x2
a08098ec:	00021880 	sll	v1,v0,0x2
a08098f0:	00431021 	addu	v0,v0,v1
a08098f4:	00441023 	subu	v0,v0,a0
a08098f8:	000218c0 	sll	v1,v0,0x3
a08098fc:	00431021 	addu	v0,v0,v1
a0809900:	00441821 	addu	v1,v0,a0
a0809904:	24a21430 	addiu	v0,a1,5168
a0809908:	00621021 	addu	v0,v1,v0
a080990c:	80420000 	lb	v0,0(v0)
a0809910:	14400016 	bnez	v0,a080996c <mbox_open+0xc8>
a0809914:	00000000 	nop
a0809918:	8fc20014 	lw	v0,20(s8)
a080991c:	04410013 	bgez	v0,a080996c <mbox_open+0xc8>
a0809920:	00000000 	nop
a0809924:	8fc20010 	lw	v0,16(s8)
a0809928:	afc20014 	sw	v0,20(s8)
a080992c:	8fc40010 	lw	a0,16(s8)
a0809930:	3c02a081 	lui	v0,0xa081
a0809934:	24451430 	addiu	a1,v0,5168
a0809938:	00801021 	move	v0,a0
a080993c:	00021080 	sll	v0,v0,0x2
a0809940:	00021880 	sll	v1,v0,0x2
a0809944:	00431021 	addu	v0,v0,v1
a0809948:	00441023 	subu	v0,v0,a0
a080994c:	000218c0 	sll	v1,v0,0x3
a0809950:	00431021 	addu	v0,v0,v1
a0809954:	00441021 	addu	v0,v0,a0
a0809958:	00a21021 	addu	v0,a1,v0
a080995c:	24030001 	li	v1,1
a0809960:	ac43008c 	sw	v1,140(v0)
a0809964:	0820268b 	j	a0809a2c <mbox_open+0x188>
a0809968:	00000000 	nop
a080996c:	8fc40010 	lw	a0,16(s8)
a0809970:	00801021 	move	v0,a0
a0809974:	00021080 	sll	v0,v0,0x2
a0809978:	00021880 	sll	v1,v0,0x2
a080997c:	00431021 	addu	v0,v0,v1
a0809980:	00441023 	subu	v0,v0,a0
a0809984:	000218c0 	sll	v1,v0,0x3
a0809988:	00431021 	addu	v0,v0,v1
a080998c:	00441821 	addu	v1,v0,a0
a0809990:	3c02a081 	lui	v0,0xa081
a0809994:	24421430 	addiu	v0,v0,5168
a0809998:	00621021 	addu	v0,v1,v0
a080999c:	00402021 	move	a0,v0
a08099a0:	8fc50020 	lw	a1,32(s8)
a08099a4:	0c202844 	jal	a080a110 <strcmp>
a08099a8:	00000000 	nop
a08099ac:	1440001f 	bnez	v0,a0809a2c <mbox_open+0x188>
a08099b0:	00000000 	nop
a08099b4:	8fc20010 	lw	v0,16(s8)
a08099b8:	afc20014 	sw	v0,20(s8)
a08099bc:	8fc40010 	lw	a0,16(s8)
a08099c0:	3c02a081 	lui	v0,0xa081
a08099c4:	24451430 	addiu	a1,v0,5168
a08099c8:	00801021 	move	v0,a0
a08099cc:	00021080 	sll	v0,v0,0x2
a08099d0:	00021880 	sll	v1,v0,0x2
a08099d4:	00431021 	addu	v0,v0,v1
a08099d8:	00441023 	subu	v0,v0,a0
a08099dc:	000218c0 	sll	v1,v0,0x3
a08099e0:	00431021 	addu	v0,v0,v1
a08099e4:	00441021 	addu	v0,v0,a0
a08099e8:	00a21021 	addu	v0,a1,v0
a08099ec:	8c42008c 	lw	v0,140(v0)
a08099f0:	24460001 	addiu	a2,v0,1
a08099f4:	3c02a081 	lui	v0,0xa081
a08099f8:	24451430 	addiu	a1,v0,5168
a08099fc:	00801021 	move	v0,a0
a0809a00:	00021080 	sll	v0,v0,0x2
a0809a04:	00021880 	sll	v1,v0,0x2
a0809a08:	00431021 	addu	v0,v0,v1
a0809a0c:	00441023 	subu	v0,v0,a0
a0809a10:	000218c0 	sll	v1,v0,0x3
a0809a14:	00431021 	addu	v0,v0,v1
a0809a18:	00441021 	addu	v0,v0,a0
a0809a1c:	00a21021 	addu	v0,a1,v0
a0809a20:	ac46008c 	sw	a2,140(v0)
a0809a24:	08202692 	j	a0809a48 <mbox_open+0x1a4>
a0809a28:	00000000 	nop
a0809a2c:	8fc20010 	lw	v0,16(s8)
a0809a30:	24420001 	addiu	v0,v0,1
a0809a34:	afc20010 	sw	v0,16(s8)
a0809a38:	8fc20010 	lw	v0,16(s8)
a0809a3c:	28420020 	slti	v0,v0,32
a0809a40:	1440ffa6 	bnez	v0,a08098dc <mbox_open+0x38>
a0809a44:	00000000 	nop
a0809a48:	8fc40014 	lw	a0,20(s8)
a0809a4c:	3c02a081 	lui	v0,0xa081
a0809a50:	24451430 	addiu	a1,v0,5168
a0809a54:	00801021 	move	v0,a0
a0809a58:	00021080 	sll	v0,v0,0x2
a0809a5c:	00021880 	sll	v1,v0,0x2
a0809a60:	00431021 	addu	v0,v0,v1
a0809a64:	00441023 	subu	v0,v0,a0
a0809a68:	000218c0 	sll	v1,v0,0x3
a0809a6c:	00431021 	addu	v0,v0,v1
a0809a70:	00441021 	addu	v0,v0,a0
a0809a74:	00a21021 	addu	v0,a1,v0
a0809a78:	8c43008c 	lw	v1,140(v0)
a0809a7c:	24020001 	li	v0,1
a0809a80:	14620011 	bne	v1,v0,a0809ac8 <mbox_open+0x224>
a0809a84:	00000000 	nop
a0809a88:	8fc40014 	lw	a0,20(s8)
a0809a8c:	00801021 	move	v0,a0
a0809a90:	00021080 	sll	v0,v0,0x2
a0809a94:	00021880 	sll	v1,v0,0x2
a0809a98:	00431021 	addu	v0,v0,v1
a0809a9c:	00441023 	subu	v0,v0,a0
a0809aa0:	000218c0 	sll	v1,v0,0x3
a0809aa4:	00431021 	addu	v0,v0,v1
a0809aa8:	00441821 	addu	v1,v0,a0
a0809aac:	3c02a081 	lui	v0,0xa081
a0809ab0:	24421430 	addiu	v0,v0,5168
a0809ab4:	00621021 	addu	v0,v1,v0
a0809ab8:	00402021 	move	a0,v0
a0809abc:	8fc50020 	lw	a1,32(s8)
a0809ac0:	0c20287a 	jal	a080a1e8 <strcpy>
a0809ac4:	00000000 	nop
a0809ac8:	3c02a081 	lui	v0,0xa081
a0809acc:	244429b0 	addiu	a0,v0,10672
a0809ad0:	0c2023a1 	jal	a0808e84 <mutex_lock_release>
a0809ad4:	00000000 	nop
a0809ad8:	8fc40014 	lw	a0,20(s8)
a0809adc:	00801021 	move	v0,a0
a0809ae0:	00021080 	sll	v0,v0,0x2
a0809ae4:	00021880 	sll	v1,v0,0x2
a0809ae8:	00431021 	addu	v0,v0,v1
a0809aec:	00441023 	subu	v0,v0,a0
a0809af0:	000218c0 	sll	v1,v0,0x3
a0809af4:	00431021 	addu	v0,v0,v1
a0809af8:	00441821 	addu	v1,v0,a0
a0809afc:	3c02a081 	lui	v0,0xa081
a0809b00:	24421430 	addiu	v0,v0,5168
a0809b04:	00621021 	addu	v0,v1,v0
a0809b08:	03c0e821 	move	sp,s8
a0809b0c:	8fbf001c 	lw	ra,28(sp)
a0809b10:	8fbe0018 	lw	s8,24(sp)
a0809b14:	27bd0020 	addiu	sp,sp,32
a0809b18:	03e00008 	jr	ra
a0809b1c:	00000000 	nop

a0809b20 <mbox_close>:
a0809b20:	27bdffe8 	addiu	sp,sp,-24
a0809b24:	afbf0014 	sw	ra,20(sp)
a0809b28:	afbe0010 	sw	s8,16(sp)
a0809b2c:	03a0f021 	move	s8,sp
a0809b30:	afc40018 	sw	a0,24(s8)
a0809b34:	3c02a081 	lui	v0,0xa081
a0809b38:	244429b0 	addiu	a0,v0,10672
a0809b3c:	0c20238f 	jal	a0808e3c <mutex_lock_acquire>
a0809b40:	00000000 	nop
a0809b44:	8fc20018 	lw	v0,24(s8)
a0809b48:	8c42008c 	lw	v0,140(v0)
a0809b4c:	2443ffff 	addiu	v1,v0,-1
a0809b50:	8fc20018 	lw	v0,24(s8)
a0809b54:	ac43008c 	sw	v1,140(v0)
a0809b58:	8fc20018 	lw	v0,24(s8)
a0809b5c:	8c42008c 	lw	v0,140(v0)
a0809b60:	1c40001c 	bgtz	v0,a0809bd4 <mbox_close+0xb4>
a0809b64:	00000000 	nop
a0809b68:	8fc20018 	lw	v0,24(s8)
a0809b6c:	a0400000 	sb	zero,0(v0)
a0809b70:	8fc20018 	lw	v0,24(s8)
a0809b74:	ac400084 	sw	zero,132(v0)
a0809b78:	8fc20018 	lw	v0,24(s8)
a0809b7c:	8c430084 	lw	v1,132(v0)
a0809b80:	8fc20018 	lw	v0,24(s8)
a0809b84:	ac430080 	sw	v1,128(v0)
a0809b88:	8fc20018 	lw	v0,24(s8)
a0809b8c:	ac400088 	sw	zero,136(v0)
a0809b90:	8fc20018 	lw	v0,24(s8)
a0809b94:	ac40008c 	sw	zero,140(v0)
a0809b98:	8fc20018 	lw	v0,24(s8)
a0809b9c:	24420090 	addiu	v0,v0,144
a0809ba0:	00402021 	move	a0,v0
a0809ba4:	0c20240f 	jal	a080903c <condition_init>
a0809ba8:	00000000 	nop
a0809bac:	8fc20018 	lw	v0,24(s8)
a0809bb0:	24420098 	addiu	v0,v0,152
a0809bb4:	00402021 	move	a0,v0
a0809bb8:	0c20240f 	jal	a080903c <condition_init>
a0809bbc:	00000000 	nop
a0809bc0:	8fc20018 	lw	v0,24(s8)
a0809bc4:	244200a0 	addiu	v0,v0,160
a0809bc8:	00402021 	move	a0,v0
a0809bcc:	0c20237d 	jal	a0808df4 <mutex_lock_init>
a0809bd0:	00000000 	nop
a0809bd4:	3c02a081 	lui	v0,0xa081
a0809bd8:	244429b0 	addiu	a0,v0,10672
a0809bdc:	0c2023a1 	jal	a0808e84 <mutex_lock_release>
a0809be0:	00000000 	nop
a0809be4:	03c0e821 	move	sp,s8
a0809be8:	8fbf0014 	lw	ra,20(sp)
a0809bec:	8fbe0010 	lw	s8,16(sp)
a0809bf0:	27bd0018 	addiu	sp,sp,24
a0809bf4:	03e00008 	jr	ra
a0809bf8:	00000000 	nop

a0809bfc <mbox_send>:
a0809bfc:	27bdffe8 	addiu	sp,sp,-24
a0809c00:	afbf0014 	sw	ra,20(sp)
a0809c04:	afbe0010 	sw	s8,16(sp)
a0809c08:	03a0f021 	move	s8,sp
a0809c0c:	afc40018 	sw	a0,24(s8)
a0809c10:	afc5001c 	sw	a1,28(s8)
a0809c14:	afc60020 	sw	a2,32(s8)
a0809c18:	8fc20018 	lw	v0,24(s8)
a0809c1c:	244200a0 	addiu	v0,v0,160
a0809c20:	00402021 	move	a0,v0
a0809c24:	0c20238f 	jal	a0808e3c <mutex_lock_acquire>
a0809c28:	00000000 	nop
a0809c2c:	08202715 	j	a0809c54 <mbox_send+0x58>
a0809c30:	00000000 	nop
a0809c34:	8fc20018 	lw	v0,24(s8)
a0809c38:	244300a0 	addiu	v1,v0,160
a0809c3c:	8fc20018 	lw	v0,24(s8)
a0809c40:	24420098 	addiu	v0,v0,152
a0809c44:	00602021 	move	a0,v1
a0809c48:	00402821 	move	a1,v0
a0809c4c:	0c202421 	jal	a0809084 <condition_wait>
a0809c50:	00000000 	nop
a0809c54:	8fc20018 	lw	v0,24(s8)
a0809c58:	8c430088 	lw	v1,136(v0)
a0809c5c:	24020064 	li	v0,100
a0809c60:	00431823 	subu	v1,v0,v1
a0809c64:	8fc20020 	lw	v0,32(s8)
a0809c68:	0062102a 	slt	v0,v1,v0
a0809c6c:	1440fff1 	bnez	v0,a0809c34 <mbox_send+0x38>
a0809c70:	00000000 	nop
a0809c74:	8fc20018 	lw	v0,24(s8)
a0809c78:	8c430084 	lw	v1,132(v0)
a0809c7c:	24020064 	li	v0,100
a0809c80:	00431823 	subu	v1,v0,v1
a0809c84:	8fc20020 	lw	v0,32(s8)
a0809c88:	0062102a 	slt	v0,v1,v0
a0809c8c:	10400026 	beqz	v0,a0809d28 <mbox_send+0x12c>
a0809c90:	00000000 	nop
a0809c94:	8fc20018 	lw	v0,24(s8)
a0809c98:	24430019 	addiu	v1,v0,25
a0809c9c:	8fc20018 	lw	v0,24(s8)
a0809ca0:	8c420084 	lw	v0,132(v0)
a0809ca4:	00622021 	addu	a0,v1,v0
a0809ca8:	8fc5001c 	lw	a1,28(s8)
a0809cac:	8fc20018 	lw	v0,24(s8)
a0809cb0:	8c430084 	lw	v1,132(v0)
a0809cb4:	24020064 	li	v0,100
a0809cb8:	00431023 	subu	v0,v0,v1
a0809cbc:	00403021 	move	a2,v0
a0809cc0:	0c2027fa 	jal	a0809fe8 <memcpy>
a0809cc4:	00000000 	nop
a0809cc8:	8fc20018 	lw	v0,24(s8)
a0809ccc:	8c420084 	lw	v0,132(v0)
a0809cd0:	2443ff9c 	addiu	v1,v0,-100
a0809cd4:	8fc20020 	lw	v0,32(s8)
a0809cd8:	00621821 	addu	v1,v1,v0
a0809cdc:	8fc20018 	lw	v0,24(s8)
a0809ce0:	ac430084 	sw	v1,132(v0)
a0809ce4:	8fc20018 	lw	v0,24(s8)
a0809ce8:	24440019 	addiu	a0,v0,25
a0809cec:	8fc30020 	lw	v1,32(s8)
a0809cf0:	8fc20018 	lw	v0,24(s8)
a0809cf4:	8c420084 	lw	v0,132(v0)
a0809cf8:	00621823 	subu	v1,v1,v0
a0809cfc:	8fc2001c 	lw	v0,28(s8)
a0809d00:	00431021 	addu	v0,v0,v1
a0809d04:	00401821 	move	v1,v0
a0809d08:	8fc20018 	lw	v0,24(s8)
a0809d0c:	8c420084 	lw	v0,132(v0)
a0809d10:	00602821 	move	a1,v1
a0809d14:	00403021 	move	a2,v0
a0809d18:	0c2027fa 	jal	a0809fe8 <memcpy>
a0809d1c:	00000000 	nop
a0809d20:	0820275b 	j	a0809d6c <mbox_send+0x170>
a0809d24:	00000000 	nop
a0809d28:	8fc20018 	lw	v0,24(s8)
a0809d2c:	24430019 	addiu	v1,v0,25
a0809d30:	8fc20018 	lw	v0,24(s8)
a0809d34:	8c420084 	lw	v0,132(v0)
a0809d38:	00621021 	addu	v0,v1,v0
a0809d3c:	8fc3001c 	lw	v1,28(s8)
a0809d40:	8fc60020 	lw	a2,32(s8)
a0809d44:	00402021 	move	a0,v0
a0809d48:	00602821 	move	a1,v1
a0809d4c:	0c2027fa 	jal	a0809fe8 <memcpy>
a0809d50:	00000000 	nop
a0809d54:	8fc20018 	lw	v0,24(s8)
a0809d58:	8c430084 	lw	v1,132(v0)
a0809d5c:	8fc20020 	lw	v0,32(s8)
a0809d60:	00621821 	addu	v1,v1,v0
a0809d64:	8fc20018 	lw	v0,24(s8)
a0809d68:	ac430084 	sw	v1,132(v0)
a0809d6c:	8fc20018 	lw	v0,24(s8)
a0809d70:	8c430088 	lw	v1,136(v0)
a0809d74:	8fc20020 	lw	v0,32(s8)
a0809d78:	00621821 	addu	v1,v1,v0
a0809d7c:	8fc20018 	lw	v0,24(s8)
a0809d80:	ac430088 	sw	v1,136(v0)
a0809d84:	8fc20018 	lw	v0,24(s8)
a0809d88:	24420090 	addiu	v0,v0,144
a0809d8c:	00402021 	move	a0,v0
a0809d90:	0c202447 	jal	a080911c <condition_broadcast>
a0809d94:	00000000 	nop
a0809d98:	8fc20018 	lw	v0,24(s8)
a0809d9c:	244200a0 	addiu	v0,v0,160
a0809da0:	00402021 	move	a0,v0
a0809da4:	0c2023a1 	jal	a0808e84 <mutex_lock_release>
a0809da8:	00000000 	nop
a0809dac:	03c0e821 	move	sp,s8
a0809db0:	8fbf0014 	lw	ra,20(sp)
a0809db4:	8fbe0010 	lw	s8,16(sp)
a0809db8:	27bd0018 	addiu	sp,sp,24
a0809dbc:	03e00008 	jr	ra
a0809dc0:	00000000 	nop

a0809dc4 <mbox_recv>:
a0809dc4:	27bdffe8 	addiu	sp,sp,-24
a0809dc8:	afbf0014 	sw	ra,20(sp)
a0809dcc:	afbe0010 	sw	s8,16(sp)
a0809dd0:	03a0f021 	move	s8,sp
a0809dd4:	afc40018 	sw	a0,24(s8)
a0809dd8:	afc5001c 	sw	a1,28(s8)
a0809ddc:	afc60020 	sw	a2,32(s8)
a0809de0:	8fc20018 	lw	v0,24(s8)
a0809de4:	244200a0 	addiu	v0,v0,160
a0809de8:	00402021 	move	a0,v0
a0809dec:	0c20238f 	jal	a0808e3c <mutex_lock_acquire>
a0809df0:	00000000 	nop
a0809df4:	08202787 	j	a0809e1c <mbox_recv+0x58>
a0809df8:	00000000 	nop
a0809dfc:	8fc20018 	lw	v0,24(s8)
a0809e00:	244300a0 	addiu	v1,v0,160
a0809e04:	8fc20018 	lw	v0,24(s8)
a0809e08:	24420090 	addiu	v0,v0,144
a0809e0c:	00602021 	move	a0,v1
a0809e10:	00402821 	move	a1,v0
a0809e14:	0c202421 	jal	a0809084 <condition_wait>
a0809e18:	00000000 	nop
a0809e1c:	8fc20018 	lw	v0,24(s8)
a0809e20:	8c430088 	lw	v1,136(v0)
a0809e24:	8fc20020 	lw	v0,32(s8)
a0809e28:	0062102a 	slt	v0,v1,v0
a0809e2c:	1440fff3 	bnez	v0,a0809dfc <mbox_recv+0x38>
a0809e30:	00000000 	nop
a0809e34:	8fc20018 	lw	v0,24(s8)
a0809e38:	8c430080 	lw	v1,128(v0)
a0809e3c:	24020064 	li	v0,100
a0809e40:	00431823 	subu	v1,v0,v1
a0809e44:	8fc20020 	lw	v0,32(s8)
a0809e48:	0062102a 	slt	v0,v1,v0
a0809e4c:	10400026 	beqz	v0,a0809ee8 <mbox_recv+0x124>
a0809e50:	00000000 	nop
a0809e54:	8fc4001c 	lw	a0,28(s8)
a0809e58:	8fc20018 	lw	v0,24(s8)
a0809e5c:	24430019 	addiu	v1,v0,25
a0809e60:	8fc20018 	lw	v0,24(s8)
a0809e64:	8c420080 	lw	v0,128(v0)
a0809e68:	00622821 	addu	a1,v1,v0
a0809e6c:	8fc20018 	lw	v0,24(s8)
a0809e70:	8c430080 	lw	v1,128(v0)
a0809e74:	24020064 	li	v0,100
a0809e78:	00431023 	subu	v0,v0,v1
a0809e7c:	00403021 	move	a2,v0
a0809e80:	0c2027fa 	jal	a0809fe8 <memcpy>
a0809e84:	00000000 	nop
a0809e88:	8fc20018 	lw	v0,24(s8)
a0809e8c:	8c420080 	lw	v0,128(v0)
a0809e90:	2443ff9c 	addiu	v1,v0,-100
a0809e94:	8fc20020 	lw	v0,32(s8)
a0809e98:	00621821 	addu	v1,v1,v0
a0809e9c:	8fc20018 	lw	v0,24(s8)
a0809ea0:	ac430080 	sw	v1,128(v0)
a0809ea4:	8fc30020 	lw	v1,32(s8)
a0809ea8:	8fc20018 	lw	v0,24(s8)
a0809eac:	8c420080 	lw	v0,128(v0)
a0809eb0:	00621823 	subu	v1,v1,v0
a0809eb4:	8fc2001c 	lw	v0,28(s8)
a0809eb8:	00431021 	addu	v0,v0,v1
a0809ebc:	00402021 	move	a0,v0
a0809ec0:	8fc20018 	lw	v0,24(s8)
a0809ec4:	24430019 	addiu	v1,v0,25
a0809ec8:	8fc20018 	lw	v0,24(s8)
a0809ecc:	8c420080 	lw	v0,128(v0)
a0809ed0:	00602821 	move	a1,v1
a0809ed4:	00403021 	move	a2,v0
a0809ed8:	0c2027fa 	jal	a0809fe8 <memcpy>
a0809edc:	00000000 	nop
a0809ee0:	082027cb 	j	a0809f2c <mbox_recv+0x168>
a0809ee4:	00000000 	nop
a0809ee8:	8fc4001c 	lw	a0,28(s8)
a0809eec:	8fc20018 	lw	v0,24(s8)
a0809ef0:	24430019 	addiu	v1,v0,25
a0809ef4:	8fc20018 	lw	v0,24(s8)
a0809ef8:	8c420080 	lw	v0,128(v0)
a0809efc:	00621021 	addu	v0,v1,v0
a0809f00:	8fc30020 	lw	v1,32(s8)
a0809f04:	00402821 	move	a1,v0
a0809f08:	00603021 	move	a2,v1
a0809f0c:	0c2027fa 	jal	a0809fe8 <memcpy>
a0809f10:	00000000 	nop
a0809f14:	8fc20018 	lw	v0,24(s8)
a0809f18:	8c430080 	lw	v1,128(v0)
a0809f1c:	8fc20020 	lw	v0,32(s8)
a0809f20:	00621821 	addu	v1,v1,v0
a0809f24:	8fc20018 	lw	v0,24(s8)
a0809f28:	ac430080 	sw	v1,128(v0)
a0809f2c:	8fc20018 	lw	v0,24(s8)
a0809f30:	8c430088 	lw	v1,136(v0)
a0809f34:	8fc20020 	lw	v0,32(s8)
a0809f38:	00621823 	subu	v1,v1,v0
a0809f3c:	8fc20018 	lw	v0,24(s8)
a0809f40:	ac430088 	sw	v1,136(v0)
a0809f44:	8fc20018 	lw	v0,24(s8)
a0809f48:	24420098 	addiu	v0,v0,152
a0809f4c:	00402021 	move	a0,v0
a0809f50:	0c202447 	jal	a080911c <condition_broadcast>
a0809f54:	00000000 	nop
a0809f58:	8fc20018 	lw	v0,24(s8)
a0809f5c:	244200a0 	addiu	v0,v0,160
a0809f60:	00402021 	move	a0,v0
a0809f64:	0c2023a1 	jal	a0808e84 <mutex_lock_release>
a0809f68:	00000000 	nop
a0809f6c:	03c0e821 	move	sp,s8
a0809f70:	8fbf0014 	lw	ra,20(sp)
a0809f74:	8fbe0010 	lw	s8,16(sp)
a0809f78:	27bd0018 	addiu	sp,sp,24
a0809f7c:	03e00008 	jr	ra
a0809f80:	00000000 	nop
	...

a0809f90 <strlen>:
a0809f90:	27bdfff0 	addiu	sp,sp,-16
a0809f94:	afbe000c 	sw	s8,12(sp)
a0809f98:	03a0f021 	move	s8,sp
a0809f9c:	afc40010 	sw	a0,16(s8)
a0809fa0:	afc00000 	sw	zero,0(s8)
a0809fa4:	082027ee 	j	a0809fb8 <strlen+0x28>
a0809fa8:	00000000 	nop
a0809fac:	8fc20000 	lw	v0,0(s8)
a0809fb0:	24420001 	addiu	v0,v0,1
a0809fb4:	afc20000 	sw	v0,0(s8)
a0809fb8:	8fc30000 	lw	v1,0(s8)
a0809fbc:	8fc20010 	lw	v0,16(s8)
a0809fc0:	00431021 	addu	v0,v0,v1
a0809fc4:	80420000 	lb	v0,0(v0)
a0809fc8:	1440fff8 	bnez	v0,a0809fac <strlen+0x1c>
a0809fcc:	00000000 	nop
a0809fd0:	8fc20000 	lw	v0,0(s8)
a0809fd4:	03c0e821 	move	sp,s8
a0809fd8:	8fbe000c 	lw	s8,12(sp)
a0809fdc:	27bd0010 	addiu	sp,sp,16
a0809fe0:	03e00008 	jr	ra
a0809fe4:	00000000 	nop

a0809fe8 <memcpy>:
a0809fe8:	27bdfff8 	addiu	sp,sp,-8
a0809fec:	afbe0004 	sw	s8,4(sp)
a0809ff0:	03a0f021 	move	s8,sp
a0809ff4:	afc40008 	sw	a0,8(s8)
a0809ff8:	afc5000c 	sw	a1,12(s8)
a0809ffc:	afc60010 	sw	a2,16(s8)
a080a000:	0820280f 	j	a080a03c <memcpy+0x54>
a080a004:	00000000 	nop
a080a008:	8fc2000c 	lw	v0,12(s8)
a080a00c:	90430000 	lbu	v1,0(v0)
a080a010:	8fc20008 	lw	v0,8(s8)
a080a014:	a0430000 	sb	v1,0(v0)
a080a018:	8fc20008 	lw	v0,8(s8)
a080a01c:	24420001 	addiu	v0,v0,1
a080a020:	afc20008 	sw	v0,8(s8)
a080a024:	8fc2000c 	lw	v0,12(s8)
a080a028:	24420001 	addiu	v0,v0,1
a080a02c:	afc2000c 	sw	v0,12(s8)
a080a030:	8fc20010 	lw	v0,16(s8)
a080a034:	2442ffff 	addiu	v0,v0,-1
a080a038:	afc20010 	sw	v0,16(s8)
a080a03c:	8fc20010 	lw	v0,16(s8)
a080a040:	1440fff1 	bnez	v0,a080a008 <memcpy+0x20>
a080a044:	00000000 	nop
a080a048:	03c0e821 	move	sp,s8
a080a04c:	8fbe0004 	lw	s8,4(sp)
a080a050:	27bd0008 	addiu	sp,sp,8
a080a054:	03e00008 	jr	ra
a080a058:	00000000 	nop

a080a05c <memset>:
a080a05c:	27bdfff0 	addiu	sp,sp,-16
a080a060:	afbe000c 	sw	s8,12(sp)
a080a064:	03a0f021 	move	s8,sp
a080a068:	afc40010 	sw	a0,16(s8)
a080a06c:	00a01021 	move	v0,a1
a080a070:	afc60018 	sw	a2,24(s8)
a080a074:	a3c20014 	sb	v0,20(s8)
a080a078:	8fc20010 	lw	v0,16(s8)
a080a07c:	afc20000 	sw	v0,0(s8)
a080a080:	0820282b 	j	a080a0ac <memset+0x50>
a080a084:	00000000 	nop
a080a088:	8fc30000 	lw	v1,0(s8)
a080a08c:	93c20014 	lbu	v0,20(s8)
a080a090:	a0620000 	sb	v0,0(v1)
a080a094:	8fc20000 	lw	v0,0(s8)
a080a098:	24420001 	addiu	v0,v0,1
a080a09c:	afc20000 	sw	v0,0(s8)
a080a0a0:	8fc20018 	lw	v0,24(s8)
a080a0a4:	2442ffff 	addiu	v0,v0,-1
a080a0a8:	afc20018 	sw	v0,24(s8)
a080a0ac:	8fc20018 	lw	v0,24(s8)
a080a0b0:	1440fff5 	bnez	v0,a080a088 <memset+0x2c>
a080a0b4:	00000000 	nop
a080a0b8:	03c0e821 	move	sp,s8
a080a0bc:	8fbe000c 	lw	s8,12(sp)
a080a0c0:	27bd0010 	addiu	sp,sp,16
a080a0c4:	03e00008 	jr	ra
a080a0c8:	00000000 	nop

a080a0cc <bzero>:
a080a0cc:	27bdffe8 	addiu	sp,sp,-24
a080a0d0:	afbf0014 	sw	ra,20(sp)
a080a0d4:	afbe0010 	sw	s8,16(sp)
a080a0d8:	03a0f021 	move	s8,sp
a080a0dc:	afc40018 	sw	a0,24(s8)
a080a0e0:	afc5001c 	sw	a1,28(s8)
a080a0e4:	8fc40018 	lw	a0,24(s8)
a080a0e8:	00002821 	move	a1,zero
a080a0ec:	8fc6001c 	lw	a2,28(s8)
a080a0f0:	0c202817 	jal	a080a05c <memset>
a080a0f4:	00000000 	nop
a080a0f8:	03c0e821 	move	sp,s8
a080a0fc:	8fbf0014 	lw	ra,20(sp)
a080a100:	8fbe0010 	lw	s8,16(sp)
a080a104:	27bd0018 	addiu	sp,sp,24
a080a108:	03e00008 	jr	ra
a080a10c:	00000000 	nop

a080a110 <strcmp>:
a080a110:	27bdfff0 	addiu	sp,sp,-16
a080a114:	afbe000c 	sw	s8,12(sp)
a080a118:	03a0f021 	move	s8,sp
a080a11c:	afc40010 	sw	a0,16(s8)
a080a120:	afc50014 	sw	a1,20(s8)
a080a124:	08202851 	j	a080a144 <strcmp+0x34>
a080a128:	00000000 	nop
a080a12c:	8fc20010 	lw	v0,16(s8)
a080a130:	24420001 	addiu	v0,v0,1
a080a134:	afc20010 	sw	v0,16(s8)
a080a138:	8fc20014 	lw	v0,20(s8)
a080a13c:	24420001 	addiu	v0,v0,1
a080a140:	afc20014 	sw	v0,20(s8)
a080a144:	8fc20010 	lw	v0,16(s8)
a080a148:	80420000 	lb	v0,0(v0)
a080a14c:	1040000b 	beqz	v0,a080a17c <strcmp+0x6c>
a080a150:	00000000 	nop
a080a154:	8fc20014 	lw	v0,20(s8)
a080a158:	80420000 	lb	v0,0(v0)
a080a15c:	10400007 	beqz	v0,a080a17c <strcmp+0x6c>
a080a160:	00000000 	nop
a080a164:	8fc20010 	lw	v0,16(s8)
a080a168:	80430000 	lb	v1,0(v0)
a080a16c:	8fc20014 	lw	v0,20(s8)
a080a170:	80420000 	lb	v0,0(v0)
a080a174:	1062ffed 	beq	v1,v0,a080a12c <strcmp+0x1c>
a080a178:	00000000 	nop
a080a17c:	8fc20010 	lw	v0,16(s8)
a080a180:	80420000 	lb	v0,0(v0)
a080a184:	14400008 	bnez	v0,a080a1a8 <strcmp+0x98>
a080a188:	00000000 	nop
a080a18c:	8fc20014 	lw	v0,20(s8)
a080a190:	80420000 	lb	v0,0(v0)
a080a194:	14400004 	bnez	v0,a080a1a8 <strcmp+0x98>
a080a198:	00000000 	nop
a080a19c:	afc00000 	sw	zero,0(s8)
a080a1a0:	08202874 	j	a080a1d0 <strcmp+0xc0>
a080a1a4:	00000000 	nop
a080a1a8:	8fc20010 	lw	v0,16(s8)
a080a1ac:	80420000 	lb	v0,0(v0)
a080a1b0:	14400005 	bnez	v0,a080a1c8 <strcmp+0xb8>
a080a1b4:	00000000 	nop
a080a1b8:	2402ffff 	li	v0,-1
a080a1bc:	afc20000 	sw	v0,0(s8)
a080a1c0:	08202874 	j	a080a1d0 <strcmp+0xc0>
a080a1c4:	00000000 	nop
a080a1c8:	24020001 	li	v0,1
a080a1cc:	afc20000 	sw	v0,0(s8)
a080a1d0:	8fc20000 	lw	v0,0(s8)
a080a1d4:	03c0e821 	move	sp,s8
a080a1d8:	8fbe000c 	lw	s8,12(sp)
a080a1dc:	27bd0010 	addiu	sp,sp,16
a080a1e0:	03e00008 	jr	ra
a080a1e4:	00000000 	nop

a080a1e8 <strcpy>:
a080a1e8:	27bdfff0 	addiu	sp,sp,-16
a080a1ec:	afbe000c 	sw	s8,12(sp)
a080a1f0:	03a0f021 	move	s8,sp
a080a1f4:	afc40010 	sw	a0,16(s8)
a080a1f8:	afc50014 	sw	a1,20(s8)
a080a1fc:	8fc20010 	lw	v0,16(s8)
a080a200:	afc20000 	sw	v0,0(s8)
a080a204:	0820288d 	j	a080a234 <strcpy+0x4c>
a080a208:	00000000 	nop
a080a20c:	8fc20014 	lw	v0,20(s8)
a080a210:	80430000 	lb	v1,0(v0)
a080a214:	8fc20010 	lw	v0,16(s8)
a080a218:	a0430000 	sb	v1,0(v0)
a080a21c:	8fc20010 	lw	v0,16(s8)
a080a220:	24420001 	addiu	v0,v0,1
a080a224:	afc20010 	sw	v0,16(s8)
a080a228:	8fc20014 	lw	v0,20(s8)
a080a22c:	24420001 	addiu	v0,v0,1
a080a230:	afc20014 	sw	v0,20(s8)
a080a234:	8fc20014 	lw	v0,20(s8)
a080a238:	80420000 	lb	v0,0(v0)
a080a23c:	1440fff3 	bnez	v0,a080a20c <strcpy+0x24>
a080a240:	00000000 	nop
a080a244:	8fc20010 	lw	v0,16(s8)
a080a248:	a0400000 	sb	zero,0(v0)
a080a24c:	8fc20000 	lw	v0,0(s8)
a080a250:	03c0e821 	move	sp,s8
a080a254:	8fbe000c 	lw	s8,12(sp)
a080a258:	27bd0010 	addiu	sp,sp,16
a080a25c:	03e00008 	jr	ra
a080a260:	00000000 	nop

a080a264 <itoa>:
a080a264:	27bdffd8 	addiu	sp,sp,-40
a080a268:	afbf0024 	sw	ra,36(sp)
a080a26c:	afbe0020 	sw	s8,32(sp)
a080a270:	03a0f021 	move	s8,sp
a080a274:	afc40028 	sw	a0,40(s8)
a080a278:	afc5002c 	sw	a1,44(s8)
a080a27c:	8fc40028 	lw	a0,40(s8)
a080a280:	0c2027e4 	jal	a0809f90 <strlen>
a080a284:	00000000 	nop
a080a288:	afc20018 	sw	v0,24(s8)
a080a28c:	afc00014 	sw	zero,20(s8)
a080a290:	afc00010 	sw	zero,16(s8)
a080a294:	082028fd 	j	a080a3f4 <itoa+0x190>
a080a298:	00000000 	nop
a080a29c:	8fc2002c 	lw	v0,44(s8)
a080a2a0:	2842000b 	slti	v0,v0,11
a080a2a4:	1440000f 	bnez	v0,a080a2e4 <itoa+0x80>
a080a2a8:	00000000 	nop
a080a2ac:	8fc30010 	lw	v1,16(s8)
a080a2b0:	8fc20028 	lw	v0,40(s8)
a080a2b4:	00431021 	addu	v0,v0,v1
a080a2b8:	80420000 	lb	v0,0(v0)
a080a2bc:	2842003a 	slti	v0,v0,58
a080a2c0:	10400015 	beqz	v0,a080a318 <itoa+0xb4>
a080a2c4:	00000000 	nop
a080a2c8:	8fc30010 	lw	v1,16(s8)
a080a2cc:	8fc20028 	lw	v0,40(s8)
a080a2d0:	00431021 	addu	v0,v0,v1
a080a2d4:	80420000 	lb	v0,0(v0)
a080a2d8:	28420030 	slti	v0,v0,48
a080a2dc:	1440000e 	bnez	v0,a080a318 <itoa+0xb4>
a080a2e0:	00000000 	nop
a080a2e4:	8fc30014 	lw	v1,20(s8)
a080a2e8:	8fc2002c 	lw	v0,44(s8)
a080a2ec:	00620018 	mult	v1,v0
a080a2f0:	00002012 	mflo	a0
a080a2f4:	8fc30010 	lw	v1,16(s8)
a080a2f8:	8fc20028 	lw	v0,40(s8)
a080a2fc:	00431021 	addu	v0,v0,v1
a080a300:	80420000 	lb	v0,0(v0)
a080a304:	00821021 	addu	v0,a0,v0
a080a308:	2442ffd0 	addiu	v0,v0,-48
a080a30c:	afc20014 	sw	v0,20(s8)
a080a310:	082028fa 	j	a080a3e8 <itoa+0x184>
a080a314:	00000000 	nop
a080a318:	8fc30010 	lw	v1,16(s8)
a080a31c:	8fc20028 	lw	v0,40(s8)
a080a320:	00431021 	addu	v0,v0,v1
a080a324:	80420000 	lb	v0,0(v0)
a080a328:	28420061 	slti	v0,v0,97
a080a32c:	14400015 	bnez	v0,a080a384 <itoa+0x120>
a080a330:	00000000 	nop
a080a334:	8fc30010 	lw	v1,16(s8)
a080a338:	8fc20028 	lw	v0,40(s8)
a080a33c:	00431021 	addu	v0,v0,v1
a080a340:	80420000 	lb	v0,0(v0)
a080a344:	28420067 	slti	v0,v0,103
a080a348:	1040000e 	beqz	v0,a080a384 <itoa+0x120>
a080a34c:	00000000 	nop
a080a350:	8fc30014 	lw	v1,20(s8)
a080a354:	8fc2002c 	lw	v0,44(s8)
a080a358:	00620018 	mult	v1,v0
a080a35c:	00002012 	mflo	a0
a080a360:	8fc30010 	lw	v1,16(s8)
a080a364:	8fc20028 	lw	v0,40(s8)
a080a368:	00431021 	addu	v0,v0,v1
a080a36c:	80420000 	lb	v0,0(v0)
a080a370:	00821021 	addu	v0,a0,v0
a080a374:	2442ffa9 	addiu	v0,v0,-87
a080a378:	afc20014 	sw	v0,20(s8)
a080a37c:	082028fa 	j	a080a3e8 <itoa+0x184>
a080a380:	00000000 	nop
a080a384:	8fc30010 	lw	v1,16(s8)
a080a388:	8fc20028 	lw	v0,40(s8)
a080a38c:	00431021 	addu	v0,v0,v1
a080a390:	80420000 	lb	v0,0(v0)
a080a394:	28420041 	slti	v0,v0,65
a080a398:	14400013 	bnez	v0,a080a3e8 <itoa+0x184>
a080a39c:	00000000 	nop
a080a3a0:	8fc30010 	lw	v1,16(s8)
a080a3a4:	8fc20028 	lw	v0,40(s8)
a080a3a8:	00431021 	addu	v0,v0,v1
a080a3ac:	80420000 	lb	v0,0(v0)
a080a3b0:	28420047 	slti	v0,v0,71
a080a3b4:	1040000c 	beqz	v0,a080a3e8 <itoa+0x184>
a080a3b8:	00000000 	nop
a080a3bc:	8fc30014 	lw	v1,20(s8)
a080a3c0:	8fc2002c 	lw	v0,44(s8)
a080a3c4:	00620018 	mult	v1,v0
a080a3c8:	00002012 	mflo	a0
a080a3cc:	8fc30010 	lw	v1,16(s8)
a080a3d0:	8fc20028 	lw	v0,40(s8)
a080a3d4:	00431021 	addu	v0,v0,v1
a080a3d8:	80420000 	lb	v0,0(v0)
a080a3dc:	00821021 	addu	v0,a0,v0
a080a3e0:	2442ffc9 	addiu	v0,v0,-55
a080a3e4:	afc20014 	sw	v0,20(s8)
a080a3e8:	8fc20010 	lw	v0,16(s8)
a080a3ec:	24420001 	addiu	v0,v0,1
a080a3f0:	afc20010 	sw	v0,16(s8)
a080a3f4:	8fc20010 	lw	v0,16(s8)
a080a3f8:	8fc30018 	lw	v1,24(s8)
a080a3fc:	0043102a 	slt	v0,v0,v1
a080a400:	1440ffa6 	bnez	v0,a080a29c <itoa+0x38>
a080a404:	00000000 	nop
a080a408:	8fc20014 	lw	v0,20(s8)
a080a40c:	03c0e821 	move	sp,s8
a080a410:	8fbf0024 	lw	ra,36(sp)
a080a414:	8fbe0020 	lw	s8,32(sp)
a080a418:	27bd0028 	addiu	sp,sp,40
a080a41c:	03e00008 	jr	ra
a080a420:	00000000 	nop
	...

a080a430 <mini_strlen>:
a080a430:	27bdfff0 	addiu	sp,sp,-16
a080a434:	afbe000c 	sw	s8,12(sp)
a080a438:	03a0f021 	move	s8,sp
a080a43c:	afc40010 	sw	a0,16(s8)
a080a440:	afc00000 	sw	zero,0(s8)
a080a444:	08202916 	j	a080a458 <mini_strlen+0x28>
a080a448:	00000000 	nop
a080a44c:	8fc20000 	lw	v0,0(s8)
a080a450:	24420001 	addiu	v0,v0,1
a080a454:	afc20000 	sw	v0,0(s8)
a080a458:	8fc30010 	lw	v1,16(s8)
a080a45c:	8fc20000 	lw	v0,0(s8)
a080a460:	00621021 	addu	v0,v1,v0
a080a464:	80420000 	lb	v0,0(v0)
a080a468:	1440fff8 	bnez	v0,a080a44c <mini_strlen+0x1c>
a080a46c:	00000000 	nop
a080a470:	8fc20000 	lw	v0,0(s8)
a080a474:	03c0e821 	move	sp,s8
a080a478:	8fbe000c 	lw	s8,12(sp)
a080a47c:	27bd0010 	addiu	sp,sp,16
a080a480:	03e00008 	jr	ra
a080a484:	00000000 	nop

a080a488 <mini_itoa>:
a080a488:	27bdffc8 	addiu	sp,sp,-56
a080a48c:	afbe0034 	sw	s8,52(sp)
a080a490:	03a0f021 	move	s8,sp
a080a494:	afc40038 	sw	a0,56(s8)
a080a498:	afc5003c 	sw	a1,60(s8)
a080a49c:	afc60040 	sw	a2,64(s8)
a080a4a0:	afc70044 	sw	a3,68(s8)
a080a4a4:	8fc20048 	lw	v0,72(s8)
a080a4a8:	afc20014 	sw	v0,20(s8)
a080a4ac:	afc00010 	sw	zero,16(s8)
a080a4b0:	8fc2003c 	lw	v0,60(s8)
a080a4b4:	2c420011 	sltiu	v0,v0,17
a080a4b8:	14400004 	bnez	v0,a080a4cc <mini_itoa+0x44>
a080a4bc:	00000000 	nop
a080a4c0:	afc00020 	sw	zero,32(s8)
a080a4c4:	082029bc 	j	a080a6f0 <mini_itoa+0x268>
a080a4c8:	00000000 	nop
a080a4cc:	8fc20038 	lw	v0,56(s8)
a080a4d0:	04410009 	bgez	v0,a080a4f8 <mini_itoa+0x70>
a080a4d4:	00000000 	nop
a080a4d8:	8fc20044 	lw	v0,68(s8)
a080a4dc:	14400006 	bnez	v0,a080a4f8 <mini_itoa+0x70>
a080a4e0:	00000000 	nop
a080a4e4:	24020001 	li	v0,1
a080a4e8:	afc20010 	sw	v0,16(s8)
a080a4ec:	8fc20038 	lw	v0,56(s8)
a080a4f0:	00021023 	negu	v0,v0
a080a4f4:	afc20038 	sw	v0,56(s8)
a080a4f8:	8fc30038 	lw	v1,56(s8)
a080a4fc:	8fc2003c 	lw	v0,60(s8)
a080a500:	0062001b 	divu	zero,v1,v0
a080a504:	004001f4 	teq	v0,zero,0x7
a080a508:	00001010 	mfhi	v0
a080a50c:	afc20004 	sw	v0,4(s8)
a080a510:	8fc20004 	lw	v0,4(s8)
a080a514:	2842000a 	slti	v0,v0,10
a080a518:	1040000a 	beqz	v0,a080a544 <mini_itoa+0xbc>
a080a51c:	00000000 	nop
a080a520:	8fc20004 	lw	v0,4(s8)
a080a524:	304200ff 	andi	v0,v0,0xff
a080a528:	24420030 	addiu	v0,v0,48
a080a52c:	304200ff 	andi	v0,v0,0xff
a080a530:	00021600 	sll	v0,v0,0x18
a080a534:	00021603 	sra	v0,v0,0x18
a080a538:	afc2001c 	sw	v0,28(s8)
a080a53c:	08202964 	j	a080a590 <mini_itoa+0x108>
a080a540:	00000000 	nop
a080a544:	8fc20040 	lw	v0,64(s8)
a080a548:	10400005 	beqz	v0,a080a560 <mini_itoa+0xd8>
a080a54c:	00000000 	nop
a080a550:	24020041 	li	v0,65
a080a554:	afc20018 	sw	v0,24(s8)
a080a558:	0820295a 	j	a080a568 <mini_itoa+0xe0>
a080a55c:	00000000 	nop
a080a560:	24030061 	li	v1,97
a080a564:	afc30018 	sw	v1,24(s8)
a080a568:	8fc20004 	lw	v0,4(s8)
a080a56c:	304200ff 	andi	v0,v0,0xff
a080a570:	8fc40018 	lw	a0,24(s8)
a080a574:	00821021 	addu	v0,a0,v0
a080a578:	304200ff 	andi	v0,v0,0xff
a080a57c:	2442fff6 	addiu	v0,v0,-10
a080a580:	304200ff 	andi	v0,v0,0xff
a080a584:	00021600 	sll	v0,v0,0x18
a080a588:	00021603 	sra	v0,v0,0x18
a080a58c:	afc2001c 	sw	v0,28(s8)
a080a590:	8fc20014 	lw	v0,20(s8)
a080a594:	8fc3001c 	lw	v1,28(s8)
a080a598:	a0430000 	sb	v1,0(v0)
a080a59c:	8fc20014 	lw	v0,20(s8)
a080a5a0:	24420001 	addiu	v0,v0,1
a080a5a4:	afc20014 	sw	v0,20(s8)
a080a5a8:	8fc30038 	lw	v1,56(s8)
a080a5ac:	8fc2003c 	lw	v0,60(s8)
a080a5b0:	0062001b 	divu	zero,v1,v0
a080a5b4:	004001f4 	teq	v0,zero,0x7
a080a5b8:	00001012 	mflo	v0
a080a5bc:	afc20038 	sw	v0,56(s8)
a080a5c0:	8fc20038 	lw	v0,56(s8)
a080a5c4:	1c40ffcc 	bgtz	v0,a080a4f8 <mini_itoa+0x70>
a080a5c8:	00000000 	nop
a080a5cc:	8fc20014 	lw	v0,20(s8)
a080a5d0:	8fc30048 	lw	v1,72(s8)
a080a5d4:	00431023 	subu	v0,v0,v1
a080a5d8:	afc2000c 	sw	v0,12(s8)
a080a5dc:	08202982 	j	a080a608 <mini_itoa+0x180>
a080a5e0:	00000000 	nop
a080a5e4:	8fc30014 	lw	v1,20(s8)
a080a5e8:	24020030 	li	v0,48
a080a5ec:	a0620000 	sb	v0,0(v1)
a080a5f0:	8fc20014 	lw	v0,20(s8)
a080a5f4:	24420001 	addiu	v0,v0,1
a080a5f8:	afc20014 	sw	v0,20(s8)
a080a5fc:	8fc2000c 	lw	v0,12(s8)
a080a600:	24420001 	addiu	v0,v0,1
a080a604:	afc2000c 	sw	v0,12(s8)
a080a608:	8fc2000c 	lw	v0,12(s8)
a080a60c:	8fc3004c 	lw	v1,76(s8)
a080a610:	0043102b 	sltu	v0,v0,v1
a080a614:	1440fff3 	bnez	v0,a080a5e4 <mini_itoa+0x15c>
a080a618:	00000000 	nop
a080a61c:	8fc20010 	lw	v0,16(s8)
a080a620:	10400007 	beqz	v0,a080a640 <mini_itoa+0x1b8>
a080a624:	00000000 	nop
a080a628:	8fc30014 	lw	v1,20(s8)
a080a62c:	2402002d 	li	v0,45
a080a630:	a0620000 	sb	v0,0(v1)
a080a634:	8fc20014 	lw	v0,20(s8)
a080a638:	24420001 	addiu	v0,v0,1
a080a63c:	afc20014 	sw	v0,20(s8)
a080a640:	8fc20014 	lw	v0,20(s8)
a080a644:	a0400000 	sb	zero,0(v0)
a080a648:	8fc30014 	lw	v1,20(s8)
a080a64c:	8fc20048 	lw	v0,72(s8)
a080a650:	00621023 	subu	v0,v1,v0
a080a654:	afc20008 	sw	v0,8(s8)
a080a658:	afc0000c 	sw	zero,12(s8)
a080a65c:	082029b4 	j	a080a6d0 <mini_itoa+0x248>
a080a660:	00000000 	nop
a080a664:	8fc30048 	lw	v1,72(s8)
a080a668:	8fc2000c 	lw	v0,12(s8)
a080a66c:	00621021 	addu	v0,v1,v0
a080a670:	90420000 	lbu	v0,0(v0)
a080a674:	a3c20000 	sb	v0,0(s8)
a080a678:	8fc30048 	lw	v1,72(s8)
a080a67c:	8fc2000c 	lw	v0,12(s8)
a080a680:	00622021 	addu	a0,v1,v0
a080a684:	8fc30008 	lw	v1,8(s8)
a080a688:	8fc2000c 	lw	v0,12(s8)
a080a68c:	00621023 	subu	v0,v1,v0
a080a690:	2443ffff 	addiu	v1,v0,-1
a080a694:	8fc20048 	lw	v0,72(s8)
a080a698:	00431021 	addu	v0,v0,v1
a080a69c:	80420000 	lb	v0,0(v0)
a080a6a0:	a0820000 	sb	v0,0(a0)
a080a6a4:	8fc30008 	lw	v1,8(s8)
a080a6a8:	8fc2000c 	lw	v0,12(s8)
a080a6ac:	00621023 	subu	v0,v1,v0
a080a6b0:	2443ffff 	addiu	v1,v0,-1
a080a6b4:	8fc20048 	lw	v0,72(s8)
a080a6b8:	00431821 	addu	v1,v0,v1
a080a6bc:	93c20000 	lbu	v0,0(s8)
a080a6c0:	a0620000 	sb	v0,0(v1)
a080a6c4:	8fc2000c 	lw	v0,12(s8)
a080a6c8:	24420001 	addiu	v0,v0,1
a080a6cc:	afc2000c 	sw	v0,12(s8)
a080a6d0:	8fc20008 	lw	v0,8(s8)
a080a6d4:	00021842 	srl	v1,v0,0x1
a080a6d8:	8fc2000c 	lw	v0,12(s8)
a080a6dc:	0043102b 	sltu	v0,v0,v1
a080a6e0:	1440ffe0 	bnez	v0,a080a664 <mini_itoa+0x1dc>
a080a6e4:	00000000 	nop
a080a6e8:	8fc20008 	lw	v0,8(s8)
a080a6ec:	afc20020 	sw	v0,32(s8)
a080a6f0:	8fc20020 	lw	v0,32(s8)
a080a6f4:	03c0e821 	move	sp,s8
a080a6f8:	8fbe0034 	lw	s8,52(sp)
a080a6fc:	27bd0038 	addiu	sp,sp,56
a080a700:	03e00008 	jr	ra
a080a704:	00000000 	nop

a080a708 <_putc>:
a080a708:	27bdfff0 	addiu	sp,sp,-16
a080a70c:	afbe000c 	sw	s8,12(sp)
a080a710:	03a0f021 	move	s8,sp
a080a714:	afc40010 	sw	a0,16(s8)
a080a718:	afc50014 	sw	a1,20(s8)
a080a71c:	8fc20014 	lw	v0,20(s8)
a080a720:	8c420004 	lw	v0,4(v0)
a080a724:	00401821 	move	v1,v0
a080a728:	8fc20014 	lw	v0,20(s8)
a080a72c:	8c420000 	lw	v0,0(v0)
a080a730:	00621023 	subu	v0,v1,v0
a080a734:	24420001 	addiu	v0,v0,1
a080a738:	00401821 	move	v1,v0
a080a73c:	8fc20014 	lw	v0,20(s8)
a080a740:	8c420008 	lw	v0,8(v0)
a080a744:	0062102b 	sltu	v0,v1,v0
a080a748:	14400004 	bnez	v0,a080a75c <_putc+0x54>
a080a74c:	00000000 	nop
a080a750:	afc00000 	sw	zero,0(s8)
a080a754:	082029e5 	j	a080a794 <_putc+0x8c>
a080a758:	00000000 	nop
a080a75c:	8fc20014 	lw	v0,20(s8)
a080a760:	8c430004 	lw	v1,4(v0)
a080a764:	8fc20010 	lw	v0,16(s8)
a080a768:	00021600 	sll	v0,v0,0x18
a080a76c:	00021603 	sra	v0,v0,0x18
a080a770:	a0620000 	sb	v0,0(v1)
a080a774:	24630001 	addiu	v1,v1,1
a080a778:	8fc20014 	lw	v0,20(s8)
a080a77c:	ac430004 	sw	v1,4(v0)
a080a780:	8fc20014 	lw	v0,20(s8)
a080a784:	8c420004 	lw	v0,4(v0)
a080a788:	a0400000 	sb	zero,0(v0)
a080a78c:	24020001 	li	v0,1
a080a790:	afc20000 	sw	v0,0(s8)
a080a794:	8fc20000 	lw	v0,0(s8)
a080a798:	03c0e821 	move	sp,s8
a080a79c:	8fbe000c 	lw	s8,12(sp)
a080a7a0:	27bd0010 	addiu	sp,sp,16
a080a7a4:	03e00008 	jr	ra
a080a7a8:	00000000 	nop

a080a7ac <_puts>:
a080a7ac:	27bdfff0 	addiu	sp,sp,-16
a080a7b0:	afbe000c 	sw	s8,12(sp)
a080a7b4:	03a0f021 	move	s8,sp
a080a7b8:	afc40010 	sw	a0,16(s8)
a080a7bc:	afc50014 	sw	a1,20(s8)
a080a7c0:	afc60018 	sw	a2,24(s8)
a080a7c4:	8fc20018 	lw	v0,24(s8)
a080a7c8:	8c440008 	lw	a0,8(v0)
a080a7cc:	8fc20018 	lw	v0,24(s8)
a080a7d0:	8c420000 	lw	v0,0(v0)
a080a7d4:	00401821 	move	v1,v0
a080a7d8:	8fc20018 	lw	v0,24(s8)
a080a7dc:	8c420004 	lw	v0,4(v0)
a080a7e0:	00621023 	subu	v0,v1,v0
a080a7e4:	00821021 	addu	v0,a0,v0
a080a7e8:	2443ffff 	addiu	v1,v0,-1
a080a7ec:	8fc20014 	lw	v0,20(s8)
a080a7f0:	0062102b 	sltu	v0,v1,v0
a080a7f4:	1040000c 	beqz	v0,a080a828 <_puts+0x7c>
a080a7f8:	00000000 	nop
a080a7fc:	8fc20018 	lw	v0,24(s8)
a080a800:	8c440008 	lw	a0,8(v0)
a080a804:	8fc20018 	lw	v0,24(s8)
a080a808:	8c420000 	lw	v0,0(v0)
a080a80c:	00401821 	move	v1,v0
a080a810:	8fc20018 	lw	v0,24(s8)
a080a814:	8c420004 	lw	v0,4(v0)
a080a818:	00621023 	subu	v0,v1,v0
a080a81c:	00821021 	addu	v0,a0,v0
a080a820:	2442ffff 	addiu	v0,v0,-1
a080a824:	afc20014 	sw	v0,20(s8)
a080a828:	afc00000 	sw	zero,0(s8)
a080a82c:	08202a1a 	j	a080a868 <_puts+0xbc>
a080a830:	00000000 	nop
a080a834:	8fc20018 	lw	v0,24(s8)
a080a838:	8c440004 	lw	a0,4(v0)
a080a83c:	8fc30010 	lw	v1,16(s8)
a080a840:	8fc20000 	lw	v0,0(s8)
a080a844:	00621021 	addu	v0,v1,v0
a080a848:	80420000 	lb	v0,0(v0)
a080a84c:	a0820000 	sb	v0,0(a0)
a080a850:	24830001 	addiu	v1,a0,1
a080a854:	8fc20018 	lw	v0,24(s8)
a080a858:	ac430004 	sw	v1,4(v0)
a080a85c:	8fc20000 	lw	v0,0(s8)
a080a860:	24420001 	addiu	v0,v0,1
a080a864:	afc20000 	sw	v0,0(s8)
a080a868:	8fc20000 	lw	v0,0(s8)
a080a86c:	8fc30014 	lw	v1,20(s8)
a080a870:	0043102b 	sltu	v0,v0,v1
a080a874:	1440ffef 	bnez	v0,a080a834 <_puts+0x88>
a080a878:	00000000 	nop
a080a87c:	8fc20018 	lw	v0,24(s8)
a080a880:	8c420004 	lw	v0,4(v0)
a080a884:	a0400000 	sb	zero,0(v0)
a080a888:	8fc20014 	lw	v0,20(s8)
a080a88c:	03c0e821 	move	sp,s8
a080a890:	8fbe000c 	lw	s8,12(sp)
a080a894:	27bd0010 	addiu	sp,sp,16
a080a898:	03e00008 	jr	ra
a080a89c:	00000000 	nop

a080a8a0 <mini_vsnprintf>:
a080a8a0:	27bdffa8 	addiu	sp,sp,-88
a080a8a4:	afbf0054 	sw	ra,84(sp)
a080a8a8:	afbe0050 	sw	s8,80(sp)
a080a8ac:	03a0f021 	move	s8,sp
a080a8b0:	afc40058 	sw	a0,88(s8)
a080a8b4:	afc5005c 	sw	a1,92(s8)
a080a8b8:	afc60060 	sw	a2,96(s8)
a080a8bc:	afc70064 	sw	a3,100(s8)
a080a8c0:	8fc20058 	lw	v0,88(s8)
a080a8c4:	afc20024 	sw	v0,36(s8)
a080a8c8:	8fc20058 	lw	v0,88(s8)
a080a8cc:	afc20028 	sw	v0,40(s8)
a080a8d0:	8fc2005c 	lw	v0,92(s8)
a080a8d4:	afc2002c 	sw	v0,44(s8)
a080a8d8:	08202af4 	j	a080abd0 <mini_vsnprintf+0x330>
a080a8dc:	00000000 	nop
a080a8e0:	8fc20028 	lw	v0,40(s8)
a080a8e4:	00401821 	move	v1,v0
a080a8e8:	8fc20024 	lw	v0,36(s8)
a080a8ec:	00621023 	subu	v0,v1,v0
a080a8f0:	24420001 	addiu	v0,v0,1
a080a8f4:	00401821 	move	v1,v0
a080a8f8:	8fc2002c 	lw	v0,44(s8)
a080a8fc:	0062102b 	sltu	v0,v1,v0
a080a900:	104000be 	beqz	v0,a080abfc <mini_vsnprintf+0x35c>
a080a904:	00000000 	nop
a080a908:	83c30021 	lb	v1,33(s8)
a080a90c:	24020025 	li	v0,37
a080a910:	10620009 	beq	v1,v0,a080a938 <mini_vsnprintf+0x98>
a080a914:	00000000 	nop
a080a918:	83c20021 	lb	v0,33(s8)
a080a91c:	27c30024 	addiu	v1,s8,36
a080a920:	00402021 	move	a0,v0
a080a924:	00602821 	move	a1,v1
a080a928:	0c2029c2 	jal	a080a708 <_putc>
a080a92c:	00000000 	nop
a080a930:	08202af4 	j	a080abd0 <mini_vsnprintf+0x330>
a080a934:	00000000 	nop
a080a938:	a3c00020 	sb	zero,32(s8)
a080a93c:	8fc20060 	lw	v0,96(s8)
a080a940:	90420000 	lbu	v0,0(v0)
a080a944:	a3c20021 	sb	v0,33(s8)
a080a948:	8fc20060 	lw	v0,96(s8)
a080a94c:	24420001 	addiu	v0,v0,1
a080a950:	afc20060 	sw	v0,96(s8)
a080a954:	83c30021 	lb	v1,33(s8)
a080a958:	24020030 	li	v0,48
a080a95c:	1462001c 	bne	v1,v0,a080a9d0 <mini_vsnprintf+0x130>
a080a960:	00000000 	nop
a080a964:	8fc20060 	lw	v0,96(s8)
a080a968:	90420000 	lbu	v0,0(v0)
a080a96c:	a3c20021 	sb	v0,33(s8)
a080a970:	8fc20060 	lw	v0,96(s8)
a080a974:	24420001 	addiu	v0,v0,1
a080a978:	afc20060 	sw	v0,96(s8)
a080a97c:	83c20021 	lb	v0,33(s8)
a080a980:	1040009e 	beqz	v0,a080abfc <mini_vsnprintf+0x35c>
a080a984:	00000000 	nop
a080a988:	83c20021 	lb	v0,33(s8)
a080a98c:	28420030 	slti	v0,v0,48
a080a990:	14400009 	bnez	v0,a080a9b8 <mini_vsnprintf+0x118>
a080a994:	00000000 	nop
a080a998:	83c20021 	lb	v0,33(s8)
a080a99c:	2842003a 	slti	v0,v0,58
a080a9a0:	10400005 	beqz	v0,a080a9b8 <mini_vsnprintf+0x118>
a080a9a4:	00000000 	nop
a080a9a8:	93c20021 	lbu	v0,33(s8)
a080a9ac:	2442ffd0 	addiu	v0,v0,-48
a080a9b0:	304200ff 	andi	v0,v0,0xff
a080a9b4:	a3c20020 	sb	v0,32(s8)
a080a9b8:	8fc20060 	lw	v0,96(s8)
a080a9bc:	90420000 	lbu	v0,0(v0)
a080a9c0:	a3c20021 	sb	v0,33(s8)
a080a9c4:	8fc20060 	lw	v0,96(s8)
a080a9c8:	24420001 	addiu	v0,v0,1
a080a9cc:	afc20060 	sw	v0,96(s8)
a080a9d0:	83c20021 	lb	v0,33(s8)
a080a9d4:	afc20048 	sw	v0,72(s8)
a080a9d8:	24020064 	li	v0,100
a080a9dc:	8fc30048 	lw	v1,72(s8)
a080a9e0:	10620020 	beq	v1,v0,a080aa64 <mini_vsnprintf+0x1c4>
a080a9e4:	00000000 	nop
a080a9e8:	8fc30048 	lw	v1,72(s8)
a080a9ec:	28620065 	slti	v0,v1,101
a080a9f0:	1040000e 	beqz	v0,a080aa2c <mini_vsnprintf+0x18c>
a080a9f4:	00000000 	nop
a080a9f8:	24020058 	li	v0,88
a080a9fc:	8fc30048 	lw	v1,72(s8)
a080aa00:	10620033 	beq	v1,v0,a080aad0 <mini_vsnprintf+0x230>
a080aa04:	00000000 	nop
a080aa08:	24020063 	li	v0,99
a080aa0c:	8fc30048 	lw	v1,72(s8)
a080aa10:	1062004a 	beq	v1,v0,a080ab3c <mini_vsnprintf+0x29c>
a080aa14:	00000000 	nop
a080aa18:	8fc20048 	lw	v0,72(s8)
a080aa1c:	10400077 	beqz	v0,a080abfc <mini_vsnprintf+0x35c>
a080aa20:	00000000 	nop
a080aa24:	08202aee 	j	a080abb8 <mini_vsnprintf+0x318>
a080aa28:	00000000 	nop
a080aa2c:	24020075 	li	v0,117
a080aa30:	8fc30048 	lw	v1,72(s8)
a080aa34:	1062000b 	beq	v1,v0,a080aa64 <mini_vsnprintf+0x1c4>
a080aa38:	00000000 	nop
a080aa3c:	24020078 	li	v0,120
a080aa40:	8fc30048 	lw	v1,72(s8)
a080aa44:	10620022 	beq	v1,v0,a080aad0 <mini_vsnprintf+0x230>
a080aa48:	00000000 	nop
a080aa4c:	24020073 	li	v0,115
a080aa50:	8fc30048 	lw	v1,72(s8)
a080aa54:	10620047 	beq	v1,v0,a080ab74 <mini_vsnprintf+0x2d4>
a080aa58:	00000000 	nop
a080aa5c:	08202aee 	j	a080abb8 <mini_vsnprintf+0x318>
a080aa60:	00000000 	nop
a080aa64:	8fc30064 	lw	v1,100(s8)
a080aa68:	24620004 	addiu	v0,v1,4
a080aa6c:	afc20064 	sw	v0,100(s8)
a080aa70:	00601021 	move	v0,v1
a080aa74:	8c420000 	lw	v0,0(v0)
a080aa78:	00402021 	move	a0,v0
a080aa7c:	83c20021 	lb	v0,33(s8)
a080aa80:	38420075 	xori	v0,v0,0x75
a080aa84:	2c470001 	sltiu	a3,v0,1
a080aa88:	83c30020 	lb	v1,32(s8)
a080aa8c:	27c20030 	addiu	v0,s8,48
a080aa90:	afa20010 	sw	v0,16(sp)
a080aa94:	afa30014 	sw	v1,20(sp)
a080aa98:	2405000a 	li	a1,10
a080aa9c:	00003021 	move	a2,zero
a080aaa0:	0c202922 	jal	a080a488 <mini_itoa>
a080aaa4:	00000000 	nop
a080aaa8:	afc20018 	sw	v0,24(s8)
a080aaac:	27c20030 	addiu	v0,s8,48
a080aab0:	27c30024 	addiu	v1,s8,36
a080aab4:	00402021 	move	a0,v0
a080aab8:	8fc50018 	lw	a1,24(s8)
a080aabc:	00603021 	move	a2,v1
a080aac0:	0c2029eb 	jal	a080a7ac <_puts>
a080aac4:	00000000 	nop
a080aac8:	08202af4 	j	a080abd0 <mini_vsnprintf+0x330>
a080aacc:	00000000 	nop
a080aad0:	8fc30064 	lw	v1,100(s8)
a080aad4:	24620004 	addiu	v0,v1,4
a080aad8:	afc20064 	sw	v0,100(s8)
a080aadc:	00601021 	move	v0,v1
a080aae0:	8c420000 	lw	v0,0(v0)
a080aae4:	00402021 	move	a0,v0
a080aae8:	83c20021 	lb	v0,33(s8)
a080aaec:	38420058 	xori	v0,v0,0x58
a080aaf0:	2c460001 	sltiu	a2,v0,1
a080aaf4:	83c30020 	lb	v1,32(s8)
a080aaf8:	27c20030 	addiu	v0,s8,48
a080aafc:	afa20010 	sw	v0,16(sp)
a080ab00:	afa30014 	sw	v1,20(sp)
a080ab04:	24050010 	li	a1,16
a080ab08:	24070001 	li	a3,1
a080ab0c:	0c202922 	jal	a080a488 <mini_itoa>
a080ab10:	00000000 	nop
a080ab14:	afc20018 	sw	v0,24(s8)
a080ab18:	27c20030 	addiu	v0,s8,48
a080ab1c:	27c30024 	addiu	v1,s8,36
a080ab20:	00402021 	move	a0,v0
a080ab24:	8fc50018 	lw	a1,24(s8)
a080ab28:	00603021 	move	a2,v1
a080ab2c:	0c2029eb 	jal	a080a7ac <_puts>
a080ab30:	00000000 	nop
a080ab34:	08202af4 	j	a080abd0 <mini_vsnprintf+0x330>
a080ab38:	00000000 	nop
a080ab3c:	8fc30064 	lw	v1,100(s8)
a080ab40:	24620004 	addiu	v0,v1,4
a080ab44:	afc20064 	sw	v0,100(s8)
a080ab48:	00601021 	move	v0,v1
a080ab4c:	8c420000 	lw	v0,0(v0)
a080ab50:	00021600 	sll	v0,v0,0x18
a080ab54:	00021603 	sra	v0,v0,0x18
a080ab58:	27c30024 	addiu	v1,s8,36
a080ab5c:	00402021 	move	a0,v0
a080ab60:	00602821 	move	a1,v1
a080ab64:	0c2029c2 	jal	a080a708 <_putc>
a080ab68:	00000000 	nop
a080ab6c:	08202af4 	j	a080abd0 <mini_vsnprintf+0x330>
a080ab70:	00000000 	nop
a080ab74:	8fc30064 	lw	v1,100(s8)
a080ab78:	24620004 	addiu	v0,v1,4
a080ab7c:	afc20064 	sw	v0,100(s8)
a080ab80:	00601021 	move	v0,v1
a080ab84:	8c420000 	lw	v0,0(v0)
a080ab88:	afc2001c 	sw	v0,28(s8)
a080ab8c:	8fc4001c 	lw	a0,28(s8)
a080ab90:	0c20290c 	jal	a080a430 <mini_strlen>
a080ab94:	00000000 	nop
a080ab98:	27c30024 	addiu	v1,s8,36
a080ab9c:	8fc4001c 	lw	a0,28(s8)
a080aba0:	00402821 	move	a1,v0
a080aba4:	00603021 	move	a2,v1
a080aba8:	0c2029eb 	jal	a080a7ac <_puts>
a080abac:	00000000 	nop
a080abb0:	08202af4 	j	a080abd0 <mini_vsnprintf+0x330>
a080abb4:	00000000 	nop
a080abb8:	83c20021 	lb	v0,33(s8)
a080abbc:	27c30024 	addiu	v1,s8,36
a080abc0:	00402021 	move	a0,v0
a080abc4:	00602821 	move	a1,v1
a080abc8:	0c2029c2 	jal	a080a708 <_putc>
a080abcc:	00000000 	nop
a080abd0:	8fc20060 	lw	v0,96(s8)
a080abd4:	90420000 	lbu	v0,0(v0)
a080abd8:	a3c20021 	sb	v0,33(s8)
a080abdc:	83c20021 	lb	v0,33(s8)
a080abe0:	0002102b 	sltu	v0,zero,v0
a080abe4:	304300ff 	andi	v1,v0,0xff
a080abe8:	8fc20060 	lw	v0,96(s8)
a080abec:	24420001 	addiu	v0,v0,1
a080abf0:	afc20060 	sw	v0,96(s8)
a080abf4:	1460ff3a 	bnez	v1,a080a8e0 <mini_vsnprintf+0x40>
a080abf8:	00000000 	nop
a080abfc:	8fc20028 	lw	v0,40(s8)
a080ac00:	00401821 	move	v1,v0
a080ac04:	8fc20024 	lw	v0,36(s8)
a080ac08:	00621023 	subu	v0,v1,v0
a080ac0c:	03c0e821 	move	sp,s8
a080ac10:	8fbf0054 	lw	ra,84(sp)
a080ac14:	8fbe0050 	lw	s8,80(sp)
a080ac18:	27bd0058 	addiu	sp,sp,88
a080ac1c:	03e00008 	jr	ra
a080ac20:	00000000 	nop

a080ac24 <printk>:
a080ac24:	27bdfee0 	addiu	sp,sp,-288
a080ac28:	afbf011c 	sw	ra,284(sp)
a080ac2c:	afbe0118 	sw	s8,280(sp)
a080ac30:	03a0f021 	move	s8,sp
a080ac34:	afc50124 	sw	a1,292(s8)
a080ac38:	afc60128 	sw	a2,296(s8)
a080ac3c:	afc7012c 	sw	a3,300(s8)
a080ac40:	afc40120 	sw	a0,288(s8)
a080ac44:	27c20124 	addiu	v0,s8,292
a080ac48:	afc20014 	sw	v0,20(s8)
a080ac4c:	8fc30014 	lw	v1,20(s8)
a080ac50:	27c20018 	addiu	v0,s8,24
a080ac54:	00402021 	move	a0,v0
a080ac58:	24050100 	li	a1,256
a080ac5c:	8fc60120 	lw	a2,288(s8)
a080ac60:	00603821 	move	a3,v1
a080ac64:	0c202a28 	jal	a080a8a0 <mini_vsnprintf>
a080ac68:	00000000 	nop
a080ac6c:	afc20010 	sw	v0,16(s8)
a080ac70:	8fc30010 	lw	v1,16(s8)
a080ac74:	27c20010 	addiu	v0,s8,16
a080ac78:	00431021 	addu	v0,v0,v1
a080ac7c:	a0400008 	sb	zero,8(v0)
a080ac80:	27c20018 	addiu	v0,s8,24
a080ac84:	00402021 	move	a0,v0
a080ac88:	0c2002b8 	jal	a0800ae0 <port_write>
a080ac8c:	00000000 	nop
a080ac90:	8fc20010 	lw	v0,16(s8)
a080ac94:	03c0e821 	move	sp,s8
a080ac98:	8fbf011c 	lw	ra,284(sp)
a080ac9c:	8fbe0118 	lw	s8,280(sp)
a080aca0:	27bd0120 	addiu	sp,sp,288
a080aca4:	03e00008 	jr	ra
a080aca8:	00000000 	nop

a080acac <printf>:
a080acac:	27bdfee0 	addiu	sp,sp,-288
a080acb0:	afbf011c 	sw	ra,284(sp)
a080acb4:	afbe0118 	sw	s8,280(sp)
a080acb8:	03a0f021 	move	s8,sp
a080acbc:	afc50124 	sw	a1,292(s8)
a080acc0:	afc60128 	sw	a2,296(s8)
a080acc4:	afc7012c 	sw	a3,300(s8)
a080acc8:	afc40120 	sw	a0,288(s8)
a080accc:	27c20124 	addiu	v0,s8,292
a080acd0:	afc20014 	sw	v0,20(s8)
a080acd4:	8fc30014 	lw	v1,20(s8)
a080acd8:	27c20018 	addiu	v0,s8,24
a080acdc:	00402021 	move	a0,v0
a080ace0:	24050100 	li	a1,256
a080ace4:	8fc60120 	lw	a2,288(s8)
a080ace8:	00603821 	move	a3,v1
a080acec:	0c202a28 	jal	a080a8a0 <mini_vsnprintf>
a080acf0:	00000000 	nop
a080acf4:	afc20010 	sw	v0,16(s8)
a080acf8:	8fc30010 	lw	v1,16(s8)
a080acfc:	27c20010 	addiu	v0,s8,16
a080ad00:	00431021 	addu	v0,v0,v1
a080ad04:	a0400008 	sb	zero,8(v0)
a080ad08:	27c20018 	addiu	v0,s8,24
a080ad0c:	00402021 	move	a0,v0
a080ad10:	0c2022d5 	jal	a0808b54 <sys_write>
a080ad14:	00000000 	nop
a080ad18:	8fc20010 	lw	v0,16(s8)
a080ad1c:	03c0e821 	move	sp,s8
a080ad20:	8fbf011c 	lw	ra,284(sp)
a080ad24:	8fbe0118 	lw	s8,280(sp)
a080ad28:	27bd0120 	addiu	sp,sp,288
a080ad2c:	03e00008 	jr	ra
a080ad30:	00000000 	nop

a080ad34 <my_printk>:
a080ad34:	27bdfee0 	addiu	sp,sp,-288
a080ad38:	afbf011c 	sw	ra,284(sp)
a080ad3c:	afbe0118 	sw	s8,280(sp)
a080ad40:	03a0f021 	move	s8,sp
a080ad44:	afc50124 	sw	a1,292(s8)
a080ad48:	afc60128 	sw	a2,296(s8)
a080ad4c:	afc7012c 	sw	a3,300(s8)
a080ad50:	afc40120 	sw	a0,288(s8)
a080ad54:	27c20124 	addiu	v0,s8,292
a080ad58:	afc20014 	sw	v0,20(s8)
a080ad5c:	8fc30014 	lw	v1,20(s8)
a080ad60:	27c20018 	addiu	v0,s8,24
a080ad64:	00402021 	move	a0,v0
a080ad68:	24050100 	li	a1,256
a080ad6c:	8fc60120 	lw	a2,288(s8)
a080ad70:	00603821 	move	a3,v1
a080ad74:	0c202a28 	jal	a080a8a0 <mini_vsnprintf>
a080ad78:	00000000 	nop
a080ad7c:	afc20010 	sw	v0,16(s8)
a080ad80:	8fc30010 	lw	v1,16(s8)
a080ad84:	27c20010 	addiu	v0,s8,16
a080ad88:	00431021 	addu	v0,v0,v1
a080ad8c:	a0400008 	sb	zero,8(v0)
a080ad90:	27c20018 	addiu	v0,s8,24
a080ad94:	00402021 	move	a0,v0
a080ad98:	0c200440 	jal	a0801100 <screen_write>
a080ad9c:	00000000 	nop
a080ada0:	8fc20010 	lw	v0,16(s8)
a080ada4:	03c0e821 	move	sp,s8
a080ada8:	8fbf011c 	lw	ra,284(sp)
a080adac:	8fbe0118 	lw	s8,280(sp)
a080adb0:	27bd0120 	addiu	sp,sp,288
a080adb4:	03e00008 	jr	ra
a080adb8:	00000000 	nop
a080adbc:	00000000 	nop

a080adc0 <test_shell_task1>:
a080adc0:	27bdffe0 	addiu	sp,sp,-32
a080adc4:	afbf001c 	sw	ra,28(sp)
a080adc8:	afbe0018 	sw	s8,24(sp)
a080adcc:	03a0f021 	move	s8,sp
a080add0:	afc00010 	sw	zero,16(s8)
a080add4:	08202b83 	j	a080ae0c <test_shell_task1+0x4c>
a080add8:	00000000 	nop
a080addc:	00002021 	move	a0,zero
a080ade0:	00002821 	move	a1,zero
a080ade4:	0c2022e7 	jal	a0808b9c <sys_move_cursor>
a080ade8:	00000000 	nop
a080adec:	3c02a081 	lui	v0,0xa081
a080adf0:	2444ec10 	addiu	a0,v0,-5104
a080adf4:	8fc50010 	lw	a1,16(s8)
a080adf8:	0c202b2b 	jal	a080acac <printf>
a080adfc:	00000000 	nop
a080ae00:	8fc20010 	lw	v0,16(s8)
a080ae04:	24420001 	addiu	v0,v0,1
a080ae08:	afc20010 	sw	v0,16(s8)
a080ae0c:	8fc20010 	lw	v0,16(s8)
a080ae10:	284201f4 	slti	v0,v0,500
a080ae14:	1440fff1 	bnez	v0,a080addc <test_shell_task1+0x1c>
a080ae18:	00000000 	nop
a080ae1c:	0c20235c 	jal	a0808d70 <sys_exit>
a080ae20:	00000000 	nop
a080ae24:	03c0e821 	move	sp,s8
a080ae28:	8fbf001c 	lw	ra,28(sp)
a080ae2c:	8fbe0018 	lw	s8,24(sp)
a080ae30:	27bd0020 	addiu	sp,sp,32
a080ae34:	03e00008 	jr	ra
a080ae38:	00000000 	nop

a080ae3c <test_shell_task2>:
a080ae3c:	27bdffe0 	addiu	sp,sp,-32
a080ae40:	afbf001c 	sw	ra,28(sp)
a080ae44:	afbe0018 	sw	s8,24(sp)
a080ae48:	03a0f021 	move	s8,sp
a080ae4c:	00002021 	move	a0,zero
a080ae50:	24050001 	li	a1,1
a080ae54:	0c2022e7 	jal	a0808b9c <sys_move_cursor>
a080ae58:	00000000 	nop
a080ae5c:	3c02a081 	lui	v0,0xa081
a080ae60:	2444ec30 	addiu	a0,v0,-5072
a080ae64:	0c202b2b 	jal	a080acac <printf>
a080ae68:	00000000 	nop
a080ae6c:	24040002 	li	a0,2
a080ae70:	0c20236c 	jal	a0808db0 <sys_waitpid>
a080ae74:	00000000 	nop
a080ae78:	afc00010 	sw	zero,16(s8)
a080ae7c:	00002021 	move	a0,zero
a080ae80:	24050001 	li	a1,1
a080ae84:	0c2022e7 	jal	a0808b9c <sys_move_cursor>
a080ae88:	00000000 	nop
a080ae8c:	3c02a081 	lui	v0,0xa081
a080ae90:	2444ec50 	addiu	a0,v0,-5040
a080ae94:	8fc50010 	lw	a1,16(s8)
a080ae98:	0c202b2b 	jal	a080acac <printf>
a080ae9c:	00000000 	nop
a080aea0:	8fc20010 	lw	v0,16(s8)
a080aea4:	24420001 	addiu	v0,v0,1
a080aea8:	afc20010 	sw	v0,16(s8)
a080aeac:	08202b9f 	j	a080ae7c <test_shell_task2+0x40>
a080aeb0:	00000000 	nop

a080aeb4 <test_shell_task3>:
a080aeb4:	27bdffe0 	addiu	sp,sp,-32
a080aeb8:	afbf001c 	sw	ra,28(sp)
a080aebc:	afbe0018 	sw	s8,24(sp)
a080aec0:	03a0f021 	move	s8,sp
a080aec4:	00002021 	move	a0,zero
a080aec8:	24050002 	li	a1,2
a080aecc:	0c2022e7 	jal	a0808b9c <sys_move_cursor>
a080aed0:	00000000 	nop
a080aed4:	3c02a081 	lui	v0,0xa081
a080aed8:	2444ec70 	addiu	a0,v0,-5008
a080aedc:	0c202b2b 	jal	a080acac <printf>
a080aee0:	00000000 	nop
a080aee4:	24040003 	li	a0,3
a080aee8:	0c20236c 	jal	a0808db0 <sys_waitpid>
a080aeec:	00000000 	nop
a080aef0:	afc00010 	sw	zero,16(s8)
a080aef4:	00002021 	move	a0,zero
a080aef8:	24050002 	li	a1,2
a080aefc:	0c2022e7 	jal	a0808b9c <sys_move_cursor>
a080af00:	00000000 	nop
a080af04:	3c02a081 	lui	v0,0xa081
a080af08:	2444ec90 	addiu	a0,v0,-4976
a080af0c:	8fc50010 	lw	a1,16(s8)
a080af10:	0c202b2b 	jal	a080acac <printf>
a080af14:	00000000 	nop
a080af18:	8fc20010 	lw	v0,16(s8)
a080af1c:	24420001 	addiu	v0,v0,1
a080af20:	afc20010 	sw	v0,16(s8)
a080af24:	08202bbd 	j	a080aef4 <test_shell_task3+0x40>
a080af28:	00000000 	nop

a080af2c <disable_interrupt>:
a080af2c:	27bdffe0 	addiu	sp,sp,-32
a080af30:	afbf001c 	sw	ra,28(sp)
a080af34:	afbe0018 	sw	s8,24(sp)
a080af38:	03a0f021 	move	s8,sp
a080af3c:	0c2000d3 	jal	a080034c <get_cp0_status>
a080af40:	00000000 	nop
a080af44:	afc20010 	sw	v0,16(s8)
a080af48:	8fc30010 	lw	v1,16(s8)
a080af4c:	2402fffe 	li	v0,-2
a080af50:	00621024 	and	v0,v1,v0
a080af54:	afc20010 	sw	v0,16(s8)
a080af58:	8fc40010 	lw	a0,16(s8)
a080af5c:	0c2000d6 	jal	a0800358 <set_cp0_status>
a080af60:	00000000 	nop
a080af64:	03c0e821 	move	sp,s8
a080af68:	8fbf001c 	lw	ra,28(sp)
a080af6c:	8fbe0018 	lw	s8,24(sp)
a080af70:	27bd0020 	addiu	sp,sp,32
a080af74:	03e00008 	jr	ra
a080af78:	00000000 	nop

a080af7c <enable_interrupt>:
a080af7c:	27bdffe0 	addiu	sp,sp,-32
a080af80:	afbf001c 	sw	ra,28(sp)
a080af84:	afbe0018 	sw	s8,24(sp)
a080af88:	03a0f021 	move	s8,sp
a080af8c:	0c2000d3 	jal	a080034c <get_cp0_status>
a080af90:	00000000 	nop
a080af94:	afc20010 	sw	v0,16(s8)
a080af98:	8fc20010 	lw	v0,16(s8)
a080af9c:	34420001 	ori	v0,v0,0x1
a080afa0:	afc20010 	sw	v0,16(s8)
a080afa4:	8fc40010 	lw	a0,16(s8)
a080afa8:	0c2000d6 	jal	a0800358 <set_cp0_status>
a080afac:	00000000 	nop
a080afb0:	03c0e821 	move	sp,s8
a080afb4:	8fbf001c 	lw	ra,28(sp)
a080afb8:	8fbe0018 	lw	s8,24(sp)
a080afbc:	27bd0020 	addiu	sp,sp,32
a080afc0:	03e00008 	jr	ra
a080afc4:	00000000 	nop

a080afc8 <read_uart_ch>:
a080afc8:	27bdffe8 	addiu	sp,sp,-24
a080afcc:	afbe0014 	sw	s8,20(sp)
a080afd0:	03a0f021 	move	s8,sp
a080afd4:	a3c00008 	sb	zero,8(s8)
a080afd8:	3c02bfe4 	lui	v0,0xbfe4
a080afdc:	34428000 	ori	v0,v0,0x8000
a080afe0:	afc20004 	sw	v0,4(s8)
a080afe4:	3c02bfe4 	lui	v0,0xbfe4
a080afe8:	34428005 	ori	v0,v0,0x8005
a080afec:	afc20000 	sw	v0,0(s8)
a080aff0:	08202c01 	j	a080b004 <read_uart_ch+0x3c>
a080aff4:	00000000 	nop
a080aff8:	8fc20004 	lw	v0,4(s8)
a080affc:	90420000 	lbu	v0,0(v0)
a080b000:	a3c20008 	sb	v0,8(s8)
a080b004:	8fc20000 	lw	v0,0(s8)
a080b008:	90420000 	lbu	v0,0(v0)
a080b00c:	30420001 	andi	v0,v0,0x1
a080b010:	304200ff 	andi	v0,v0,0xff
a080b014:	1440fff8 	bnez	v0,a080aff8 <read_uart_ch+0x30>
a080b018:	00000000 	nop
a080b01c:	83c20008 	lb	v0,8(s8)
a080b020:	03c0e821 	move	sp,s8
a080b024:	8fbe0014 	lw	s8,20(sp)
a080b028:	27bd0018 	addiu	sp,sp,24
a080b02c:	03e00008 	jr	ra
a080b030:	00000000 	nop

a080b034 <execute>:
a080b034:	27bdffe0 	addiu	sp,sp,-32
a080b038:	afbf001c 	sw	ra,28(sp)
a080b03c:	afbe0018 	sw	s8,24(sp)
a080b040:	03a0f021 	move	s8,sp
a080b044:	afc40020 	sw	a0,32(s8)
a080b048:	afc50024 	sw	a1,36(s8)
a080b04c:	8fc30020 	lw	v1,32(s8)
a080b050:	24020001 	li	v0,1
a080b054:	14620061 	bne	v1,v0,a080b1dc <execute+0x1a8>
a080b058:	00000000 	nop
a080b05c:	8fc20024 	lw	v0,36(s8)
a080b060:	00402021 	move	a0,v0
a080b064:	3c02a081 	lui	v0,0xa081
a080b068:	2445ed30 	addiu	a1,v0,-4816
a080b06c:	0c202844 	jal	a080a110 <strcmp>
a080b070:	00000000 	nop
a080b074:	14400005 	bnez	v0,a080b08c <execute+0x58>
a080b078:	00000000 	nop
a080b07c:	0c202309 	jal	a0808c24 <sys_ps>
a080b080:	00000000 	nop
a080b084:	08202d4f 	j	a080b53c <execute+0x508>
a080b088:	00000000 	nop
a080b08c:	8fc20024 	lw	v0,36(s8)
a080b090:	00402021 	move	a0,v0
a080b094:	3c02a081 	lui	v0,0xa081
a080b098:	2445ed34 	addiu	a1,v0,-4812
a080b09c:	0c202844 	jal	a080a110 <strcmp>
a080b0a0:	00000000 	nop
a080b0a4:	14400005 	bnez	v0,a080b0bc <execute+0x88>
a080b0a8:	00000000 	nop
a080b0ac:	0c202319 	jal	a0808c64 <sys_clear>
a080b0b0:	00000000 	nop
a080b0b4:	08202d4f 	j	a080b53c <execute+0x508>
a080b0b8:	00000000 	nop
a080b0bc:	8fc20024 	lw	v0,36(s8)
a080b0c0:	00402021 	move	a0,v0
a080b0c4:	3c02a081 	lui	v0,0xa081
a080b0c8:	2445ed3c 	addiu	a1,v0,-4804
a080b0cc:	0c202844 	jal	a080a110 <strcmp>
a080b0d0:	00000000 	nop
a080b0d4:	1440000b 	bnez	v0,a080b104 <execute+0xd0>
a080b0d8:	00000000 	nop
a080b0dc:	0c2024a2 	jal	a0809288 <sys_mkfs>
a080b0e0:	00000000 	nop
a080b0e4:	14400115 	bnez	v0,a080b53c <execute+0x508>
a080b0e8:	00000000 	nop
a080b0ec:	3c02a081 	lui	v0,0xa081
a080b0f0:	2444ed44 	addiu	a0,v0,-4796
a080b0f4:	0c202b2b 	jal	a080acac <printf>
a080b0f8:	00000000 	nop
a080b0fc:	08202d4f 	j	a080b53c <execute+0x508>
a080b100:	00000000 	nop
a080b104:	8fc20024 	lw	v0,36(s8)
a080b108:	00402021 	move	a0,v0
a080b10c:	3c02a081 	lui	v0,0xa081
a080b110:	2445ed64 	addiu	a1,v0,-4764
a080b114:	0c202844 	jal	a080a110 <strcmp>
a080b118:	00000000 	nop
a080b11c:	14400005 	bnez	v0,a080b134 <execute+0x100>
a080b120:	00000000 	nop
a080b124:	0c2024b2 	jal	a08092c8 <sys_statfs>
a080b128:	00000000 	nop
a080b12c:	08202d4f 	j	a080b53c <execute+0x508>
a080b130:	00000000 	nop
a080b134:	8fc20024 	lw	v0,36(s8)
a080b138:	00402021 	move	a0,v0
a080b13c:	3c02a081 	lui	v0,0xa081
a080b140:	2445ed6c 	addiu	a1,v0,-4756
a080b144:	0c202844 	jal	a080a110 <strcmp>
a080b148:	00000000 	nop
a080b14c:	14400011 	bnez	v0,a080b194 <execute+0x160>
a080b150:	00000000 	nop
a080b154:	8fc20024 	lw	v0,36(s8)
a080b158:	2442000a 	addiu	v0,v0,10
a080b15c:	a0400000 	sb	zero,0(v0)
a080b160:	8fc20024 	lw	v0,36(s8)
a080b164:	2442000a 	addiu	v0,v0,10
a080b168:	00402021 	move	a0,v0
a080b16c:	0c2024f8 	jal	a08093e0 <sys_ls>
a080b170:	00000000 	nop
a080b174:	144000f1 	bnez	v0,a080b53c <execute+0x508>
a080b178:	00000000 	nop
a080b17c:	3c02a081 	lui	v0,0xa081
a080b180:	2444ed70 	addiu	a0,v0,-4752
a080b184:	0c202b2b 	jal	a080acac <printf>
a080b188:	00000000 	nop
a080b18c:	08202d4f 	j	a080b53c <execute+0x508>
a080b190:	00000000 	nop
a080b194:	8fc20024 	lw	v0,36(s8)
a080b198:	00402021 	move	a0,v0
a080b19c:	3c02a081 	lui	v0,0xa081
a080b1a0:	2445ed88 	addiu	a1,v0,-4728
a080b1a4:	0c202844 	jal	a080a110 <strcmp>
a080b1a8:	00000000 	nop
a080b1ac:	14400005 	bnez	v0,a080b1c4 <execute+0x190>
a080b1b0:	00000000 	nop
a080b1b4:	0c20257a 	jal	a08095e8 <sys_cfs>
a080b1b8:	00000000 	nop
a080b1bc:	08202d4f 	j	a080b53c <execute+0x508>
a080b1c0:	00000000 	nop
a080b1c4:	3c02a081 	lui	v0,0xa081
a080b1c8:	2444ed8c 	addiu	a0,v0,-4724
a080b1cc:	0c202b2b 	jal	a080acac <printf>
a080b1d0:	00000000 	nop
a080b1d4:	08202d4f 	j	a080b53c <execute+0x508>
a080b1d8:	00000000 	nop
a080b1dc:	8fc30020 	lw	v1,32(s8)
a080b1e0:	24020002 	li	v0,2
a080b1e4:	146200ce 	bne	v1,v0,a080b520 <execute+0x4ec>
a080b1e8:	00000000 	nop
a080b1ec:	8fc20024 	lw	v0,36(s8)
a080b1f0:	2442000a 	addiu	v0,v0,10
a080b1f4:	00402021 	move	a0,v0
a080b1f8:	2405000a 	li	a1,10
a080b1fc:	0c202899 	jal	a080a264 <itoa>
a080b200:	00000000 	nop
a080b204:	afc20010 	sw	v0,16(s8)
a080b208:	8fc20024 	lw	v0,36(s8)
a080b20c:	00402021 	move	a0,v0
a080b210:	3c02a081 	lui	v0,0xa081
a080b214:	2445eda0 	addiu	a1,v0,-4704
a080b218:	0c202844 	jal	a080a110 <strcmp>
a080b21c:	00000000 	nop
a080b220:	14400014 	bnez	v0,a080b274 <execute+0x240>
a080b224:	00000000 	nop
a080b228:	8fc20010 	lw	v0,16(s8)
a080b22c:	2443ffff 	addiu	v1,v0,-1
a080b230:	3c02a081 	lui	v0,0xa081
a080b234:	2444eda8 	addiu	a0,v0,-4696
a080b238:	00602821 	move	a1,v1
a080b23c:	0c202b2b 	jal	a080acac <printf>
a080b240:	00000000 	nop
a080b244:	8fc20010 	lw	v0,16(s8)
a080b248:	2442ffff 	addiu	v0,v0,-1
a080b24c:	3c03a081 	lui	v1,0xa081
a080b250:	00022080 	sll	a0,v0,0x2
a080b254:	2462fa50 	addiu	v0,v1,-1456
a080b258:	00821021 	addu	v0,a0,v0
a080b25c:	8c420000 	lw	v0,0(v0)
a080b260:	00402021 	move	a0,v0
a080b264:	0c202339 	jal	a0808ce4 <sys_spawn>
a080b268:	00000000 	nop
a080b26c:	08202d4f 	j	a080b53c <execute+0x508>
a080b270:	00000000 	nop
a080b274:	8fc20024 	lw	v0,36(s8)
a080b278:	00402021 	move	a0,v0
a080b27c:	3c02a081 	lui	v0,0xa081
a080b280:	2445edbc 	addiu	a1,v0,-4676
a080b284:	0c202844 	jal	a080a110 <strcmp>
a080b288:	00000000 	nop
a080b28c:	1440000b 	bnez	v0,a080b2bc <execute+0x288>
a080b290:	00000000 	nop
a080b294:	3c02a081 	lui	v0,0xa081
a080b298:	2444edc4 	addiu	a0,v0,-4668
a080b29c:	8fc50010 	lw	a1,16(s8)
a080b2a0:	0c202b2b 	jal	a080acac <printf>
a080b2a4:	00000000 	nop
a080b2a8:	8fc40010 	lw	a0,16(s8)
a080b2ac:	0c20234b 	jal	a0808d2c <sys_kill>
a080b2b0:	00000000 	nop
a080b2b4:	08202d4f 	j	a080b53c <execute+0x508>
a080b2b8:	00000000 	nop
a080b2bc:	8fc20024 	lw	v0,36(s8)
a080b2c0:	00402021 	move	a0,v0
a080b2c4:	3c02a081 	lui	v0,0xa081
a080b2c8:	2445eddc 	addiu	a1,v0,-4644
a080b2cc:	0c202844 	jal	a080a110 <strcmp>
a080b2d0:	00000000 	nop
a080b2d4:	1440000e 	bnez	v0,a080b310 <execute+0x2dc>
a080b2d8:	00000000 	nop
a080b2dc:	8fc20024 	lw	v0,36(s8)
a080b2e0:	2442000a 	addiu	v0,v0,10
a080b2e4:	00402021 	move	a0,v0
a080b2e8:	0c2024c2 	jal	a0809308 <sys_cd>
a080b2ec:	00000000 	nop
a080b2f0:	14400092 	bnez	v0,a080b53c <execute+0x508>
a080b2f4:	00000000 	nop
a080b2f8:	3c02a081 	lui	v0,0xa081
a080b2fc:	2444ed70 	addiu	a0,v0,-4752
a080b300:	0c202b2b 	jal	a080acac <printf>
a080b304:	00000000 	nop
a080b308:	08202d4f 	j	a080b53c <execute+0x508>
a080b30c:	00000000 	nop
a080b310:	8fc20024 	lw	v0,36(s8)
a080b314:	00402021 	move	a0,v0
a080b318:	3c02a081 	lui	v0,0xa081
a080b31c:	2445ed6c 	addiu	a1,v0,-4756
a080b320:	0c202844 	jal	a080a110 <strcmp>
a080b324:	00000000 	nop
a080b328:	1440000e 	bnez	v0,a080b364 <execute+0x330>
a080b32c:	00000000 	nop
a080b330:	8fc20024 	lw	v0,36(s8)
a080b334:	2442000a 	addiu	v0,v0,10
a080b338:	00402021 	move	a0,v0
a080b33c:	0c2024f8 	jal	a08093e0 <sys_ls>
a080b340:	00000000 	nop
a080b344:	1440007d 	bnez	v0,a080b53c <execute+0x508>
a080b348:	00000000 	nop
a080b34c:	3c02a081 	lui	v0,0xa081
a080b350:	2444ed70 	addiu	a0,v0,-4752
a080b354:	0c202b2b 	jal	a080acac <printf>
a080b358:	00000000 	nop
a080b35c:	08202d4f 	j	a080b53c <execute+0x508>
a080b360:	00000000 	nop
a080b364:	8fc20024 	lw	v0,36(s8)
a080b368:	00402021 	move	a0,v0
a080b36c:	3c02a081 	lui	v0,0xa081
a080b370:	2445ede0 	addiu	a1,v0,-4640
a080b374:	0c202844 	jal	a080a110 <strcmp>
a080b378:	00000000 	nop
a080b37c:	1440000e 	bnez	v0,a080b3b8 <execute+0x384>
a080b380:	00000000 	nop
a080b384:	8fc20024 	lw	v0,36(s8)
a080b388:	2442000a 	addiu	v0,v0,10
a080b38c:	00402021 	move	a0,v0
a080b390:	0c2024d4 	jal	a0809350 <sys_mkdir>
a080b394:	00000000 	nop
a080b398:	14400068 	bnez	v0,a080b53c <execute+0x508>
a080b39c:	00000000 	nop
a080b3a0:	3c02a081 	lui	v0,0xa081
a080b3a4:	2444ede8 	addiu	a0,v0,-4632
a080b3a8:	0c202b2b 	jal	a080acac <printf>
a080b3ac:	00000000 	nop
a080b3b0:	08202d4f 	j	a080b53c <execute+0x508>
a080b3b4:	00000000 	nop
a080b3b8:	8fc20024 	lw	v0,36(s8)
a080b3bc:	00402021 	move	a0,v0
a080b3c0:	3c02a081 	lui	v0,0xa081
a080b3c4:	2445ee04 	addiu	a1,v0,-4604
a080b3c8:	0c202844 	jal	a080a110 <strcmp>
a080b3cc:	00000000 	nop
a080b3d0:	1440000e 	bnez	v0,a080b40c <execute+0x3d8>
a080b3d4:	00000000 	nop
a080b3d8:	8fc20024 	lw	v0,36(s8)
a080b3dc:	2442000a 	addiu	v0,v0,10
a080b3e0:	00402021 	move	a0,v0
a080b3e4:	0c2024e6 	jal	a0809398 <sys_rmdir>
a080b3e8:	00000000 	nop
a080b3ec:	14400053 	bnez	v0,a080b53c <execute+0x508>
a080b3f0:	00000000 	nop
a080b3f4:	3c02a081 	lui	v0,0xa081
a080b3f8:	2444ed70 	addiu	a0,v0,-4752
a080b3fc:	0c202b2b 	jal	a080acac <printf>
a080b400:	00000000 	nop
a080b404:	08202d4f 	j	a080b53c <execute+0x508>
a080b408:	00000000 	nop
a080b40c:	8fc20024 	lw	v0,36(s8)
a080b410:	00402021 	move	a0,v0
a080b414:	3c02a081 	lui	v0,0xa081
a080b418:	2445ee0c 	addiu	a1,v0,-4596
a080b41c:	0c202844 	jal	a080a110 <strcmp>
a080b420:	00000000 	nop
a080b424:	1440000e 	bnez	v0,a080b460 <execute+0x42c>
a080b428:	00000000 	nop
a080b42c:	8fc20024 	lw	v0,36(s8)
a080b430:	2442000a 	addiu	v0,v0,10
a080b434:	00402021 	move	a0,v0
a080b438:	0c20250a 	jal	a0809428 <sys_touch>
a080b43c:	00000000 	nop
a080b440:	1440003e 	bnez	v0,a080b53c <execute+0x508>
a080b444:	00000000 	nop
a080b448:	3c02a081 	lui	v0,0xa081
a080b44c:	2444ee14 	addiu	a0,v0,-4588
a080b450:	0c202b2b 	jal	a080acac <printf>
a080b454:	00000000 	nop
a080b458:	08202d4f 	j	a080b53c <execute+0x508>
a080b45c:	00000000 	nop
a080b460:	8fc20024 	lw	v0,36(s8)
a080b464:	00402021 	move	a0,v0
a080b468:	3c02a081 	lui	v0,0xa081
a080b46c:	2445ee2c 	addiu	a1,v0,-4564
a080b470:	0c202844 	jal	a080a110 <strcmp>
a080b474:	00000000 	nop
a080b478:	1440000e 	bnez	v0,a080b4b4 <execute+0x480>
a080b47c:	00000000 	nop
a080b480:	8fc20024 	lw	v0,36(s8)
a080b484:	2442000a 	addiu	v0,v0,10
a080b488:	00402021 	move	a0,v0
a080b48c:	0c20251c 	jal	a0809470 <sys_cat>
a080b490:	00000000 	nop
a080b494:	14400029 	bnez	v0,a080b53c <execute+0x508>
a080b498:	00000000 	nop
a080b49c:	3c02a081 	lui	v0,0xa081
a080b4a0:	2444ee30 	addiu	a0,v0,-4560
a080b4a4:	0c202b2b 	jal	a080acac <printf>
a080b4a8:	00000000 	nop
a080b4ac:	08202d4f 	j	a080b53c <execute+0x508>
a080b4b0:	00000000 	nop
a080b4b4:	8fc20024 	lw	v0,36(s8)
a080b4b8:	00402021 	move	a0,v0
a080b4bc:	3c02a081 	lui	v0,0xa081
a080b4c0:	2445ed34 	addiu	a1,v0,-4812
a080b4c4:	0c202844 	jal	a080a110 <strcmp>
a080b4c8:	00000000 	nop
a080b4cc:	1440000e 	bnez	v0,a080b508 <execute+0x4d4>
a080b4d0:	00000000 	nop
a080b4d4:	8fc20024 	lw	v0,36(s8)
a080b4d8:	2442000a 	addiu	v0,v0,10
a080b4dc:	00402021 	move	a0,v0
a080b4e0:	3c02a081 	lui	v0,0xa081
a080b4e4:	2445ee48 	addiu	a1,v0,-4536
a080b4e8:	0c202844 	jal	a080a110 <strcmp>
a080b4ec:	00000000 	nop
a080b4f0:	14400005 	bnez	v0,a080b508 <execute+0x4d4>
a080b4f4:	00000000 	nop
a080b4f8:	0c202329 	jal	a0808ca4 <sys_clear_all>
a080b4fc:	00000000 	nop
a080b500:	08202d4f 	j	a080b53c <execute+0x508>
a080b504:	00000000 	nop
a080b508:	3c02a081 	lui	v0,0xa081
a080b50c:	2444ed8c 	addiu	a0,v0,-4724
a080b510:	0c202b2b 	jal	a080acac <printf>
a080b514:	00000000 	nop
a080b518:	08202d4f 	j	a080b53c <execute+0x508>
a080b51c:	00000000 	nop
a080b520:	8fc20020 	lw	v0,32(s8)
a080b524:	10400005 	beqz	v0,a080b53c <execute+0x508>
a080b528:	00000000 	nop
a080b52c:	3c02a081 	lui	v0,0xa081
a080b530:	2444ed8c 	addiu	a0,v0,-4724
a080b534:	0c202b2b 	jal	a080acac <printf>
a080b538:	00000000 	nop
a080b53c:	03c0e821 	move	sp,s8
a080b540:	8fbf001c 	lw	ra,28(sp)
a080b544:	8fbe0018 	lw	s8,24(sp)
a080b548:	27bd0020 	addiu	sp,sp,32
a080b54c:	03e00008 	jr	ra
a080b550:	00000000 	nop

a080b554 <test_shell>:
a080b554:	27bdffa0 	addiu	sp,sp,-96
a080b558:	afbf005c 	sw	ra,92(sp)
a080b55c:	afbe0058 	sw	s8,88(sp)
a080b560:	03a0f021 	move	s8,sp
a080b564:	afc00020 	sw	zero,32(s8)
a080b568:	00002021 	move	a0,zero
a080b56c:	2405000f 	li	a1,15
a080b570:	0c2022e7 	jal	a0808b9c <sys_move_cursor>
a080b574:	00000000 	nop
a080b578:	3c02a081 	lui	v0,0xa081
a080b57c:	2444ee4c 	addiu	a0,v0,-4532
a080b580:	0c202b2b 	jal	a080acac <printf>
a080b584:	00000000 	nop
a080b588:	3c02a081 	lui	v0,0xa081
a080b58c:	2444ee80 	addiu	a0,v0,-4480
a080b590:	0c202b2b 	jal	a080acac <printf>
a080b594:	00000000 	nop
a080b598:	0c202bcb 	jal	a080af2c <disable_interrupt>
a080b59c:	00000000 	nop
a080b5a0:	0c202bf2 	jal	a080afc8 <read_uart_ch>
a080b5a4:	00000000 	nop
a080b5a8:	a3c20010 	sb	v0,16(s8)
a080b5ac:	0c202bdf 	jal	a080af7c <enable_interrupt>
a080b5b0:	00000000 	nop
a080b5b4:	83c20010 	lb	v0,16(s8)
a080b5b8:	1040fff7 	beqz	v0,a080b598 <test_shell+0x44>
a080b5bc:	00000000 	nop
a080b5c0:	8fc20020 	lw	v0,32(s8)
a080b5c4:	14400009 	bnez	v0,a080b5ec <test_shell+0x98>
a080b5c8:	00000000 	nop
a080b5cc:	83c30010 	lb	v1,16(s8)
a080b5d0:	2402007f 	li	v0,127
a080b5d4:	1062fff0 	beq	v1,v0,a080b598 <test_shell+0x44>
a080b5d8:	00000000 	nop
a080b5dc:	83c30010 	lb	v1,16(s8)
a080b5e0:	24020008 	li	v0,8
a080b5e4:	1062ffec 	beq	v1,v0,a080b598 <test_shell+0x44>
a080b5e8:	00000000 	nop
a080b5ec:	83c30010 	lb	v1,16(s8)
a080b5f0:	3c02a081 	lui	v0,0xa081
a080b5f4:	2444ee90 	addiu	a0,v0,-4464
a080b5f8:	00602821 	move	a1,v1
a080b5fc:	0c202b2b 	jal	a080acac <printf>
a080b600:	00000000 	nop
a080b604:	83c30010 	lb	v1,16(s8)
a080b608:	2402000d 	li	v0,13
a080b60c:	10620018 	beq	v1,v0,a080b670 <test_shell+0x11c>
a080b610:	00000000 	nop
a080b614:	83c30010 	lb	v1,16(s8)
a080b618:	24020008 	li	v0,8
a080b61c:	10620005 	beq	v1,v0,a080b634 <test_shell+0xe0>
a080b620:	00000000 	nop
a080b624:	83c30010 	lb	v1,16(s8)
a080b628:	2402007f 	li	v0,127
a080b62c:	14620006 	bne	v1,v0,a080b648 <test_shell+0xf4>
a080b630:	00000000 	nop
a080b634:	8fc20020 	lw	v0,32(s8)
a080b638:	2442ffff 	addiu	v0,v0,-1
a080b63c:	afc20020 	sw	v0,32(s8)
a080b640:	08202d66 	j	a080b598 <test_shell+0x44>
a080b644:	00000000 	nop
a080b648:	8fc30020 	lw	v1,32(s8)
a080b64c:	27c20010 	addiu	v0,s8,16
a080b650:	00431821 	addu	v1,v0,v1
a080b654:	93c20010 	lbu	v0,16(s8)
a080b658:	a0620014 	sb	v0,20(v1)
a080b65c:	8fc20020 	lw	v0,32(s8)
a080b660:	24420001 	addiu	v0,v0,1
a080b664:	afc20020 	sw	v0,32(s8)
a080b668:	08202d66 	j	a080b598 <test_shell+0x44>
a080b66c:	00000000 	nop
a080b670:	8fc30020 	lw	v1,32(s8)
a080b674:	27c20010 	addiu	v0,s8,16
a080b678:	00431821 	addu	v1,v0,v1
a080b67c:	24020020 	li	v0,32
a080b680:	a0620014 	sb	v0,20(v1)
a080b684:	8fc20020 	lw	v0,32(s8)
a080b688:	24420001 	addiu	v0,v0,1
a080b68c:	afc20020 	sw	v0,32(s8)
a080b690:	8fc30020 	lw	v1,32(s8)
a080b694:	27c20010 	addiu	v0,s8,16
a080b698:	00431021 	addu	v0,v0,v1
a080b69c:	a0400014 	sb	zero,20(v0)
a080b6a0:	afc00018 	sw	zero,24(s8)
a080b6a4:	8fc30018 	lw	v1,24(s8)
a080b6a8:	27c20010 	addiu	v0,s8,16
a080b6ac:	00431021 	addu	v0,v0,v1
a080b6b0:	80430014 	lb	v1,20(v0)
a080b6b4:	24020020 	li	v0,32
a080b6b8:	14620012 	bne	v1,v0,a080b704 <test_shell+0x1b0>
a080b6bc:	00000000 	nop
a080b6c0:	08202db5 	j	a080b6d4 <test_shell+0x180>
a080b6c4:	00000000 	nop
a080b6c8:	8fc20018 	lw	v0,24(s8)
a080b6cc:	24420001 	addiu	v0,v0,1
a080b6d0:	afc20018 	sw	v0,24(s8)
a080b6d4:	8fc30018 	lw	v1,24(s8)
a080b6d8:	27c20010 	addiu	v0,s8,16
a080b6dc:	00431021 	addu	v0,v0,v1
a080b6e0:	80430014 	lb	v1,20(v0)
a080b6e4:	24020020 	li	v0,32
a080b6e8:	14620006 	bne	v1,v0,a080b704 <test_shell+0x1b0>
a080b6ec:	00000000 	nop
a080b6f0:	8fc20018 	lw	v0,24(s8)
a080b6f4:	8fc30020 	lw	v1,32(s8)
a080b6f8:	0043102a 	slt	v0,v0,v1
a080b6fc:	1440fff2 	bnez	v0,a080b6c8 <test_shell+0x174>
a080b700:	00000000 	nop
a080b704:	afc00014 	sw	zero,20(s8)
a080b708:	8fc20014 	lw	v0,20(s8)
a080b70c:	afc2001c 	sw	v0,28(s8)
a080b710:	08202dff 	j	a080b7fc <test_shell+0x2a8>
a080b714:	00000000 	nop
a080b718:	8fc30018 	lw	v1,24(s8)
a080b71c:	27c20010 	addiu	v0,s8,16
a080b720:	00431021 	addu	v0,v0,v1
a080b724:	80430014 	lb	v1,20(v0)
a080b728:	24020020 	li	v0,32
a080b72c:	1462001f 	bne	v1,v0,a080b7ac <test_shell+0x258>
a080b730:	00000000 	nop
a080b734:	8fc2001c 	lw	v0,28(s8)
a080b738:	8fc40014 	lw	a0,20(s8)
a080b73c:	00021840 	sll	v1,v0,0x1
a080b740:	00031080 	sll	v0,v1,0x2
a080b744:	00621021 	addu	v0,v1,v0
a080b748:	27c30010 	addiu	v1,s8,16
a080b74c:	00621021 	addu	v0,v1,v0
a080b750:	00441021 	addu	v0,v0,a0
a080b754:	a0400028 	sb	zero,40(v0)
a080b758:	8fc2001c 	lw	v0,28(s8)
a080b75c:	24420001 	addiu	v0,v0,1
a080b760:	afc2001c 	sw	v0,28(s8)
a080b764:	afc00014 	sw	zero,20(s8)
a080b768:	08202ddf 	j	a080b77c <test_shell+0x228>
a080b76c:	00000000 	nop
a080b770:	8fc20018 	lw	v0,24(s8)
a080b774:	24420001 	addiu	v0,v0,1
a080b778:	afc20018 	sw	v0,24(s8)
a080b77c:	8fc30018 	lw	v1,24(s8)
a080b780:	27c20010 	addiu	v0,s8,16
a080b784:	00431021 	addu	v0,v0,v1
a080b788:	80430014 	lb	v1,20(v0)
a080b78c:	24020020 	li	v0,32
a080b790:	14620006 	bne	v1,v0,a080b7ac <test_shell+0x258>
a080b794:	00000000 	nop
a080b798:	8fc20018 	lw	v0,24(s8)
a080b79c:	8fc30020 	lw	v1,32(s8)
a080b7a0:	0043102a 	slt	v0,v0,v1
a080b7a4:	1440fff2 	bnez	v0,a080b770 <test_shell+0x21c>
a080b7a8:	00000000 	nop
a080b7ac:	8fc4001c 	lw	a0,28(s8)
a080b7b0:	8fc60014 	lw	a2,20(s8)
a080b7b4:	8fc30018 	lw	v1,24(s8)
a080b7b8:	27c20010 	addiu	v0,s8,16
a080b7bc:	00431021 	addu	v0,v0,v1
a080b7c0:	80450014 	lb	a1,20(v0)
a080b7c4:	00801021 	move	v0,a0
a080b7c8:	00021840 	sll	v1,v0,0x1
a080b7cc:	00031080 	sll	v0,v1,0x2
a080b7d0:	00621021 	addu	v0,v1,v0
a080b7d4:	27c30010 	addiu	v1,s8,16
a080b7d8:	00621021 	addu	v0,v1,v0
a080b7dc:	00461021 	addu	v0,v0,a2
a080b7e0:	a0450028 	sb	a1,40(v0)
a080b7e4:	8fc20014 	lw	v0,20(s8)
a080b7e8:	24420001 	addiu	v0,v0,1
a080b7ec:	afc20014 	sw	v0,20(s8)
a080b7f0:	8fc20018 	lw	v0,24(s8)
a080b7f4:	24420001 	addiu	v0,v0,1
a080b7f8:	afc20018 	sw	v0,24(s8)
a080b7fc:	8fc20018 	lw	v0,24(s8)
a080b800:	8fc30020 	lw	v1,32(s8)
a080b804:	0043102a 	slt	v0,v0,v1
a080b808:	1440ffc3 	bnez	v0,a080b718 <test_shell+0x1c4>
a080b80c:	00000000 	nop
a080b810:	27c20038 	addiu	v0,s8,56
a080b814:	8fc4001c 	lw	a0,28(s8)
a080b818:	00402821 	move	a1,v0
a080b81c:	0c202c0d 	jal	a080b034 <execute>
a080b820:	00000000 	nop
a080b824:	3c02a081 	lui	v0,0xa081
a080b828:	2444ee94 	addiu	a0,v0,-4460
a080b82c:	0c202b2b 	jal	a080acac <printf>
a080b830:	00000000 	nop
a080b834:	afc00020 	sw	zero,32(s8)
a080b838:	08202e1f 	j	a080b87c <test_shell+0x328>
a080b83c:	00000000 	nop
a080b840:	3c02a081 	lui	v0,0xa081
a080b844:	24442a70 	addiu	a0,v0,10864
a080b848:	8fc20020 	lw	v0,32(s8)
a080b84c:	000218c0 	sll	v1,v0,0x3
a080b850:	00031080 	sll	v0,v1,0x2
a080b854:	00431023 	subu	v0,v0,v1
a080b858:	00821821 	addu	v1,a0,v0
a080b85c:	3c02a081 	lui	v0,0xa081
a080b860:	2444eea4 	addiu	a0,v0,-4444
a080b864:	00602821 	move	a1,v1
a080b868:	0c202b2b 	jal	a080acac <printf>
a080b86c:	00000000 	nop
a080b870:	8fc20020 	lw	v0,32(s8)
a080b874:	24420001 	addiu	v0,v0,1
a080b878:	afc20020 	sw	v0,32(s8)
a080b87c:	3c02a081 	lui	v0,0xa081
a080b880:	8c4300d0 	lw	v1,208(v0)
a080b884:	8fc20020 	lw	v0,32(s8)
a080b888:	0062102a 	slt	v0,v1,v0
a080b88c:	1040ffec 	beqz	v0,a080b840 <test_shell+0x2ec>
a080b890:	00000000 	nop
a080b894:	3c02a081 	lui	v0,0xa081
a080b898:	2444eea8 	addiu	a0,v0,-4440
a080b89c:	0c202b2b 	jal	a080acac <printf>
a080b8a0:	00000000 	nop
a080b8a4:	afc00020 	sw	zero,32(s8)
a080b8a8:	08202d66 	j	a080b598 <test_shell+0x44>
a080b8ac:	00000000 	nop

a080b8b0 <disable_interrupt>:
a080b8b0:	27bdffe0 	addiu	sp,sp,-32
a080b8b4:	afbf001c 	sw	ra,28(sp)
a080b8b8:	afbe0018 	sw	s8,24(sp)
a080b8bc:	03a0f021 	move	s8,sp
a080b8c0:	0c2000d3 	jal	a080034c <get_cp0_status>
a080b8c4:	00000000 	nop
a080b8c8:	afc20010 	sw	v0,16(s8)
a080b8cc:	8fc30010 	lw	v1,16(s8)
a080b8d0:	2402fffe 	li	v0,-2
a080b8d4:	00621024 	and	v0,v1,v0
a080b8d8:	afc20010 	sw	v0,16(s8)
a080b8dc:	8fc40010 	lw	a0,16(s8)
a080b8e0:	0c2000d6 	jal	a0800358 <set_cp0_status>
a080b8e4:	00000000 	nop
a080b8e8:	03c0e821 	move	sp,s8
a080b8ec:	8fbf001c 	lw	ra,28(sp)
a080b8f0:	8fbe0018 	lw	s8,24(sp)
a080b8f4:	27bd0020 	addiu	sp,sp,32
a080b8f8:	03e00008 	jr	ra
a080b8fc:	00000000 	nop

a080b900 <enable_interrupt>:
a080b900:	27bdffe0 	addiu	sp,sp,-32
a080b904:	afbf001c 	sw	ra,28(sp)
a080b908:	afbe0018 	sw	s8,24(sp)
a080b90c:	03a0f021 	move	s8,sp
a080b910:	0c2000d3 	jal	a080034c <get_cp0_status>
a080b914:	00000000 	nop
a080b918:	afc20010 	sw	v0,16(s8)
a080b91c:	8fc20010 	lw	v0,16(s8)
a080b920:	34420001 	ori	v0,v0,0x1
a080b924:	afc20010 	sw	v0,16(s8)
a080b928:	8fc40010 	lw	a0,16(s8)
a080b92c:	0c2000d6 	jal	a0800358 <set_cp0_status>
a080b930:	00000000 	nop
a080b934:	03c0e821 	move	sp,s8
a080b938:	8fbf001c 	lw	ra,28(sp)
a080b93c:	8fbe0018 	lw	s8,24(sp)
a080b940:	27bd0020 	addiu	sp,sp,32
a080b944:	03e00008 	jr	ra
a080b948:	00000000 	nop

a080b94c <printk_task1>:
a080b94c:	27bdffe0 	addiu	sp,sp,-32
a080b950:	afbf001c 	sw	ra,28(sp)
a080b954:	afbe0018 	sw	s8,24(sp)
a080b958:	03a0f021 	move	s8,sp
a080b95c:	24020001 	li	v0,1
a080b960:	afc20010 	sw	v0,16(s8)
a080b964:	afc00014 	sw	zero,20(s8)
a080b968:	0c202e2c 	jal	a080b8b0 <disable_interrupt>
a080b96c:	00000000 	nop
a080b970:	24040001 	li	a0,1
a080b974:	8fc50010 	lw	a1,16(s8)
a080b978:	0c2002cc 	jal	a0800b30 <vt100_move_cursor>
a080b97c:	00000000 	nop
a080b980:	3c02a081 	lui	v0,0xa081
a080b984:	2444eeb0 	addiu	a0,v0,-4432
a080b988:	8fc50014 	lw	a1,20(s8)
a080b98c:	0c202b09 	jal	a080ac24 <printk>
a080b990:	00000000 	nop
a080b994:	0c202e40 	jal	a080b900 <enable_interrupt>
a080b998:	00000000 	nop
a080b99c:	8fc20014 	lw	v0,20(s8)
a080b9a0:	24420001 	addiu	v0,v0,1
a080b9a4:	afc20014 	sw	v0,20(s8)
a080b9a8:	08202e5a 	j	a080b968 <printk_task1+0x1c>
a080b9ac:	00000000 	nop

a080b9b0 <printk_task2>:
a080b9b0:	27bdffe0 	addiu	sp,sp,-32
a080b9b4:	afbf001c 	sw	ra,28(sp)
a080b9b8:	afbe0018 	sw	s8,24(sp)
a080b9bc:	03a0f021 	move	s8,sp
a080b9c0:	24020002 	li	v0,2
a080b9c4:	afc20010 	sw	v0,16(s8)
a080b9c8:	afc00014 	sw	zero,20(s8)
a080b9cc:	0c202e2c 	jal	a080b8b0 <disable_interrupt>
a080b9d0:	00000000 	nop
a080b9d4:	24040001 	li	a0,1
a080b9d8:	8fc50010 	lw	a1,16(s8)
a080b9dc:	0c2002cc 	jal	a0800b30 <vt100_move_cursor>
a080b9e0:	00000000 	nop
a080b9e4:	3c02a081 	lui	v0,0xa081
a080b9e8:	2444eeb0 	addiu	a0,v0,-4432
a080b9ec:	8fc50014 	lw	a1,20(s8)
a080b9f0:	0c202b09 	jal	a080ac24 <printk>
a080b9f4:	00000000 	nop
a080b9f8:	0c202e40 	jal	a080b900 <enable_interrupt>
a080b9fc:	00000000 	nop
a080ba00:	8fc20014 	lw	v0,20(s8)
a080ba04:	24420001 	addiu	v0,v0,1
a080ba08:	afc20014 	sw	v0,20(s8)
a080ba0c:	08202e73 	j	a080b9cc <printk_task2+0x1c>
a080ba10:	00000000 	nop

a080ba14 <drawing_task1>:
a080ba14:	27bdffe0 	addiu	sp,sp,-32
a080ba18:	afbf001c 	sw	ra,28(sp)
a080ba1c:	afbe0018 	sw	s8,24(sp)
a080ba20:	03a0f021 	move	s8,sp
a080ba24:	24020016 	li	v0,22
a080ba28:	afc20010 	sw	v0,16(s8)
a080ba2c:	2402003c 	li	v0,60
a080ba30:	afc20014 	sw	v0,20(s8)
a080ba34:	08202ec4 	j	a080bb10 <drawing_task1+0xfc>
a080ba38:	00000000 	nop
a080ba3c:	0c202e2c 	jal	a080b8b0 <disable_interrupt>
a080ba40:	00000000 	nop
a080ba44:	8fc40014 	lw	a0,20(s8)
a080ba48:	8fc50010 	lw	a1,16(s8)
a080ba4c:	0c2002cc 	jal	a0800b30 <vt100_move_cursor>
a080ba50:	00000000 	nop
a080ba54:	3c02a081 	lui	v0,0xa081
a080ba58:	2444eee0 	addiu	a0,v0,-4384
a080ba5c:	3c02a081 	lui	v0,0xa081
a080ba60:	2445fab4 	addiu	a1,v0,-1356
a080ba64:	0c202b09 	jal	a080ac24 <printk>
a080ba68:	00000000 	nop
a080ba6c:	8fc20010 	lw	v0,16(s8)
a080ba70:	24420001 	addiu	v0,v0,1
a080ba74:	8fc40014 	lw	a0,20(s8)
a080ba78:	00402821 	move	a1,v0
a080ba7c:	0c2002cc 	jal	a0800b30 <vt100_move_cursor>
a080ba80:	00000000 	nop
a080ba84:	3c02a081 	lui	v0,0xa081
a080ba88:	2444eee0 	addiu	a0,v0,-4384
a080ba8c:	3c02a081 	lui	v0,0xa081
a080ba90:	2445fac8 	addiu	a1,v0,-1336
a080ba94:	0c202b09 	jal	a080ac24 <printk>
a080ba98:	00000000 	nop
a080ba9c:	8fc20010 	lw	v0,16(s8)
a080baa0:	24420002 	addiu	v0,v0,2
a080baa4:	8fc40014 	lw	a0,20(s8)
a080baa8:	00402821 	move	a1,v0
a080baac:	0c2002cc 	jal	a0800b30 <vt100_move_cursor>
a080bab0:	00000000 	nop
a080bab4:	3c02a081 	lui	v0,0xa081
a080bab8:	2444eee0 	addiu	a0,v0,-4384
a080babc:	3c02a081 	lui	v0,0xa081
a080bac0:	2445fadc 	addiu	a1,v0,-1316
a080bac4:	0c202b09 	jal	a080ac24 <printk>
a080bac8:	00000000 	nop
a080bacc:	8fc20010 	lw	v0,16(s8)
a080bad0:	24420003 	addiu	v0,v0,3
a080bad4:	8fc40014 	lw	a0,20(s8)
a080bad8:	00402821 	move	a1,v0
a080badc:	0c2002cc 	jal	a0800b30 <vt100_move_cursor>
a080bae0:	00000000 	nop
a080bae4:	3c02a081 	lui	v0,0xa081
a080bae8:	2444eee0 	addiu	a0,v0,-4384
a080baec:	3c02a081 	lui	v0,0xa081
a080baf0:	2445faf0 	addiu	a1,v0,-1296
a080baf4:	0c202b09 	jal	a080ac24 <printk>
a080baf8:	00000000 	nop
a080bafc:	0c202e40 	jal	a080b900 <enable_interrupt>
a080bb00:	00000000 	nop
a080bb04:	8fc20014 	lw	v0,20(s8)
a080bb08:	2442ffff 	addiu	v0,v0,-1
a080bb0c:	afc20014 	sw	v0,20(s8)
a080bb10:	8fc20014 	lw	v0,20(s8)
a080bb14:	1c40ffc9 	bgtz	v0,a080ba3c <drawing_task1+0x28>
a080bb18:	00000000 	nop
a080bb1c:	0c202e2c 	jal	a080b8b0 <disable_interrupt>
a080bb20:	00000000 	nop
a080bb24:	24040001 	li	a0,1
a080bb28:	8fc50010 	lw	a1,16(s8)
a080bb2c:	0c2002cc 	jal	a0800b30 <vt100_move_cursor>
a080bb30:	00000000 	nop
a080bb34:	3c02a081 	lui	v0,0xa081
a080bb38:	2444eee0 	addiu	a0,v0,-4384
a080bb3c:	3c02a081 	lui	v0,0xa081
a080bb40:	2445faa0 	addiu	a1,v0,-1376
a080bb44:	0c202b09 	jal	a080ac24 <printk>
a080bb48:	00000000 	nop
a080bb4c:	8fc20010 	lw	v0,16(s8)
a080bb50:	24420001 	addiu	v0,v0,1
a080bb54:	24040001 	li	a0,1
a080bb58:	00402821 	move	a1,v0
a080bb5c:	0c2002cc 	jal	a0800b30 <vt100_move_cursor>
a080bb60:	00000000 	nop
a080bb64:	3c02a081 	lui	v0,0xa081
a080bb68:	2444eee0 	addiu	a0,v0,-4384
a080bb6c:	3c02a081 	lui	v0,0xa081
a080bb70:	2445faa0 	addiu	a1,v0,-1376
a080bb74:	0c202b09 	jal	a080ac24 <printk>
a080bb78:	00000000 	nop
a080bb7c:	8fc20010 	lw	v0,16(s8)
a080bb80:	24420002 	addiu	v0,v0,2
a080bb84:	24040001 	li	a0,1
a080bb88:	00402821 	move	a1,v0
a080bb8c:	0c2002cc 	jal	a0800b30 <vt100_move_cursor>
a080bb90:	00000000 	nop
a080bb94:	3c02a081 	lui	v0,0xa081
a080bb98:	2444eee0 	addiu	a0,v0,-4384
a080bb9c:	3c02a081 	lui	v0,0xa081
a080bba0:	2445faa0 	addiu	a1,v0,-1376
a080bba4:	0c202b09 	jal	a080ac24 <printk>
a080bba8:	00000000 	nop
a080bbac:	8fc20010 	lw	v0,16(s8)
a080bbb0:	24420003 	addiu	v0,v0,3
a080bbb4:	24040001 	li	a0,1
a080bbb8:	00402821 	move	a1,v0
a080bbbc:	0c2002cc 	jal	a0800b30 <vt100_move_cursor>
a080bbc0:	00000000 	nop
a080bbc4:	3c02a081 	lui	v0,0xa081
a080bbc8:	2444eee0 	addiu	a0,v0,-4384
a080bbcc:	3c02a081 	lui	v0,0xa081
a080bbd0:	2445faa0 	addiu	a1,v0,-1376
a080bbd4:	0c202b09 	jal	a080ac24 <printk>
a080bbd8:	00000000 	nop
a080bbdc:	0c202e40 	jal	a080b900 <enable_interrupt>
a080bbe0:	00000000 	nop
a080bbe4:	08202e8b 	j	a080ba2c <drawing_task1+0x18>
a080bbe8:	00000000 	nop
a080bbec:	00000000 	nop

a080bbf0 <printf_task1>:
a080bbf0:	27bdffe0 	addiu	sp,sp,-32
a080bbf4:	afbf001c 	sw	ra,28(sp)
a080bbf8:	afbe0018 	sw	s8,24(sp)
a080bbfc:	03a0f021 	move	s8,sp
a080bc00:	24020001 	li	v0,1
a080bc04:	afc20010 	sw	v0,16(s8)
a080bc08:	afc00014 	sw	zero,20(s8)
a080bc0c:	24040001 	li	a0,1
a080bc10:	8fc50010 	lw	a1,16(s8)
a080bc14:	0c2022e7 	jal	a0808b9c <sys_move_cursor>
a080bc18:	00000000 	nop
a080bc1c:	3c02a081 	lui	v0,0xa081
a080bc20:	2444eef0 	addiu	a0,v0,-4368
a080bc24:	8fc50014 	lw	a1,20(s8)
a080bc28:	0c202b2b 	jal	a080acac <printf>
a080bc2c:	00000000 	nop
a080bc30:	8fc20014 	lw	v0,20(s8)
a080bc34:	24420001 	addiu	v0,v0,1
a080bc38:	afc20014 	sw	v0,20(s8)
a080bc3c:	08202f03 	j	a080bc0c <printf_task1+0x1c>
a080bc40:	00000000 	nop

a080bc44 <printf_task2>:
a080bc44:	27bdffe0 	addiu	sp,sp,-32
a080bc48:	afbf001c 	sw	ra,28(sp)
a080bc4c:	afbe0018 	sw	s8,24(sp)
a080bc50:	03a0f021 	move	s8,sp
a080bc54:	24020002 	li	v0,2
a080bc58:	afc20010 	sw	v0,16(s8)
a080bc5c:	afc00014 	sw	zero,20(s8)
a080bc60:	24040001 	li	a0,1
a080bc64:	8fc50010 	lw	a1,16(s8)
a080bc68:	0c2022e7 	jal	a0808b9c <sys_move_cursor>
a080bc6c:	00000000 	nop
a080bc70:	3c02a081 	lui	v0,0xa081
a080bc74:	2444eef0 	addiu	a0,v0,-4368
a080bc78:	8fc50014 	lw	a1,20(s8)
a080bc7c:	0c202b2b 	jal	a080acac <printf>
a080bc80:	00000000 	nop
a080bc84:	8fc20014 	lw	v0,20(s8)
a080bc88:	24420001 	addiu	v0,v0,1
a080bc8c:	afc20014 	sw	v0,20(s8)
a080bc90:	08202f18 	j	a080bc60 <printf_task2+0x1c>
a080bc94:	00000000 	nop

a080bc98 <drawing_task2>:
a080bc98:	27bdffe0 	addiu	sp,sp,-32
a080bc9c:	afbf001c 	sw	ra,28(sp)
a080bca0:	afbe0018 	sw	s8,24(sp)
a080bca4:	03a0f021 	move	s8,sp
a080bca8:	24020016 	li	v0,22
a080bcac:	afc20010 	sw	v0,16(s8)
a080bcb0:	24020037 	li	v0,55
a080bcb4:	afc20014 	sw	v0,20(s8)
a080bcb8:	08202f61 	j	a080bd84 <drawing_task2+0xec>
a080bcbc:	00000000 	nop
a080bcc0:	8fc40014 	lw	a0,20(s8)
a080bcc4:	8fc50010 	lw	a1,16(s8)
a080bcc8:	0c2022e7 	jal	a0808b9c <sys_move_cursor>
a080bccc:	00000000 	nop
a080bcd0:	3c02a081 	lui	v0,0xa081
a080bcd4:	2444ef20 	addiu	a0,v0,-4320
a080bcd8:	3c02a081 	lui	v0,0xa081
a080bcdc:	2445fb28 	addiu	a1,v0,-1240
a080bce0:	0c202b2b 	jal	a080acac <printf>
a080bce4:	00000000 	nop
a080bce8:	8fc20010 	lw	v0,16(s8)
a080bcec:	24420001 	addiu	v0,v0,1
a080bcf0:	8fc40014 	lw	a0,20(s8)
a080bcf4:	00402821 	move	a1,v0
a080bcf8:	0c2022e7 	jal	a0808b9c <sys_move_cursor>
a080bcfc:	00000000 	nop
a080bd00:	3c02a081 	lui	v0,0xa081
a080bd04:	2444ef20 	addiu	a0,v0,-4320
a080bd08:	3c02a081 	lui	v0,0xa081
a080bd0c:	2445fb40 	addiu	a1,v0,-1216
a080bd10:	0c202b2b 	jal	a080acac <printf>
a080bd14:	00000000 	nop
a080bd18:	8fc20010 	lw	v0,16(s8)
a080bd1c:	24420002 	addiu	v0,v0,2
a080bd20:	8fc40014 	lw	a0,20(s8)
a080bd24:	00402821 	move	a1,v0
a080bd28:	0c2022e7 	jal	a0808b9c <sys_move_cursor>
a080bd2c:	00000000 	nop
a080bd30:	3c02a081 	lui	v0,0xa081
a080bd34:	2444ef20 	addiu	a0,v0,-4320
a080bd38:	3c02a081 	lui	v0,0xa081
a080bd3c:	2445fb54 	addiu	a1,v0,-1196
a080bd40:	0c202b2b 	jal	a080acac <printf>
a080bd44:	00000000 	nop
a080bd48:	8fc20010 	lw	v0,16(s8)
a080bd4c:	24420003 	addiu	v0,v0,3
a080bd50:	8fc40014 	lw	a0,20(s8)
a080bd54:	00402821 	move	a1,v0
a080bd58:	0c2022e7 	jal	a0808b9c <sys_move_cursor>
a080bd5c:	00000000 	nop
a080bd60:	3c02a081 	lui	v0,0xa081
a080bd64:	2444ef20 	addiu	a0,v0,-4320
a080bd68:	3c02a081 	lui	v0,0xa081
a080bd6c:	2445fb68 	addiu	a1,v0,-1176
a080bd70:	0c202b2b 	jal	a080acac <printf>
a080bd74:	00000000 	nop
a080bd78:	8fc20014 	lw	v0,20(s8)
a080bd7c:	2442ffff 	addiu	v0,v0,-1
a080bd80:	afc20014 	sw	v0,20(s8)
a080bd84:	8fc20014 	lw	v0,20(s8)
a080bd88:	1c40ffcd 	bgtz	v0,a080bcc0 <drawing_task2+0x28>
a080bd8c:	00000000 	nop
a080bd90:	24040001 	li	a0,1
a080bd94:	8fc50010 	lw	a1,16(s8)
a080bd98:	0c2022e7 	jal	a0808b9c <sys_move_cursor>
a080bd9c:	00000000 	nop
a080bda0:	3c02a081 	lui	v0,0xa081
a080bda4:	2444ef20 	addiu	a0,v0,-4320
a080bda8:	3c02a081 	lui	v0,0xa081
a080bdac:	2445fb10 	addiu	a1,v0,-1264
a080bdb0:	0c202b2b 	jal	a080acac <printf>
a080bdb4:	00000000 	nop
a080bdb8:	8fc20010 	lw	v0,16(s8)
a080bdbc:	24420001 	addiu	v0,v0,1
a080bdc0:	24040001 	li	a0,1
a080bdc4:	00402821 	move	a1,v0
a080bdc8:	0c2022e7 	jal	a0808b9c <sys_move_cursor>
a080bdcc:	00000000 	nop
a080bdd0:	3c02a081 	lui	v0,0xa081
a080bdd4:	2444ef20 	addiu	a0,v0,-4320
a080bdd8:	3c02a081 	lui	v0,0xa081
a080bddc:	2445fb10 	addiu	a1,v0,-1264
a080bde0:	0c202b2b 	jal	a080acac <printf>
a080bde4:	00000000 	nop
a080bde8:	8fc20010 	lw	v0,16(s8)
a080bdec:	24420002 	addiu	v0,v0,2
a080bdf0:	24040001 	li	a0,1
a080bdf4:	00402821 	move	a1,v0
a080bdf8:	0c2022e7 	jal	a0808b9c <sys_move_cursor>
a080bdfc:	00000000 	nop
a080be00:	3c02a081 	lui	v0,0xa081
a080be04:	2444ef20 	addiu	a0,v0,-4320
a080be08:	3c02a081 	lui	v0,0xa081
a080be0c:	2445fb10 	addiu	a1,v0,-1264
a080be10:	0c202b2b 	jal	a080acac <printf>
a080be14:	00000000 	nop
a080be18:	8fc20010 	lw	v0,16(s8)
a080be1c:	24420003 	addiu	v0,v0,3
a080be20:	24040001 	li	a0,1
a080be24:	00402821 	move	a1,v0
a080be28:	0c2022e7 	jal	a0808b9c <sys_move_cursor>
a080be2c:	00000000 	nop
a080be30:	3c02a081 	lui	v0,0xa081
a080be34:	2444ef20 	addiu	a0,v0,-4320
a080be38:	3c02a081 	lui	v0,0xa081
a080be3c:	2445fb10 	addiu	a1,v0,-1264
a080be40:	0c202b2b 	jal	a080acac <printf>
a080be44:	00000000 	nop
a080be48:	08202f2c 	j	a080bcb0 <drawing_task2+0x18>
a080be4c:	00000000 	nop

a080be50 <lock_task1>:
a080be50:	27bdffe0 	addiu	sp,sp,-32
a080be54:	afbf001c 	sw	ra,28(sp)
a080be58:	afbe0018 	sw	s8,24(sp)
a080be5c:	03a0f021 	move	s8,sp
a080be60:	24020003 	li	v0,3
a080be64:	afc20014 	sw	v0,20(s8)
a080be68:	3c02a081 	lui	v0,0xa081
a080be6c:	8c4229c0 	lw	v0,10688(v0)
a080be70:	14400008 	bnez	v0,a080be94 <lock_task1+0x44>
a080be74:	00000000 	nop
a080be78:	3c02a081 	lui	v0,0xa081
a080be7c:	24445c30 	addiu	a0,v0,23600
a080be80:	0c20237d 	jal	a0808df4 <mutex_lock_init>
a080be84:	00000000 	nop
a080be88:	3c03a081 	lui	v1,0xa081
a080be8c:	24020001 	li	v0,1
a080be90:	ac6229c0 	sw	v0,10688(v1)
a080be94:	24040001 	li	a0,1
a080be98:	8fc50014 	lw	a1,20(s8)
a080be9c:	0c2022e7 	jal	a0808b9c <sys_move_cursor>
a080bea0:	00000000 	nop
a080bea4:	3c02a081 	lui	v0,0xa081
a080bea8:	2444ef30 	addiu	a0,v0,-4304
a080beac:	3c02a081 	lui	v0,0xa081
a080beb0:	2445fb80 	addiu	a1,v0,-1152
a080beb4:	0c202b2b 	jal	a080acac <printf>
a080beb8:	00000000 	nop
a080bebc:	24040001 	li	a0,1
a080bec0:	8fc50014 	lw	a1,20(s8)
a080bec4:	0c2022e7 	jal	a0808b9c <sys_move_cursor>
a080bec8:	00000000 	nop
a080becc:	3c02a081 	lui	v0,0xa081
a080bed0:	2444ef34 	addiu	a0,v0,-4300
a080bed4:	0c202b2b 	jal	a080acac <printf>
a080bed8:	00000000 	nop
a080bedc:	3c02a081 	lui	v0,0xa081
a080bee0:	24445c30 	addiu	a0,v0,23600
a080bee4:	0c20238f 	jal	a0808e3c <mutex_lock_acquire>
a080bee8:	00000000 	nop
a080beec:	afc00010 	sw	zero,16(s8)
a080bef0:	08202fca 	j	a080bf28 <lock_task1+0xd8>
a080bef4:	00000000 	nop
a080bef8:	24040001 	li	a0,1
a080befc:	8fc50014 	lw	a1,20(s8)
a080bf00:	0c2022e7 	jal	a0808b9c <sys_move_cursor>
a080bf04:	00000000 	nop
a080bf08:	3c02a081 	lui	v0,0xa081
a080bf0c:	2444ef54 	addiu	a0,v0,-4268
a080bf10:	8fc50010 	lw	a1,16(s8)
a080bf14:	0c202b2b 	jal	a080acac <printf>
a080bf18:	00000000 	nop
a080bf1c:	8fc20010 	lw	v0,16(s8)
a080bf20:	24420001 	addiu	v0,v0,1
a080bf24:	afc20010 	sw	v0,16(s8)
a080bf28:	8fc20010 	lw	v0,16(s8)
a080bf2c:	28420014 	slti	v0,v0,20
a080bf30:	1440fff1 	bnez	v0,a080bef8 <lock_task1+0xa8>
a080bf34:	00000000 	nop
a080bf38:	24040001 	li	a0,1
a080bf3c:	8fc50014 	lw	a1,20(s8)
a080bf40:	0c2022e7 	jal	a0808b9c <sys_move_cursor>
a080bf44:	00000000 	nop
a080bf48:	3c02a081 	lui	v0,0xa081
a080bf4c:	2444ef30 	addiu	a0,v0,-4304
a080bf50:	3c02a081 	lui	v0,0xa081
a080bf54:	2445fb80 	addiu	a1,v0,-1152
a080bf58:	0c202b2b 	jal	a080acac <printf>
a080bf5c:	00000000 	nop
a080bf60:	24040001 	li	a0,1
a080bf64:	8fc50014 	lw	a1,20(s8)
a080bf68:	0c2022e7 	jal	a0808b9c <sys_move_cursor>
a080bf6c:	00000000 	nop
a080bf70:	3c02a081 	lui	v0,0xa081
a080bf74:	2444ef84 	addiu	a0,v0,-4220
a080bf78:	0c202b2b 	jal	a080acac <printf>
a080bf7c:	00000000 	nop
a080bf80:	3c02a081 	lui	v0,0xa081
a080bf84:	24445c30 	addiu	a0,v0,23600
a080bf88:	0c2023a1 	jal	a0808e84 <mutex_lock_release>
a080bf8c:	00000000 	nop
a080bf90:	08202f9a 	j	a080be68 <lock_task1+0x18>
a080bf94:	00000000 	nop

a080bf98 <lock_task2>:
a080bf98:	27bdffe0 	addiu	sp,sp,-32
a080bf9c:	afbf001c 	sw	ra,28(sp)
a080bfa0:	afbe0018 	sw	s8,24(sp)
a080bfa4:	03a0f021 	move	s8,sp
a080bfa8:	24020004 	li	v0,4
a080bfac:	afc20014 	sw	v0,20(s8)
a080bfb0:	3c02a081 	lui	v0,0xa081
a080bfb4:	8c4229c0 	lw	v0,10688(v0)
a080bfb8:	14400008 	bnez	v0,a080bfdc <lock_task2+0x44>
a080bfbc:	00000000 	nop
a080bfc0:	3c02a081 	lui	v0,0xa081
a080bfc4:	24445c30 	addiu	a0,v0,23600
a080bfc8:	0c20237d 	jal	a0808df4 <mutex_lock_init>
a080bfcc:	00000000 	nop
a080bfd0:	3c03a081 	lui	v1,0xa081
a080bfd4:	24020001 	li	v0,1
a080bfd8:	ac6229c0 	sw	v0,10688(v1)
a080bfdc:	24040001 	li	a0,1
a080bfe0:	8fc50014 	lw	a1,20(s8)
a080bfe4:	0c2022e7 	jal	a0808b9c <sys_move_cursor>
a080bfe8:	00000000 	nop
a080bfec:	3c02a081 	lui	v0,0xa081
a080bff0:	2444ef30 	addiu	a0,v0,-4304
a080bff4:	3c02a081 	lui	v0,0xa081
a080bff8:	2445fb80 	addiu	a1,v0,-1152
a080bffc:	0c202b2b 	jal	a080acac <printf>
a080c000:	00000000 	nop
a080c004:	24040001 	li	a0,1
a080c008:	8fc50014 	lw	a1,20(s8)
a080c00c:	0c2022e7 	jal	a0808b9c <sys_move_cursor>
a080c010:	00000000 	nop
a080c014:	3c02a081 	lui	v0,0xa081
a080c018:	2444ef34 	addiu	a0,v0,-4300
a080c01c:	0c202b2b 	jal	a080acac <printf>
a080c020:	00000000 	nop
a080c024:	3c02a081 	lui	v0,0xa081
a080c028:	24445c30 	addiu	a0,v0,23600
a080c02c:	0c20238f 	jal	a0808e3c <mutex_lock_acquire>
a080c030:	00000000 	nop
a080c034:	afc00010 	sw	zero,16(s8)
a080c038:	0820301c 	j	a080c070 <lock_task2+0xd8>
a080c03c:	00000000 	nop
a080c040:	24040001 	li	a0,1
a080c044:	8fc50014 	lw	a1,20(s8)
a080c048:	0c2022e7 	jal	a0808b9c <sys_move_cursor>
a080c04c:	00000000 	nop
a080c050:	3c02a081 	lui	v0,0xa081
a080c054:	2444ef54 	addiu	a0,v0,-4268
a080c058:	8fc50010 	lw	a1,16(s8)
a080c05c:	0c202b2b 	jal	a080acac <printf>
a080c060:	00000000 	nop
a080c064:	8fc20010 	lw	v0,16(s8)
a080c068:	24420001 	addiu	v0,v0,1
a080c06c:	afc20010 	sw	v0,16(s8)
a080c070:	8fc20010 	lw	v0,16(s8)
a080c074:	28420014 	slti	v0,v0,20
a080c078:	1440fff1 	bnez	v0,a080c040 <lock_task2+0xa8>
a080c07c:	00000000 	nop
a080c080:	24040001 	li	a0,1
a080c084:	8fc50014 	lw	a1,20(s8)
a080c088:	0c2022e7 	jal	a0808b9c <sys_move_cursor>
a080c08c:	00000000 	nop
a080c090:	3c02a081 	lui	v0,0xa081
a080c094:	2444ef30 	addiu	a0,v0,-4304
a080c098:	3c02a081 	lui	v0,0xa081
a080c09c:	2445fb80 	addiu	a1,v0,-1152
a080c0a0:	0c202b2b 	jal	a080acac <printf>
a080c0a4:	00000000 	nop
a080c0a8:	24040001 	li	a0,1
a080c0ac:	8fc50014 	lw	a1,20(s8)
a080c0b0:	0c2022e7 	jal	a0808b9c <sys_move_cursor>
a080c0b4:	00000000 	nop
a080c0b8:	3c02a081 	lui	v0,0xa081
a080c0bc:	2444ef84 	addiu	a0,v0,-4220
a080c0c0:	0c202b2b 	jal	a080acac <printf>
a080c0c4:	00000000 	nop
a080c0c8:	3c02a081 	lui	v0,0xa081
a080c0cc:	24445c30 	addiu	a0,v0,23600
a080c0d0:	0c2023a1 	jal	a0808e84 <mutex_lock_release>
a080c0d4:	00000000 	nop
a080c0d8:	08202fec 	j	a080bfb0 <lock_task2+0x18>
a080c0dc:	00000000 	nop

a080c0e0 <sleep_task>:
a080c0e0:	27bdffd8 	addiu	sp,sp,-40
a080c0e4:	afbf0024 	sw	ra,36(sp)
a080c0e8:	afbe0020 	sw	s8,32(sp)
a080c0ec:	03a0f021 	move	s8,sp
a080c0f0:	24020005 	li	v0,5
a080c0f4:	afc20014 	sw	v0,20(s8)
a080c0f8:	24020005 	li	v0,5
a080c0fc:	afc20010 	sw	v0,16(s8)
a080c100:	afc00018 	sw	zero,24(s8)
a080c104:	0820304f 	j	a080c13c <sleep_task+0x5c>
a080c108:	00000000 	nop
a080c10c:	24040001 	li	a0,1
a080c110:	8fc50014 	lw	a1,20(s8)
a080c114:	0c2022e7 	jal	a0808b9c <sys_move_cursor>
a080c118:	00000000 	nop
a080c11c:	3c02a081 	lui	v0,0xa081
a080c120:	2444efb0 	addiu	a0,v0,-4176
a080c124:	8fc50018 	lw	a1,24(s8)
a080c128:	0c202b2b 	jal	a080acac <printf>
a080c12c:	00000000 	nop
a080c130:	8fc20018 	lw	v0,24(s8)
a080c134:	24420001 	addiu	v0,v0,1
a080c138:	afc20018 	sw	v0,24(s8)
a080c13c:	8fc20018 	lw	v0,24(s8)
a080c140:	28420014 	slti	v0,v0,20
a080c144:	1440fff1 	bnez	v0,a080c10c <sleep_task+0x2c>
a080c148:	00000000 	nop
a080c14c:	24040001 	li	a0,1
a080c150:	8fc50014 	lw	a1,20(s8)
a080c154:	0c2022e7 	jal	a0808b9c <sys_move_cursor>
a080c158:	00000000 	nop
a080c15c:	3c02a081 	lui	v0,0xa081
a080c160:	2444efe0 	addiu	a0,v0,-4128
a080c164:	8fc50010 	lw	a1,16(s8)
a080c168:	0c202b2b 	jal	a080acac <printf>
a080c16c:	00000000 	nop
a080c170:	8fc20010 	lw	v0,16(s8)
a080c174:	00402021 	move	a0,v0
a080c178:	0c20227d 	jal	a08089f4 <sys_sleep>
a080c17c:	00000000 	nop
a080c180:	24040001 	li	a0,1
a080c184:	8fc50014 	lw	a1,20(s8)
a080c188:	0c2022e7 	jal	a0808b9c <sys_move_cursor>
a080c18c:	00000000 	nop
a080c190:	3c02a081 	lui	v0,0xa081
a080c194:	2444f014 	addiu	a0,v0,-4076
a080c198:	3c02a081 	lui	v0,0xa081
a080c19c:	2445fbb0 	addiu	a1,v0,-1104
a080c1a0:	0c202b2b 	jal	a080acac <printf>
a080c1a4:	00000000 	nop
a080c1a8:	08203040 	j	a080c100 <sleep_task+0x20>
a080c1ac:	00000000 	nop

a080c1b0 <timer_task>:
a080c1b0:	27bdffd8 	addiu	sp,sp,-40
a080c1b4:	afbf0024 	sw	ra,36(sp)
a080c1b8:	afbe0020 	sw	s8,32(sp)
a080c1bc:	03a0f021 	move	s8,sp
a080c1c0:	afc00018 	sw	zero,24(s8)
a080c1c4:	24020006 	li	v0,6
a080c1c8:	afc20014 	sw	v0,20(s8)
a080c1cc:	0c202232 	jal	a08088c8 <get_timer>
a080c1d0:	00000000 	nop
a080c1d4:	afc20010 	sw	v0,16(s8)
a080c1d8:	24040001 	li	a0,1
a080c1dc:	8fc50014 	lw	a1,20(s8)
a080c1e0:	0c2022e7 	jal	a0808b9c <sys_move_cursor>
a080c1e4:	00000000 	nop
a080c1e8:	3c02a081 	lui	v0,0xa081
a080c1ec:	8c431420 	lw	v1,5152(v0)
a080c1f0:	3c02a081 	lui	v0,0xa081
a080c1f4:	2444f020 	addiu	a0,v0,-4064
a080c1f8:	8fc50010 	lw	a1,16(s8)
a080c1fc:	00603021 	move	a2,v1
a080c200:	0c202b2b 	jal	a080acac <printf>
a080c204:	00000000 	nop
a080c208:	08203073 	j	a080c1cc <timer_task+0x1c>
a080c20c:	00000000 	nop

a080c210 <ready_to_exit_task>:
a080c210:	27bdffe0 	addiu	sp,sp,-32
a080c214:	afbf001c 	sw	ra,28(sp)
a080c218:	afbe0018 	sw	s8,24(sp)
a080c21c:	03a0f021 	move	s8,sp
a080c220:	afc00014 	sw	zero,20(s8)
a080c224:	afc00010 	sw	zero,16(s8)
a080c228:	3c02a081 	lui	v0,0xa081
a080c22c:	8c4229d0 	lw	v0,10704(v0)
a080c230:	1440000c 	bnez	v0,a080c264 <ready_to_exit_task+0x54>
a080c234:	00000000 	nop
a080c238:	3c02a081 	lui	v0,0xa081
a080c23c:	24445c3c 	addiu	a0,v0,23612
a080c240:	0c20237d 	jal	a0808df4 <mutex_lock_init>
a080c244:	00000000 	nop
a080c248:	3c02a081 	lui	v0,0xa081
a080c24c:	24445c48 	addiu	a0,v0,23624
a080c250:	0c20237d 	jal	a0808df4 <mutex_lock_init>
a080c254:	00000000 	nop
a080c258:	3c03a081 	lui	v1,0xa081
a080c25c:	24020001 	li	v0,1
a080c260:	ac6229d0 	sw	v0,10704(v1)
a080c264:	3c02a081 	lui	v0,0xa081
a080c268:	24445c3c 	addiu	a0,v0,23612
a080c26c:	0c20238f 	jal	a0808e3c <mutex_lock_acquire>
a080c270:	00000000 	nop
a080c274:	3c02a081 	lui	v0,0xa081
a080c278:	24445c48 	addiu	a0,v0,23624
a080c27c:	0c20238f 	jal	a0808e3c <mutex_lock_acquire>
a080c280:	00000000 	nop
a080c284:	afc00014 	sw	zero,20(s8)
a080c288:	082030b7 	j	a080c2dc <ready_to_exit_task+0xcc>
a080c28c:	00000000 	nop
a080c290:	00002021 	move	a0,zero
a080c294:	8fc50010 	lw	a1,16(s8)
a080c298:	0c2022e7 	jal	a0808b9c <sys_move_cursor>
a080c29c:	00000000 	nop
a080c2a0:	3c02a081 	lui	v0,0xa081
a080c2a4:	8c420100 	lw	v0,256(v0)
a080c2a8:	8c43018c 	lw	v1,396(v0)
a080c2ac:	8fc60014 	lw	a2,20(s8)
a080c2b0:	8fc20014 	lw	v0,20(s8)
a080c2b4:	24420001 	addiu	v0,v0,1
a080c2b8:	afc20014 	sw	v0,20(s8)
a080c2bc:	3c02a081 	lui	v0,0xa081
a080c2c0:	2444f060 	addiu	a0,v0,-4000
a080c2c4:	00602821 	move	a1,v1
a080c2c8:	0c202b2b 	jal	a080acac <printf>
a080c2cc:	00000000 	nop
a080c2d0:	8fc20014 	lw	v0,20(s8)
a080c2d4:	24420001 	addiu	v0,v0,1
a080c2d8:	afc20014 	sw	v0,20(s8)
a080c2dc:	8fc20014 	lw	v0,20(s8)
a080c2e0:	284201f4 	slti	v0,v0,500
a080c2e4:	1440ffea 	bnez	v0,a080c290 <ready_to_exit_task+0x80>
a080c2e8:	00000000 	nop
a080c2ec:	0c20235c 	jal	a0808d70 <sys_exit>
a080c2f0:	00000000 	nop
a080c2f4:	03c0e821 	move	sp,s8
a080c2f8:	8fbf001c 	lw	ra,28(sp)
a080c2fc:	8fbe0018 	lw	s8,24(sp)
a080c300:	27bd0020 	addiu	sp,sp,32
a080c304:	03e00008 	jr	ra
a080c308:	00000000 	nop

a080c30c <wait_lock_task>:
a080c30c:	27bdffe0 	addiu	sp,sp,-32
a080c310:	afbf001c 	sw	ra,28(sp)
a080c314:	afbe0018 	sw	s8,24(sp)
a080c318:	03a0f021 	move	s8,sp
a080c31c:	24020001 	li	v0,1
a080c320:	afc20010 	sw	v0,16(s8)
a080c324:	3c02a081 	lui	v0,0xa081
a080c328:	8c4229d0 	lw	v0,10704(v0)
a080c32c:	1440000c 	bnez	v0,a080c360 <wait_lock_task+0x54>
a080c330:	00000000 	nop
a080c334:	3c02a081 	lui	v0,0xa081
a080c338:	24445c3c 	addiu	a0,v0,23612
a080c33c:	0c20237d 	jal	a0808df4 <mutex_lock_init>
a080c340:	00000000 	nop
a080c344:	3c02a081 	lui	v0,0xa081
a080c348:	24445c48 	addiu	a0,v0,23624
a080c34c:	0c20237d 	jal	a0808df4 <mutex_lock_init>
a080c350:	00000000 	nop
a080c354:	3c03a081 	lui	v1,0xa081
a080c358:	24020001 	li	v0,1
a080c35c:	ac6229d0 	sw	v0,10704(v1)
a080c360:	00002021 	move	a0,zero
a080c364:	8fc50010 	lw	a1,16(s8)
a080c368:	0c2022e7 	jal	a0808b9c <sys_move_cursor>
a080c36c:	00000000 	nop
a080c370:	3c02a081 	lui	v0,0xa081
a080c374:	2444f0a8 	addiu	a0,v0,-3928
a080c378:	0c202b2b 	jal	a080acac <printf>
a080c37c:	00000000 	nop
a080c380:	3c02a081 	lui	v0,0xa081
a080c384:	24445c3c 	addiu	a0,v0,23612
a080c388:	0c20238f 	jal	a0808e3c <mutex_lock_acquire>
a080c38c:	00000000 	nop
a080c390:	00002021 	move	a0,zero
a080c394:	8fc50010 	lw	a1,16(s8)
a080c398:	0c2022e7 	jal	a0808b9c <sys_move_cursor>
a080c39c:	00000000 	nop
a080c3a0:	3c02a081 	lui	v0,0xa081
a080c3a4:	2444f0e4 	addiu	a0,v0,-3868
a080c3a8:	0c202b2b 	jal	a080acac <printf>
a080c3ac:	00000000 	nop
a080c3b0:	0c20235c 	jal	a0808d70 <sys_exit>
a080c3b4:	00000000 	nop
a080c3b8:	03c0e821 	move	sp,s8
a080c3bc:	8fbf001c 	lw	ra,28(sp)
a080c3c0:	8fbe0018 	lw	s8,24(sp)
a080c3c4:	27bd0020 	addiu	sp,sp,32
a080c3c8:	03e00008 	jr	ra
a080c3cc:	00000000 	nop

a080c3d0 <wait_exit_task>:
a080c3d0:	27bdffe0 	addiu	sp,sp,-32
a080c3d4:	afbf001c 	sw	ra,28(sp)
a080c3d8:	afbe0018 	sw	s8,24(sp)
a080c3dc:	03a0f021 	move	s8,sp
a080c3e0:	24020002 	li	v0,2
a080c3e4:	afc20010 	sw	v0,16(s8)
a080c3e8:	3c02a081 	lui	v0,0xa081
a080c3ec:	8c4229d0 	lw	v0,10704(v0)
a080c3f0:	1440000c 	bnez	v0,a080c424 <wait_exit_task+0x54>
a080c3f4:	00000000 	nop
a080c3f8:	3c02a081 	lui	v0,0xa081
a080c3fc:	24445c3c 	addiu	a0,v0,23612
a080c400:	0c20237d 	jal	a0808df4 <mutex_lock_init>
a080c404:	00000000 	nop
a080c408:	3c02a081 	lui	v0,0xa081
a080c40c:	24445c48 	addiu	a0,v0,23624
a080c410:	0c20237d 	jal	a0808df4 <mutex_lock_init>
a080c414:	00000000 	nop
a080c418:	3c03a081 	lui	v1,0xa081
a080c41c:	24020001 	li	v0,1
a080c420:	ac6229d0 	sw	v0,10704(v1)
a080c424:	00002021 	move	a0,zero
a080c428:	8fc50010 	lw	a1,16(s8)
a080c42c:	0c2022e7 	jal	a0808b9c <sys_move_cursor>
a080c430:	00000000 	nop
a080c434:	3c02a081 	lui	v0,0xa081
a080c438:	2444f11c 	addiu	a0,v0,-3812
a080c43c:	0c202b2b 	jal	a080acac <printf>
a080c440:	00000000 	nop
a080c444:	24040002 	li	a0,2
a080c448:	0c20236c 	jal	a0808db0 <sys_waitpid>
a080c44c:	00000000 	nop
a080c450:	00002021 	move	a0,zero
a080c454:	8fc50010 	lw	a1,16(s8)
a080c458:	0c2022e7 	jal	a0808b9c <sys_move_cursor>
a080c45c:	00000000 	nop
a080c460:	3c02a081 	lui	v0,0xa081
a080c464:	2444f14c 	addiu	a0,v0,-3764
a080c468:	0c202b2b 	jal	a080acac <printf>
a080c46c:	00000000 	nop
a080c470:	0c20235c 	jal	a0808d70 <sys_exit>
a080c474:	00000000 	nop
a080c478:	03c0e821 	move	sp,s8
a080c47c:	8fbf001c 	lw	ra,28(sp)
a080c480:	8fbe0018 	lw	s8,24(sp)
a080c484:	27bd0020 	addiu	sp,sp,32
a080c488:	03e00008 	jr	ra
a080c48c:	00000000 	nop

a080c490 <barrier_task1>:
a080c490:	27bdffe0 	addiu	sp,sp,-32
a080c494:	afbf001c 	sw	ra,28(sp)
a080c498:	afbe0018 	sw	s8,24(sp)
a080c49c:	03a0f021 	move	s8,sp
a080c4a0:	afc00010 	sw	zero,16(s8)
a080c4a4:	3c02a081 	lui	v0,0xa081
a080c4a8:	8c4229e0 	lw	v0,10720(v0)
a080c4ac:	1440000b 	bnez	v0,a080c4dc <barrier_task1+0x4c>
a080c4b0:	00000000 	nop
a080c4b4:	3c03a081 	lui	v1,0xa081
a080c4b8:	24020001 	li	v0,1
a080c4bc:	ac6229e0 	sw	v0,10720(v1)
a080c4c0:	3c02a081 	lui	v0,0xa081
a080c4c4:	8c43fc30 	lw	v1,-976(v0)
a080c4c8:	3c02a081 	lui	v0,0xa081
a080c4cc:	244429e4 	addiu	a0,v0,10724
a080c4d0:	00602821 	move	a1,v1
a080c4d4:	0c2023b3 	jal	a0808ecc <barrier_init>
a080c4d8:	00000000 	nop
a080c4dc:	afc00014 	sw	zero,20(s8)
a080c4e0:	00002021 	move	a0,zero
a080c4e4:	8fc50010 	lw	a1,16(s8)
a080c4e8:	0c2022e7 	jal	a0808b9c <sys_move_cursor>
a080c4ec:	00000000 	nop
a080c4f0:	3c02a081 	lui	v0,0xa081
a080c4f4:	2444f180 	addiu	a0,v0,-3712
a080c4f8:	8fc50014 	lw	a1,20(s8)
a080c4fc:	0c202b2b 	jal	a080acac <printf>
a080c500:	00000000 	nop
a080c504:	3c02a081 	lui	v0,0xa081
a080c508:	244429e4 	addiu	a0,v0,10724
a080c50c:	0c2023c6 	jal	a0808f18 <barrier_wait>
a080c510:	00000000 	nop
a080c514:	00002021 	move	a0,zero
a080c518:	8fc50010 	lw	a1,16(s8)
a080c51c:	0c2022e7 	jal	a0808b9c <sys_move_cursor>
a080c520:	00000000 	nop
a080c524:	3c02a081 	lui	v0,0xa081
a080c528:	2444f1ac 	addiu	a0,v0,-3668
a080c52c:	8fc50014 	lw	a1,20(s8)
a080c530:	0c202b2b 	jal	a080acac <printf>
a080c534:	00000000 	nop
a080c538:	24040001 	li	a0,1
a080c53c:	0c20227d 	jal	a08089f4 <sys_sleep>
a080c540:	00000000 	nop
a080c544:	8fc20014 	lw	v0,20(s8)
a080c548:	24420001 	addiu	v0,v0,1
a080c54c:	afc20014 	sw	v0,20(s8)
a080c550:	08203138 	j	a080c4e0 <barrier_task1+0x50>
a080c554:	00000000 	nop

a080c558 <barrier_task2>:
a080c558:	27bdffe0 	addiu	sp,sp,-32
a080c55c:	afbf001c 	sw	ra,28(sp)
a080c560:	afbe0018 	sw	s8,24(sp)
a080c564:	03a0f021 	move	s8,sp
a080c568:	24020001 	li	v0,1
a080c56c:	afc20010 	sw	v0,16(s8)
a080c570:	3c02a081 	lui	v0,0xa081
a080c574:	8c4229e0 	lw	v0,10720(v0)
a080c578:	1440000b 	bnez	v0,a080c5a8 <barrier_task2+0x50>
a080c57c:	00000000 	nop
a080c580:	3c03a081 	lui	v1,0xa081
a080c584:	24020001 	li	v0,1
a080c588:	ac6229e0 	sw	v0,10720(v1)
a080c58c:	3c02a081 	lui	v0,0xa081
a080c590:	8c43fc30 	lw	v1,-976(v0)
a080c594:	3c02a081 	lui	v0,0xa081
a080c598:	244429e4 	addiu	a0,v0,10724
a080c59c:	00602821 	move	a1,v1
a080c5a0:	0c2023b3 	jal	a0808ecc <barrier_init>
a080c5a4:	00000000 	nop
a080c5a8:	afc00014 	sw	zero,20(s8)
a080c5ac:	00002021 	move	a0,zero
a080c5b0:	8fc50010 	lw	a1,16(s8)
a080c5b4:	0c2022e7 	jal	a0808b9c <sys_move_cursor>
a080c5b8:	00000000 	nop
a080c5bc:	3c02a081 	lui	v0,0xa081
a080c5c0:	2444f180 	addiu	a0,v0,-3712
a080c5c4:	8fc50014 	lw	a1,20(s8)
a080c5c8:	0c202b2b 	jal	a080acac <printf>
a080c5cc:	00000000 	nop
a080c5d0:	3c02a081 	lui	v0,0xa081
a080c5d4:	244429e4 	addiu	a0,v0,10724
a080c5d8:	0c2023c6 	jal	a0808f18 <barrier_wait>
a080c5dc:	00000000 	nop
a080c5e0:	00002021 	move	a0,zero
a080c5e4:	8fc50010 	lw	a1,16(s8)
a080c5e8:	0c2022e7 	jal	a0808b9c <sys_move_cursor>
a080c5ec:	00000000 	nop
a080c5f0:	3c02a081 	lui	v0,0xa081
a080c5f4:	2444f1ac 	addiu	a0,v0,-3668
a080c5f8:	8fc50014 	lw	a1,20(s8)
a080c5fc:	0c202b2b 	jal	a080acac <printf>
a080c600:	00000000 	nop
a080c604:	24040001 	li	a0,1
a080c608:	0c20227d 	jal	a08089f4 <sys_sleep>
a080c60c:	00000000 	nop
a080c610:	8fc20014 	lw	v0,20(s8)
a080c614:	24420001 	addiu	v0,v0,1
a080c618:	afc20014 	sw	v0,20(s8)
a080c61c:	0820316b 	j	a080c5ac <barrier_task2+0x54>
a080c620:	00000000 	nop

a080c624 <barrier_task3>:
a080c624:	27bdffe0 	addiu	sp,sp,-32
a080c628:	afbf001c 	sw	ra,28(sp)
a080c62c:	afbe0018 	sw	s8,24(sp)
a080c630:	03a0f021 	move	s8,sp
a080c634:	24020002 	li	v0,2
a080c638:	afc20010 	sw	v0,16(s8)
a080c63c:	3c02a081 	lui	v0,0xa081
a080c640:	8c4229e0 	lw	v0,10720(v0)
a080c644:	1440000b 	bnez	v0,a080c674 <barrier_task3+0x50>
a080c648:	00000000 	nop
a080c64c:	3c03a081 	lui	v1,0xa081
a080c650:	24020001 	li	v0,1
a080c654:	ac6229e0 	sw	v0,10720(v1)
a080c658:	3c02a081 	lui	v0,0xa081
a080c65c:	8c43fc30 	lw	v1,-976(v0)
a080c660:	3c02a081 	lui	v0,0xa081
a080c664:	244429e4 	addiu	a0,v0,10724
a080c668:	00602821 	move	a1,v1
a080c66c:	0c2023b3 	jal	a0808ecc <barrier_init>
a080c670:	00000000 	nop
a080c674:	afc00014 	sw	zero,20(s8)
a080c678:	00002021 	move	a0,zero
a080c67c:	8fc50010 	lw	a1,16(s8)
a080c680:	0c2022e7 	jal	a0808b9c <sys_move_cursor>
a080c684:	00000000 	nop
a080c688:	3c02a081 	lui	v0,0xa081
a080c68c:	2444f180 	addiu	a0,v0,-3712
a080c690:	8fc50014 	lw	a1,20(s8)
a080c694:	0c202b2b 	jal	a080acac <printf>
a080c698:	00000000 	nop
a080c69c:	3c02a081 	lui	v0,0xa081
a080c6a0:	244429e4 	addiu	a0,v0,10724
a080c6a4:	0c2023c6 	jal	a0808f18 <barrier_wait>
a080c6a8:	00000000 	nop
a080c6ac:	00002021 	move	a0,zero
a080c6b0:	8fc50010 	lw	a1,16(s8)
a080c6b4:	0c2022e7 	jal	a0808b9c <sys_move_cursor>
a080c6b8:	00000000 	nop
a080c6bc:	3c02a081 	lui	v0,0xa081
a080c6c0:	2444f1ac 	addiu	a0,v0,-3668
a080c6c4:	8fc50014 	lw	a1,20(s8)
a080c6c8:	0c202b2b 	jal	a080acac <printf>
a080c6cc:	00000000 	nop
a080c6d0:	24040001 	li	a0,1
a080c6d4:	0c20227d 	jal	a08089f4 <sys_sleep>
a080c6d8:	00000000 	nop
a080c6dc:	8fc20014 	lw	v0,20(s8)
a080c6e0:	24420001 	addiu	v0,v0,1
a080c6e4:	afc20014 	sw	v0,20(s8)
a080c6e8:	0820319e 	j	a080c678 <barrier_task3+0x54>
a080c6ec:	00000000 	nop

a080c6f0 <producer_task>:
a080c6f0:	27bdffd8 	addiu	sp,sp,-40
a080c6f4:	afbf0024 	sw	ra,36(sp)
a080c6f8:	afbe0020 	sw	s8,32(sp)
a080c6fc:	03a0f021 	move	s8,sp
a080c700:	afc00018 	sw	zero,24(s8)
a080c704:	24020003 	li	v0,3
a080c708:	afc20014 	sw	v0,20(s8)
a080c70c:	afc00010 	sw	zero,16(s8)
a080c710:	3c02a081 	lui	v0,0xa081
a080c714:	24445c54 	addiu	a0,v0,23636
a080c718:	0c20237d 	jal	a0808df4 <mutex_lock_init>
a080c71c:	00000000 	nop
a080c720:	3c02a081 	lui	v0,0xa081
a080c724:	24440108 	addiu	a0,v0,264
a080c728:	0c20240f 	jal	a080903c <condition_init>
a080c72c:	00000000 	nop
a080c730:	afc0001c 	sw	zero,28(s8)
a080c734:	082031f4 	j	a080c7d0 <producer_task+0xe0>
a080c738:	00000000 	nop
a080c73c:	3c02a081 	lui	v0,0xa081
a080c740:	24445c54 	addiu	a0,v0,23636
a080c744:	0c20238f 	jal	a0808e3c <mutex_lock_acquire>
a080c748:	00000000 	nop
a080c74c:	3c02a081 	lui	v0,0xa081
a080c750:	8c432a00 	lw	v1,10752(v0)
a080c754:	8fc20014 	lw	v0,20(s8)
a080c758:	00621821 	addu	v1,v1,v0
a080c75c:	3c02a081 	lui	v0,0xa081
a080c760:	ac432a00 	sw	v1,10752(v0)
a080c764:	8fc30010 	lw	v1,16(s8)
a080c768:	8fc20014 	lw	v0,20(s8)
a080c76c:	00621021 	addu	v0,v1,v0
a080c770:	afc20010 	sw	v0,16(s8)
a080c774:	3c02a081 	lui	v0,0xa081
a080c778:	24445c54 	addiu	a0,v0,23636
a080c77c:	0c2023a1 	jal	a0808e84 <mutex_lock_release>
a080c780:	00000000 	nop
a080c784:	00002021 	move	a0,zero
a080c788:	8fc50018 	lw	a1,24(s8)
a080c78c:	0c2022e7 	jal	a0808b9c <sys_move_cursor>
a080c790:	00000000 	nop
a080c794:	3c02a081 	lui	v0,0xa081
a080c798:	2444f1e0 	addiu	a0,v0,-3616
a080c79c:	8fc50010 	lw	a1,16(s8)
a080c7a0:	0c202b2b 	jal	a080acac <printf>
a080c7a4:	00000000 	nop
a080c7a8:	3c02a081 	lui	v0,0xa081
a080c7ac:	24440108 	addiu	a0,v0,264
a080c7b0:	0c202447 	jal	a080911c <condition_broadcast>
a080c7b4:	00000000 	nop
a080c7b8:	24040001 	li	a0,1
a080c7bc:	0c20227d 	jal	a08089f4 <sys_sleep>
a080c7c0:	00000000 	nop
a080c7c4:	8fc2001c 	lw	v0,28(s8)
a080c7c8:	24420001 	addiu	v0,v0,1
a080c7cc:	afc2001c 	sw	v0,28(s8)
a080c7d0:	8fc2001c 	lw	v0,28(s8)
a080c7d4:	28420032 	slti	v0,v0,50
a080c7d8:	1440ffd8 	bnez	v0,a080c73c <producer_task+0x4c>
a080c7dc:	00000000 	nop
a080c7e0:	0c20235c 	jal	a0808d70 <sys_exit>
a080c7e4:	00000000 	nop
a080c7e8:	03c0e821 	move	sp,s8
a080c7ec:	8fbf0024 	lw	ra,36(sp)
a080c7f0:	8fbe0020 	lw	s8,32(sp)
a080c7f4:	27bd0028 	addiu	sp,sp,40
a080c7f8:	03e00008 	jr	ra
a080c7fc:	00000000 	nop

a080c800 <consumer_task1>:
a080c800:	27bdffd8 	addiu	sp,sp,-40
a080c804:	afbf0024 	sw	ra,36(sp)
a080c808:	afbe0020 	sw	s8,32(sp)
a080c80c:	03a0f021 	move	s8,sp
a080c810:	24020001 	li	v0,1
a080c814:	afc20018 	sw	v0,24(s8)
a080c818:	24020001 	li	v0,1
a080c81c:	afc20014 	sw	v0,20(s8)
a080c820:	afc00010 	sw	zero,16(s8)
a080c824:	3c02a081 	lui	v0,0xa081
a080c828:	24445c54 	addiu	a0,v0,23636
a080c82c:	0c20238f 	jal	a0808e3c <mutex_lock_acquire>
a080c830:	00000000 	nop
a080c834:	08203215 	j	a080c854 <consumer_task1+0x54>
a080c838:	00000000 	nop
a080c83c:	3c02a081 	lui	v0,0xa081
a080c840:	24445c54 	addiu	a0,v0,23636
a080c844:	3c02a081 	lui	v0,0xa081
a080c848:	24450108 	addiu	a1,v0,264
a080c84c:	0c202421 	jal	a0809084 <condition_wait>
a080c850:	00000000 	nop
a080c854:	3c02a081 	lui	v0,0xa081
a080c858:	8c422a00 	lw	v0,10752(v0)
a080c85c:	1040fff7 	beqz	v0,a080c83c <consumer_task1+0x3c>
a080c860:	00000000 	nop
a080c864:	3c02a081 	lui	v0,0xa081
a080c868:	8c432a00 	lw	v1,10752(v0)
a080c86c:	8fc20014 	lw	v0,20(s8)
a080c870:	00621823 	subu	v1,v1,v0
a080c874:	3c02a081 	lui	v0,0xa081
a080c878:	ac432a00 	sw	v1,10752(v0)
a080c87c:	8fc30010 	lw	v1,16(s8)
a080c880:	8fc20014 	lw	v0,20(s8)
a080c884:	00621021 	addu	v0,v1,v0
a080c888:	afc20010 	sw	v0,16(s8)
a080c88c:	00002021 	move	a0,zero
a080c890:	8fc50018 	lw	a1,24(s8)
a080c894:	0c2022e7 	jal	a0808b9c <sys_move_cursor>
a080c898:	00000000 	nop
a080c89c:	3c02a081 	lui	v0,0xa081
a080c8a0:	2444f208 	addiu	a0,v0,-3576
a080c8a4:	8fc50010 	lw	a1,16(s8)
a080c8a8:	0c202b2b 	jal	a080acac <printf>
a080c8ac:	00000000 	nop
a080c8b0:	3c02a081 	lui	v0,0xa081
a080c8b4:	24445c54 	addiu	a0,v0,23636
a080c8b8:	0c2023a1 	jal	a0808e84 <mutex_lock_release>
a080c8bc:	00000000 	nop
a080c8c0:	24040001 	li	a0,1
a080c8c4:	0c20227d 	jal	a08089f4 <sys_sleep>
a080c8c8:	00000000 	nop
a080c8cc:	08203209 	j	a080c824 <consumer_task1+0x24>
a080c8d0:	00000000 	nop

a080c8d4 <consumer_task2>:
a080c8d4:	27bdffd8 	addiu	sp,sp,-40
a080c8d8:	afbf0024 	sw	ra,36(sp)
a080c8dc:	afbe0020 	sw	s8,32(sp)
a080c8e0:	03a0f021 	move	s8,sp
a080c8e4:	24020002 	li	v0,2
a080c8e8:	afc20018 	sw	v0,24(s8)
a080c8ec:	24020001 	li	v0,1
a080c8f0:	afc20014 	sw	v0,20(s8)
a080c8f4:	afc00010 	sw	zero,16(s8)
a080c8f8:	3c02a081 	lui	v0,0xa081
a080c8fc:	24445c54 	addiu	a0,v0,23636
a080c900:	0c20238f 	jal	a0808e3c <mutex_lock_acquire>
a080c904:	00000000 	nop
a080c908:	0820324a 	j	a080c928 <consumer_task2+0x54>
a080c90c:	00000000 	nop
a080c910:	3c02a081 	lui	v0,0xa081
a080c914:	24445c54 	addiu	a0,v0,23636
a080c918:	3c02a081 	lui	v0,0xa081
a080c91c:	24450108 	addiu	a1,v0,264
a080c920:	0c202421 	jal	a0809084 <condition_wait>
a080c924:	00000000 	nop
a080c928:	3c02a081 	lui	v0,0xa081
a080c92c:	8c422a00 	lw	v0,10752(v0)
a080c930:	1040fff7 	beqz	v0,a080c910 <consumer_task2+0x3c>
a080c934:	00000000 	nop
a080c938:	3c02a081 	lui	v0,0xa081
a080c93c:	8c432a00 	lw	v1,10752(v0)
a080c940:	8fc20014 	lw	v0,20(s8)
a080c944:	00621823 	subu	v1,v1,v0
a080c948:	3c02a081 	lui	v0,0xa081
a080c94c:	ac432a00 	sw	v1,10752(v0)
a080c950:	8fc30010 	lw	v1,16(s8)
a080c954:	8fc20014 	lw	v0,20(s8)
a080c958:	00621021 	addu	v0,v1,v0
a080c95c:	afc20010 	sw	v0,16(s8)
a080c960:	00002021 	move	a0,zero
a080c964:	8fc50018 	lw	a1,24(s8)
a080c968:	0c2022e7 	jal	a0808b9c <sys_move_cursor>
a080c96c:	00000000 	nop
a080c970:	3c02a081 	lui	v0,0xa081
a080c974:	2444f208 	addiu	a0,v0,-3576
a080c978:	8fc50010 	lw	a1,16(s8)
a080c97c:	0c202b2b 	jal	a080acac <printf>
a080c980:	00000000 	nop
a080c984:	3c02a081 	lui	v0,0xa081
a080c988:	24445c54 	addiu	a0,v0,23636
a080c98c:	0c2023a1 	jal	a0808e84 <mutex_lock_release>
a080c990:	00000000 	nop
a080c994:	24040001 	li	a0,1
a080c998:	0c20227d 	jal	a08089f4 <sys_sleep>
a080c99c:	00000000 	nop
a080c9a0:	0820323e 	j	a080c8f8 <consumer_task2+0x24>
a080c9a4:	00000000 	nop
	...

a080c9b0 <semaphore_add_task1>:
a080c9b0:	27bdffe0 	addiu	sp,sp,-32
a080c9b4:	afbf001c 	sw	ra,28(sp)
a080c9b8:	afbe0018 	sw	s8,24(sp)
a080c9bc:	03a0f021 	move	s8,sp
a080c9c0:	afc00010 	sw	zero,16(s8)
a080c9c4:	3c02a081 	lui	v0,0xa081
a080c9c8:	24442a14 	addiu	a0,v0,10772
a080c9cc:	24050001 	li	a1,1
a080c9d0:	0c2023d8 	jal	a0808f60 <semaphore_init>
a080c9d4:	00000000 	nop
a080c9d8:	afc00014 	sw	zero,20(s8)
a080c9dc:	08203299 	j	a080ca64 <semaphore_add_task1+0xb4>
a080c9e0:	00000000 	nop
a080c9e4:	3c02a081 	lui	v0,0xa081
a080c9e8:	24442a14 	addiu	a0,v0,10772
a080c9ec:	0c2023fd 	jal	a0808ff4 <semaphore_down>
a080c9f0:	00000000 	nop
a080c9f4:	3c02a081 	lui	v0,0xa081
a080c9f8:	8c422a10 	lw	v0,10768(v0)
a080c9fc:	24430001 	addiu	v1,v0,1
a080ca00:	3c02a081 	lui	v0,0xa081
a080ca04:	ac432a10 	sw	v1,10768(v0)
a080ca08:	3c02a081 	lui	v0,0xa081
a080ca0c:	24442a14 	addiu	a0,v0,10772
a080ca10:	0c2023eb 	jal	a0808fac <semaphore_up>
a080ca14:	00000000 	nop
a080ca18:	00002021 	move	a0,zero
a080ca1c:	8fc50010 	lw	a1,16(s8)
a080ca20:	0c2022e7 	jal	a0808b9c <sys_move_cursor>
a080ca24:	00000000 	nop
a080ca28:	3c02a081 	lui	v0,0xa081
a080ca2c:	8c432a10 	lw	v1,10768(v0)
a080ca30:	8fc20014 	lw	v0,20(s8)
a080ca34:	24460001 	addiu	a2,v0,1
a080ca38:	3c02a081 	lui	v0,0xa081
a080ca3c:	2444f230 	addiu	a0,v0,-3536
a080ca40:	00602821 	move	a1,v1
a080ca44:	0c202b2b 	jal	a080acac <printf>
a080ca48:	00000000 	nop
a080ca4c:	24040001 	li	a0,1
a080ca50:	0c20227d 	jal	a08089f4 <sys_sleep>
a080ca54:	00000000 	nop
a080ca58:	8fc20014 	lw	v0,20(s8)
a080ca5c:	24420001 	addiu	v0,v0,1
a080ca60:	afc20014 	sw	v0,20(s8)
a080ca64:	8fc20014 	lw	v0,20(s8)
a080ca68:	2842001e 	slti	v0,v0,30
a080ca6c:	1440ffdd 	bnez	v0,a080c9e4 <semaphore_add_task1+0x34>
a080ca70:	00000000 	nop
a080ca74:	0c20235c 	jal	a0808d70 <sys_exit>
a080ca78:	00000000 	nop
a080ca7c:	03c0e821 	move	sp,s8
a080ca80:	8fbf001c 	lw	ra,28(sp)
a080ca84:	8fbe0018 	lw	s8,24(sp)
a080ca88:	27bd0020 	addiu	sp,sp,32
a080ca8c:	03e00008 	jr	ra
a080ca90:	00000000 	nop

a080ca94 <semaphore_add_task2>:
a080ca94:	27bdffe0 	addiu	sp,sp,-32
a080ca98:	afbf001c 	sw	ra,28(sp)
a080ca9c:	afbe0018 	sw	s8,24(sp)
a080caa0:	03a0f021 	move	s8,sp
a080caa4:	24020001 	li	v0,1
a080caa8:	afc20010 	sw	v0,16(s8)
a080caac:	afc00014 	sw	zero,20(s8)
a080cab0:	082032ce 	j	a080cb38 <semaphore_add_task2+0xa4>
a080cab4:	00000000 	nop
a080cab8:	3c02a081 	lui	v0,0xa081
a080cabc:	24442a14 	addiu	a0,v0,10772
a080cac0:	0c2023fd 	jal	a0808ff4 <semaphore_down>
a080cac4:	00000000 	nop
a080cac8:	3c02a081 	lui	v0,0xa081
a080cacc:	8c422a10 	lw	v0,10768(v0)
a080cad0:	24430001 	addiu	v1,v0,1
a080cad4:	3c02a081 	lui	v0,0xa081
a080cad8:	ac432a10 	sw	v1,10768(v0)
a080cadc:	3c02a081 	lui	v0,0xa081
a080cae0:	24442a14 	addiu	a0,v0,10772
a080cae4:	0c2023eb 	jal	a0808fac <semaphore_up>
a080cae8:	00000000 	nop
a080caec:	00002021 	move	a0,zero
a080caf0:	8fc50010 	lw	a1,16(s8)
a080caf4:	0c2022e7 	jal	a0808b9c <sys_move_cursor>
a080caf8:	00000000 	nop
a080cafc:	3c02a081 	lui	v0,0xa081
a080cb00:	8c432a10 	lw	v1,10768(v0)
a080cb04:	8fc20014 	lw	v0,20(s8)
a080cb08:	24460001 	addiu	a2,v0,1
a080cb0c:	3c02a081 	lui	v0,0xa081
a080cb10:	2444f230 	addiu	a0,v0,-3536
a080cb14:	00602821 	move	a1,v1
a080cb18:	0c202b2b 	jal	a080acac <printf>
a080cb1c:	00000000 	nop
a080cb20:	24040001 	li	a0,1
a080cb24:	0c20227d 	jal	a08089f4 <sys_sleep>
a080cb28:	00000000 	nop
a080cb2c:	8fc20014 	lw	v0,20(s8)
a080cb30:	24420001 	addiu	v0,v0,1
a080cb34:	afc20014 	sw	v0,20(s8)
a080cb38:	8fc20014 	lw	v0,20(s8)
a080cb3c:	28420014 	slti	v0,v0,20
a080cb40:	1440ffdd 	bnez	v0,a080cab8 <semaphore_add_task2+0x24>
a080cb44:	00000000 	nop
a080cb48:	0c20235c 	jal	a0808d70 <sys_exit>
a080cb4c:	00000000 	nop
a080cb50:	03c0e821 	move	sp,s8
a080cb54:	8fbf001c 	lw	ra,28(sp)
a080cb58:	8fbe0018 	lw	s8,24(sp)
a080cb5c:	27bd0020 	addiu	sp,sp,32
a080cb60:	03e00008 	jr	ra
a080cb64:	00000000 	nop

a080cb68 <semaphore_add_task3>:
a080cb68:	27bdffe0 	addiu	sp,sp,-32
a080cb6c:	afbf001c 	sw	ra,28(sp)
a080cb70:	afbe0018 	sw	s8,24(sp)
a080cb74:	03a0f021 	move	s8,sp
a080cb78:	24020002 	li	v0,2
a080cb7c:	afc20010 	sw	v0,16(s8)
a080cb80:	afc00014 	sw	zero,20(s8)
a080cb84:	08203303 	j	a080cc0c <semaphore_add_task3+0xa4>
a080cb88:	00000000 	nop
a080cb8c:	3c02a081 	lui	v0,0xa081
a080cb90:	24442a14 	addiu	a0,v0,10772
a080cb94:	0c2023fd 	jal	a0808ff4 <semaphore_down>
a080cb98:	00000000 	nop
a080cb9c:	3c02a081 	lui	v0,0xa081
a080cba0:	8c422a10 	lw	v0,10768(v0)
a080cba4:	24430001 	addiu	v1,v0,1
a080cba8:	3c02a081 	lui	v0,0xa081
a080cbac:	ac432a10 	sw	v1,10768(v0)
a080cbb0:	3c02a081 	lui	v0,0xa081
a080cbb4:	24442a14 	addiu	a0,v0,10772
a080cbb8:	0c2023eb 	jal	a0808fac <semaphore_up>
a080cbbc:	00000000 	nop
a080cbc0:	00002021 	move	a0,zero
a080cbc4:	8fc50010 	lw	a1,16(s8)
a080cbc8:	0c2022e7 	jal	a0808b9c <sys_move_cursor>
a080cbcc:	00000000 	nop
a080cbd0:	3c02a081 	lui	v0,0xa081
a080cbd4:	8c432a10 	lw	v1,10768(v0)
a080cbd8:	8fc20014 	lw	v0,20(s8)
a080cbdc:	24460001 	addiu	a2,v0,1
a080cbe0:	3c02a081 	lui	v0,0xa081
a080cbe4:	2444f230 	addiu	a0,v0,-3536
a080cbe8:	00602821 	move	a1,v1
a080cbec:	0c202b2b 	jal	a080acac <printf>
a080cbf0:	00000000 	nop
a080cbf4:	24040001 	li	a0,1
a080cbf8:	0c20227d 	jal	a08089f4 <sys_sleep>
a080cbfc:	00000000 	nop
a080cc00:	8fc20014 	lw	v0,20(s8)
a080cc04:	24420001 	addiu	v0,v0,1
a080cc08:	afc20014 	sw	v0,20(s8)
a080cc0c:	8fc20014 	lw	v0,20(s8)
a080cc10:	2842000a 	slti	v0,v0,10
a080cc14:	1440ffdd 	bnez	v0,a080cb8c <semaphore_add_task3+0x24>
a080cc18:	00000000 	nop
a080cc1c:	0c20235c 	jal	a0808d70 <sys_exit>
a080cc20:	00000000 	nop
a080cc24:	03c0e821 	move	sp,s8
a080cc28:	8fbf001c 	lw	ra,28(sp)
a080cc2c:	8fbe0018 	lw	s8,24(sp)
a080cc30:	27bd0020 	addiu	sp,sp,32
a080cc34:	03e00008 	jr	ra
a080cc38:	00000000 	nop
a080cc3c:	00000000 	nop

a080cc40 <SunQuan>:
a080cc40:	27bdffd8 	addiu	sp,sp,-40
a080cc44:	afbf0024 	sw	ra,36(sp)
a080cc48:	afbe0020 	sw	s8,32(sp)
a080cc4c:	03a0f021 	move	s8,sp
a080cc50:	3c02a081 	lui	v0,0xa081
a080cc54:	8c422a20 	lw	v0,10784(v0)
a080cc58:	14400006 	bnez	v0,a080cc74 <SunQuan+0x34>
a080cc5c:	00000000 	nop
a080cc60:	0c202594 	jal	a0809650 <mbox_init>
a080cc64:	00000000 	nop
a080cc68:	3c03a081 	lui	v1,0xa081
a080cc6c:	24020001 	li	v0,1
a080cc70:	ac622a20 	sw	v0,10784(v1)
a080cc74:	0c20228f 	jal	a0808a3c <sys_getpid>
a080cc78:	00000000 	nop
a080cc7c:	afc20018 	sw	v0,24(s8)
a080cc80:	3c02a081 	lui	v0,0xa081
a080cc84:	2444f278 	addiu	a0,v0,-3464
a080cc88:	0c202629 	jal	a08098a4 <mbox_open>
a080cc8c:	00000000 	nop
a080cc90:	afc20014 	sw	v0,20(s8)
a080cc94:	27c20018 	addiu	v0,s8,24
a080cc98:	8fc40014 	lw	a0,20(s8)
a080cc9c:	00402821 	move	a1,v0
a080cca0:	24060004 	li	a2,4
a080cca4:	0c2026ff 	jal	a0809bfc <mbox_send>
a080cca8:	00000000 	nop
a080ccac:	27c20018 	addiu	v0,s8,24
a080ccb0:	8fc40014 	lw	a0,20(s8)
a080ccb4:	00402821 	move	a1,v0
a080ccb8:	24060004 	li	a2,4
a080ccbc:	0c2026ff 	jal	a0809bfc <mbox_send>
a080ccc0:	00000000 	nop
a080ccc4:	00002021 	move	a0,zero
a080ccc8:	00002821 	move	a1,zero
a080cccc:	0c2022e7 	jal	a0808b9c <sys_move_cursor>
a080ccd0:	00000000 	nop
a080ccd4:	8fc30018 	lw	v1,24(s8)
a080ccd8:	3c02a081 	lui	v0,0xa081
a080ccdc:	2444f28c 	addiu	a0,v0,-3444
a080cce0:	00602821 	move	a1,v1
a080cce4:	0c202b2b 	jal	a080acac <printf>
a080cce8:	00000000 	nop
a080ccec:	3c02a081 	lui	v0,0xa081
a080ccf0:	2444f2b8 	addiu	a0,v0,-3400
a080ccf4:	0c202629 	jal	a08098a4 <mbox_open>
a080ccf8:	00000000 	nop
a080ccfc:	afc20010 	sw	v0,16(s8)
a080cd00:	00002021 	move	a0,zero
a080cd04:	00002821 	move	a1,zero
a080cd08:	0c2022e7 	jal	a0808b9c <sys_move_cursor>
a080cd0c:	00000000 	nop
a080cd10:	8fc30018 	lw	v1,24(s8)
a080cd14:	3c02a081 	lui	v0,0xa081
a080cd18:	2444f2cc 	addiu	a0,v0,-3380
a080cd1c:	00602821 	move	a1,v1
a080cd20:	0c202b2b 	jal	a080acac <printf>
a080cd24:	00000000 	nop
a080cd28:	27c2001c 	addiu	v0,s8,28
a080cd2c:	8fc40010 	lw	a0,16(s8)
a080cd30:	00402821 	move	a1,v0
a080cd34:	24060004 	li	a2,4
a080cd38:	0c202771 	jal	a0809dc4 <mbox_recv>
a080cd3c:	00000000 	nop
a080cd40:	00002021 	move	a0,zero
a080cd44:	00002821 	move	a1,zero
a080cd48:	0c2022e7 	jal	a0808b9c <sys_move_cursor>
a080cd4c:	00000000 	nop
a080cd50:	8fc30018 	lw	v1,24(s8)
a080cd54:	8fc6001c 	lw	a2,28(s8)
a080cd58:	3c02a081 	lui	v0,0xa081
a080cd5c:	2444f304 	addiu	a0,v0,-3324
a080cd60:	00602821 	move	a1,v1
a080cd64:	0c202b2b 	jal	a080acac <printf>
a080cd68:	00000000 	nop
a080cd6c:	8fc2001c 	lw	v0,28(s8)
a080cd70:	00402021 	move	a0,v0
a080cd74:	0c20236c 	jal	a0808db0 <sys_waitpid>
a080cd78:	00000000 	nop
a080cd7c:	00002021 	move	a0,zero
a080cd80:	00002821 	move	a1,zero
a080cd84:	0c2022e7 	jal	a0808b9c <sys_move_cursor>
a080cd88:	00000000 	nop
a080cd8c:	8fc30018 	lw	v1,24(s8)
a080cd90:	3c02a081 	lui	v0,0xa081
a080cd94:	2444f33c 	addiu	a0,v0,-3268
a080cd98:	00602821 	move	a1,v1
a080cd9c:	0c202b2b 	jal	a080acac <printf>
a080cda0:	00000000 	nop
a080cda4:	24040001 	li	a0,1
a080cda8:	0c20227d 	jal	a08089f4 <sys_sleep>
a080cdac:	00000000 	nop
a080cdb0:	3c02a081 	lui	v0,0xa081
a080cdb4:	2444fc4c 	addiu	a0,v0,-948
a080cdb8:	0c202339 	jal	a0808ce4 <sys_spawn>
a080cdbc:	00000000 	nop
a080cdc0:	00002021 	move	a0,zero
a080cdc4:	00002821 	move	a1,zero
a080cdc8:	0c2022e7 	jal	a0808b9c <sys_move_cursor>
a080cdcc:	00000000 	nop
a080cdd0:	8fc30018 	lw	v1,24(s8)
a080cdd4:	3c02a081 	lui	v0,0xa081
a080cdd8:	2444f36c 	addiu	a0,v0,-3220
a080cddc:	00602821 	move	a1,v1
a080cde0:	0c202b2b 	jal	a080acac <printf>
a080cde4:	00000000 	nop
a080cde8:	27c20018 	addiu	v0,s8,24
a080cdec:	8fc40014 	lw	a0,20(s8)
a080cdf0:	00402821 	move	a1,v0
a080cdf4:	24060004 	li	a2,4
a080cdf8:	0c2026ff 	jal	a0809bfc <mbox_send>
a080cdfc:	00000000 	nop
a080ce00:	08203340 	j	a080cd00 <SunQuan+0xc0>
a080ce04:	00000000 	nop

a080ce08 <LiuBei>:
a080ce08:	27bdffd8 	addiu	sp,sp,-40
a080ce0c:	afbf0024 	sw	ra,36(sp)
a080ce10:	afbe0020 	sw	s8,32(sp)
a080ce14:	03a0f021 	move	s8,sp
a080ce18:	3c02a081 	lui	v0,0xa081
a080ce1c:	2444f2b8 	addiu	a0,v0,-3400
a080ce20:	0c202629 	jal	a08098a4 <mbox_open>
a080ce24:	00000000 	nop
a080ce28:	afc20014 	sw	v0,20(s8)
a080ce2c:	0c20228f 	jal	a0808a3c <sys_getpid>
a080ce30:	00000000 	nop
a080ce34:	afc20018 	sw	v0,24(s8)
a080ce38:	27c20018 	addiu	v0,s8,24
a080ce3c:	8fc40014 	lw	a0,20(s8)
a080ce40:	00402821 	move	a1,v0
a080ce44:	24060004 	li	a2,4
a080ce48:	0c2026ff 	jal	a0809bfc <mbox_send>
a080ce4c:	00000000 	nop
a080ce50:	27c20018 	addiu	v0,s8,24
a080ce54:	8fc40014 	lw	a0,20(s8)
a080ce58:	00402821 	move	a1,v0
a080ce5c:	24060004 	li	a2,4
a080ce60:	0c2026ff 	jal	a0809bfc <mbox_send>
a080ce64:	00000000 	nop
a080ce68:	3c02a081 	lui	v0,0xa081
a080ce6c:	2444f278 	addiu	a0,v0,-3464
a080ce70:	0c202629 	jal	a08098a4 <mbox_open>
a080ce74:	00000000 	nop
a080ce78:	afc20010 	sw	v0,16(s8)
a080ce7c:	00002021 	move	a0,zero
a080ce80:	24050001 	li	a1,1
a080ce84:	0c2022e7 	jal	a0808b9c <sys_move_cursor>
a080ce88:	00000000 	nop
a080ce8c:	8fc30018 	lw	v1,24(s8)
a080ce90:	3c02a081 	lui	v0,0xa081
a080ce94:	2444f3a0 	addiu	a0,v0,-3168
a080ce98:	00602821 	move	a1,v1
a080ce9c:	0c202b2b 	jal	a080acac <printf>
a080cea0:	00000000 	nop
a080cea4:	00002021 	move	a0,zero
a080cea8:	24050001 	li	a1,1
a080ceac:	0c2022e7 	jal	a0808b9c <sys_move_cursor>
a080ceb0:	00000000 	nop
a080ceb4:	8fc30018 	lw	v1,24(s8)
a080ceb8:	3c02a081 	lui	v0,0xa081
a080cebc:	2444f3cc 	addiu	a0,v0,-3124
a080cec0:	00602821 	move	a1,v1
a080cec4:	0c202b2b 	jal	a080acac <printf>
a080cec8:	00000000 	nop
a080cecc:	27c2001c 	addiu	v0,s8,28
a080ced0:	8fc40010 	lw	a0,16(s8)
a080ced4:	00402821 	move	a1,v0
a080ced8:	24060004 	li	a2,4
a080cedc:	0c202771 	jal	a0809dc4 <mbox_recv>
a080cee0:	00000000 	nop
a080cee4:	00002021 	move	a0,zero
a080cee8:	24050001 	li	a1,1
a080ceec:	0c2022e7 	jal	a0808b9c <sys_move_cursor>
a080cef0:	00000000 	nop
a080cef4:	8fc30018 	lw	v1,24(s8)
a080cef8:	8fc6001c 	lw	a2,28(s8)
a080cefc:	3c02a081 	lui	v0,0xa081
a080cf00:	2444f3fc 	addiu	a0,v0,-3076
a080cf04:	00602821 	move	a1,v1
a080cf08:	0c202b2b 	jal	a080acac <printf>
a080cf0c:	00000000 	nop
a080cf10:	8fc2001c 	lw	v0,28(s8)
a080cf14:	00402021 	move	a0,v0
a080cf18:	0c20236c 	jal	a0808db0 <sys_waitpid>
a080cf1c:	00000000 	nop
a080cf20:	00002021 	move	a0,zero
a080cf24:	24050001 	li	a1,1
a080cf28:	0c2022e7 	jal	a0808b9c <sys_move_cursor>
a080cf2c:	00000000 	nop
a080cf30:	8fc30018 	lw	v1,24(s8)
a080cf34:	3c02a081 	lui	v0,0xa081
a080cf38:	2444f42c 	addiu	a0,v0,-3028
a080cf3c:	00602821 	move	a1,v1
a080cf40:	0c202b2b 	jal	a080acac <printf>
a080cf44:	00000000 	nop
a080cf48:	24040001 	li	a0,1
a080cf4c:	0c20227d 	jal	a08089f4 <sys_sleep>
a080cf50:	00000000 	nop
a080cf54:	3c02a081 	lui	v0,0xa081
a080cf58:	2444fc40 	addiu	a0,v0,-960
a080cf5c:	0c202339 	jal	a0808ce4 <sys_spawn>
a080cf60:	00000000 	nop
a080cf64:	27c20018 	addiu	v0,s8,24
a080cf68:	8fc40014 	lw	a0,20(s8)
a080cf6c:	00402821 	move	a1,v0
a080cf70:	24060004 	li	a2,4
a080cf74:	0c2026ff 	jal	a0809bfc <mbox_send>
a080cf78:	00000000 	nop
a080cf7c:	082033a9 	j	a080cea4 <LiuBei+0x9c>
a080cf80:	00000000 	nop

a080cf84 <CaoCao>:
a080cf84:	27bdffc0 	addiu	sp,sp,-64
a080cf88:	afbf003c 	sw	ra,60(sp)
a080cf8c:	afbe0038 	sw	s8,56(sp)
a080cf90:	03a0f021 	move	s8,sp
a080cf94:	0c20228f 	jal	a0808a3c <sys_getpid>
a080cf98:	00000000 	nop
a080cf9c:	afc20020 	sw	v0,32(s8)
a080cfa0:	3c02a081 	lui	v0,0xa081
a080cfa4:	2444f278 	addiu	a0,v0,-3464
a080cfa8:	0c202629 	jal	a08098a4 <mbox_open>
a080cfac:	00000000 	nop
a080cfb0:	afc2001c 	sw	v0,28(s8)
a080cfb4:	3c02a081 	lui	v0,0xa081
a080cfb8:	2444f2b8 	addiu	a0,v0,-3400
a080cfbc:	0c202629 	jal	a08098a4 <mbox_open>
a080cfc0:	00000000 	nop
a080cfc4:	afc20018 	sw	v0,24(s8)
a080cfc8:	afc00010 	sw	zero,16(s8)
a080cfcc:	27c20028 	addiu	v0,s8,40
a080cfd0:	8fc4001c 	lw	a0,28(s8)
a080cfd4:	00402821 	move	a1,v0
a080cfd8:	24060004 	li	a2,4
a080cfdc:	0c202771 	jal	a0809dc4 <mbox_recv>
a080cfe0:	00000000 	nop
a080cfe4:	27c2002c 	addiu	v0,s8,44
a080cfe8:	8fc40018 	lw	a0,24(s8)
a080cfec:	00402821 	move	a1,v0
a080cff0:	24060004 	li	a2,4
a080cff4:	0c202771 	jal	a0809dc4 <mbox_recv>
a080cff8:	00000000 	nop
a080cffc:	afc00014 	sw	zero,20(s8)
a080d000:	8fc20010 	lw	v0,16(s8)
a080d004:	24420001 	addiu	v0,v0,1
a080d008:	afc20010 	sw	v0,16(s8)
a080d00c:	00002021 	move	a0,zero
a080d010:	24050002 	li	a1,2
a080d014:	0c2022e7 	jal	a0808b9c <sys_move_cursor>
a080d018:	00000000 	nop
a080d01c:	3c02a081 	lui	v0,0xa081
a080d020:	2444f45c 	addiu	a0,v0,-2980
a080d024:	8fc50020 	lw	a1,32(s8)
a080d028:	8fc60010 	lw	a2,16(s8)
a080d02c:	0c202b2b 	jal	a080acac <printf>
a080d030:	00000000 	nop
a080d034:	24040005 	li	a0,5
a080d038:	0c20227d 	jal	a08089f4 <sys_sleep>
a080d03c:	00000000 	nop
a080d040:	00002021 	move	a0,zero
a080d044:	24050003 	li	a1,3
a080d048:	0c2022e7 	jal	a0808b9c <sys_move_cursor>
a080d04c:	00000000 	nop
a080d050:	3c02a081 	lui	v0,0xa081
a080d054:	2444f488 	addiu	a0,v0,-2936
a080d058:	8fc50020 	lw	a1,32(s8)
a080d05c:	8fc60010 	lw	a2,16(s8)
a080d060:	0c202b2b 	jal	a080acac <printf>
a080d064:	00000000 	nop
a080d068:	8fc30014 	lw	v1,20(s8)
a080d06c:	000317c3 	sra	v0,v1,0x1f
a080d070:	000227c2 	srl	a0,v0,0x1f
a080d074:	00641021 	addu	v0,v1,a0
a080d078:	30420001 	andi	v0,v0,0x1
a080d07c:	00441023 	subu	v0,v0,a0
a080d080:	afc20030 	sw	v0,48(s8)
a080d084:	8fc20030 	lw	v0,48(s8)
a080d088:	10400007 	beqz	v0,a080d0a8 <CaoCao+0x124>
a080d08c:	00000000 	nop
a080d090:	24020001 	li	v0,1
a080d094:	8fc30030 	lw	v1,48(s8)
a080d098:	10620030 	beq	v1,v0,a080d15c <CaoCao+0x1d8>
a080d09c:	00000000 	nop
a080d0a0:	08203482 	j	a080d208 <CaoCao+0x284>
a080d0a4:	00000000 	nop
a080d0a8:	00002021 	move	a0,zero
a080d0ac:	24050004 	li	a1,4
a080d0b0:	0c2022e7 	jal	a0808b9c <sys_move_cursor>
a080d0b4:	00000000 	nop
a080d0b8:	8fc30028 	lw	v1,40(s8)
a080d0bc:	3c02a081 	lui	v0,0xa081
a080d0c0:	2444f4b0 	addiu	a0,v0,-2896
a080d0c4:	8fc50020 	lw	a1,32(s8)
a080d0c8:	00603021 	move	a2,v1
a080d0cc:	0c202b2b 	jal	a080acac <printf>
a080d0d0:	00000000 	nop
a080d0d4:	24040001 	li	a0,1
a080d0d8:	0c20227d 	jal	a08089f4 <sys_sleep>
a080d0dc:	00000000 	nop
a080d0e0:	00002021 	move	a0,zero
a080d0e4:	24050005 	li	a1,5
a080d0e8:	0c2022e7 	jal	a0808b9c <sys_move_cursor>
a080d0ec:	00000000 	nop
a080d0f0:	3c02a081 	lui	v0,0xa081
a080d0f4:	2444f4dc 	addiu	a0,v0,-2852
a080d0f8:	0c202b2b 	jal	a080acac <printf>
a080d0fc:	00000000 	nop
a080d100:	8fc20028 	lw	v0,40(s8)
a080d104:	00402021 	move	a0,v0
a080d108:	0c20234b 	jal	a0808d2c <sys_kill>
a080d10c:	00000000 	nop
a080d110:	27c20028 	addiu	v0,s8,40
a080d114:	8fc4001c 	lw	a0,28(s8)
a080d118:	00402821 	move	a1,v0
a080d11c:	24060004 	li	a2,4
a080d120:	0c202771 	jal	a0809dc4 <mbox_recv>
a080d124:	00000000 	nop
a080d128:	00002021 	move	a0,zero
a080d12c:	24050006 	li	a1,6
a080d130:	0c2022e7 	jal	a0808b9c <sys_move_cursor>
a080d134:	00000000 	nop
a080d138:	8fc30028 	lw	v1,40(s8)
a080d13c:	3c02a081 	lui	v0,0xa081
a080d140:	2444f518 	addiu	a0,v0,-2792
a080d144:	8fc50020 	lw	a1,32(s8)
a080d148:	00603021 	move	a2,v1
a080d14c:	0c202b2b 	jal	a080acac <printf>
a080d150:	00000000 	nop
a080d154:	08203482 	j	a080d208 <CaoCao+0x284>
a080d158:	00000000 	nop
a080d15c:	00002021 	move	a0,zero
a080d160:	24050004 	li	a1,4
a080d164:	0c2022e7 	jal	a0808b9c <sys_move_cursor>
a080d168:	00000000 	nop
a080d16c:	8fc3002c 	lw	v1,44(s8)
a080d170:	3c02a081 	lui	v0,0xa081
a080d174:	2444f550 	addiu	a0,v0,-2736
a080d178:	8fc50020 	lw	a1,32(s8)
a080d17c:	00603021 	move	a2,v1
a080d180:	0c202b2b 	jal	a080acac <printf>
a080d184:	00000000 	nop
a080d188:	24040001 	li	a0,1
a080d18c:	0c20227d 	jal	a08089f4 <sys_sleep>
a080d190:	00000000 	nop
a080d194:	00002021 	move	a0,zero
a080d198:	24050005 	li	a1,5
a080d19c:	0c2022e7 	jal	a0808b9c <sys_move_cursor>
a080d1a0:	00000000 	nop
a080d1a4:	3c02a081 	lui	v0,0xa081
a080d1a8:	2444f578 	addiu	a0,v0,-2696
a080d1ac:	0c202b2b 	jal	a080acac <printf>
a080d1b0:	00000000 	nop
a080d1b4:	8fc2002c 	lw	v0,44(s8)
a080d1b8:	00402021 	move	a0,v0
a080d1bc:	0c20234b 	jal	a0808d2c <sys_kill>
a080d1c0:	00000000 	nop
a080d1c4:	27c2002c 	addiu	v0,s8,44
a080d1c8:	8fc40018 	lw	a0,24(s8)
a080d1cc:	00402821 	move	a1,v0
a080d1d0:	24060004 	li	a2,4
a080d1d4:	0c202771 	jal	a0809dc4 <mbox_recv>
a080d1d8:	00000000 	nop
a080d1dc:	00002021 	move	a0,zero
a080d1e0:	24050006 	li	a1,6
a080d1e4:	0c2022e7 	jal	a0808b9c <sys_move_cursor>
a080d1e8:	00000000 	nop
a080d1ec:	8fc3002c 	lw	v1,44(s8)
a080d1f0:	3c02a081 	lui	v0,0xa081
a080d1f4:	2444f5b0 	addiu	a0,v0,-2640
a080d1f8:	8fc50020 	lw	a1,32(s8)
a080d1fc:	00603021 	move	a2,v1
a080d200:	0c202b2b 	jal	a080acac <printf>
a080d204:	00000000 	nop
a080d208:	24040002 	li	a0,2
a080d20c:	0c20227d 	jal	a08089f4 <sys_sleep>
a080d210:	00000000 	nop
a080d214:	8fc20014 	lw	v0,20(s8)
a080d218:	24420001 	addiu	v0,v0,1
a080d21c:	afc20014 	sw	v0,20(s8)
a080d220:	08203400 	j	a080d000 <CaoCao+0x7c>
a080d224:	00000000 	nop
	...

a080d230 <clear_interrupt>:
a080d230:	27bdffe0 	addiu	sp,sp,-32
a080d234:	afbf001c 	sw	ra,28(sp)
a080d238:	afbe0018 	sw	s8,24(sp)
a080d23c:	03a0f021 	move	s8,sp
a080d240:	3c02bfe1 	lui	v0,0xbfe1
a080d244:	34441014 	ori	a0,v0,0x1014
a080d248:	0c2004c8 	jal	a0801320 <reg_read_32>
a080d24c:	00000000 	nop
a080d250:	afc20010 	sw	v0,16(s8)
a080d254:	3c02bfe1 	lui	v0,0xbfe1
a080d258:	34441014 	ori	a0,v0,0x1014
a080d25c:	8fc50010 	lw	a1,16(s8)
a080d260:	0c2004e5 	jal	a0801394 <reg_write_32>
a080d264:	00000000 	nop
a080d268:	03c0e821 	move	sp,s8
a080d26c:	8fbf001c 	lw	ra,28(sp)
a080d270:	8fbe0018 	lw	s8,24(sp)
a080d274:	27bd0020 	addiu	sp,sp,32
a080d278:	03e00008 	jr	ra
a080d27c:	00000000 	nop

a080d280 <send_desc_init>:
a080d280:	27bdffe0 	addiu	sp,sp,-32
a080d284:	afbf001c 	sw	ra,28(sp)
a080d288:	afbe0018 	sw	s8,24(sp)
a080d28c:	03a0f021 	move	s8,sp
a080d290:	afc40020 	sw	a0,32(s8)
a080d294:	3c02a0f0 	lui	v0,0xa0f0
a080d298:	34420400 	ori	v0,v0,0x400
a080d29c:	afc20014 	sw	v0,20(s8)
a080d2a0:	8fc20014 	lw	v0,20(s8)
a080d2a4:	00402021 	move	a0,v0
a080d2a8:	3c050001 	lui	a1,0x1
a080d2ac:	0c202833 	jal	a080a0cc <bzero>
a080d2b0:	00000000 	nop
a080d2b4:	afc00010 	sw	zero,16(s8)
a080d2b8:	082034e9 	j	a080d3a4 <send_desc_init+0x124>
a080d2bc:	00000000 	nop
a080d2c0:	8fc20010 	lw	v0,16(s8)
a080d2c4:	3c03a081 	lui	v1,0xa081
a080d2c8:	00022100 	sll	a0,v0,0x4
a080d2cc:	24625c60 	addiu	v0,v1,23648
a080d2d0:	00821021 	addu	v0,a0,v0
a080d2d4:	ac400000 	sw	zero,0(v0)
a080d2d8:	8fc40010 	lw	a0,16(s8)
a080d2dc:	3c02a081 	lui	v0,0xa081
a080d2e0:	24435c60 	addiu	v1,v0,23648
a080d2e4:	00041100 	sll	v0,a0,0x4
a080d2e8:	00621021 	addu	v0,v1,v0
a080d2ec:	3c036100 	lui	v1,0x6100
a080d2f0:	34630400 	ori	v1,v1,0x400
a080d2f4:	ac430004 	sw	v1,4(v0)
a080d2f8:	8fc50010 	lw	a1,16(s8)
a080d2fc:	8fc30014 	lw	v1,20(s8)
a080d300:	3c021fff 	lui	v0,0x1fff
a080d304:	3442ffff 	ori	v0,v0,0xffff
a080d308:	00623024 	and	a2,v1,v0
a080d30c:	3c04a081 	lui	a0,0xa081
a080d310:	00051040 	sll	v0,a1,0x1
a080d314:	24420001 	addiu	v0,v0,1
a080d318:	000218c0 	sll	v1,v0,0x3
a080d31c:	24825c60 	addiu	v0,a0,23648
a080d320:	00621021 	addu	v0,v1,v0
a080d324:	ac460000 	sw	a2,0(v0)
a080d328:	8fc50010 	lw	a1,16(s8)
a080d32c:	8fc20010 	lw	v0,16(s8)
a080d330:	24420001 	addiu	v0,v0,1
a080d334:	00021900 	sll	v1,v0,0x4
a080d338:	3c02a081 	lui	v0,0xa081
a080d33c:	24425c60 	addiu	v0,v0,23648
a080d340:	00621021 	addu	v0,v1,v0
a080d344:	00401821 	move	v1,v0
a080d348:	3c021fff 	lui	v0,0x1fff
a080d34c:	3442ffff 	ori	v0,v0,0xffff
a080d350:	00622024 	and	a0,v1,v0
a080d354:	3c03a081 	lui	v1,0xa081
a080d358:	00051040 	sll	v0,a1,0x1
a080d35c:	24420001 	addiu	v0,v0,1
a080d360:	24635c60 	addiu	v1,v1,23648
a080d364:	000210c0 	sll	v0,v0,0x3
a080d368:	00621021 	addu	v0,v1,v0
a080d36c:	ac440004 	sw	a0,4(v0)
a080d370:	8fc20014 	lw	v0,20(s8)
a080d374:	00402021 	move	a0,v0
a080d378:	3c02a081 	lui	v0,0xa081
a080d37c:	2445fc74 	addiu	a1,v0,-908
a080d380:	24060400 	li	a2,1024
a080d384:	0c2027fa 	jal	a0809fe8 <memcpy>
a080d388:	00000000 	nop
a080d38c:	8fc20014 	lw	v0,20(s8)
a080d390:	24420400 	addiu	v0,v0,1024
a080d394:	afc20014 	sw	v0,20(s8)
a080d398:	8fc20010 	lw	v0,16(s8)
a080d39c:	24420001 	addiu	v0,v0,1
a080d3a0:	afc20010 	sw	v0,16(s8)
a080d3a4:	8fc20010 	lw	v0,16(s8)
a080d3a8:	2842003f 	slti	v0,v0,63
a080d3ac:	1440ffc4 	bnez	v0,a080d2c0 <send_desc_init+0x40>
a080d3b0:	00000000 	nop
a080d3b4:	3c02a081 	lui	v0,0xa081
a080d3b8:	24425c60 	addiu	v0,v0,23648
a080d3bc:	ac4003f0 	sw	zero,1008(v0)
a080d3c0:	3c02a081 	lui	v0,0xa081
a080d3c4:	24435c60 	addiu	v1,v0,23648
a080d3c8:	3c026300 	lui	v0,0x6300
a080d3cc:	34420400 	ori	v0,v0,0x400
a080d3d0:	ac6203f4 	sw	v0,1012(v1)
a080d3d4:	8fc30014 	lw	v1,20(s8)
a080d3d8:	3c021fff 	lui	v0,0x1fff
a080d3dc:	3442ffff 	ori	v0,v0,0xffff
a080d3e0:	00621824 	and	v1,v1,v0
a080d3e4:	3c02a081 	lui	v0,0xa081
a080d3e8:	24425c60 	addiu	v0,v0,23648
a080d3ec:	ac4303f8 	sw	v1,1016(v0)
a080d3f0:	3c02a081 	lui	v0,0xa081
a080d3f4:	24435c60 	addiu	v1,v0,23648
a080d3f8:	3c021fff 	lui	v0,0x1fff
a080d3fc:	3442ffff 	ori	v0,v0,0xffff
a080d400:	00621824 	and	v1,v1,v0
a080d404:	3c02a081 	lui	v0,0xa081
a080d408:	24425c60 	addiu	v0,v0,23648
a080d40c:	ac4303fc 	sw	v1,1020(v0)
a080d410:	8fc20014 	lw	v0,20(s8)
a080d414:	00402021 	move	a0,v0
a080d418:	3c02a081 	lui	v0,0xa081
a080d41c:	2445fc74 	addiu	a1,v0,-908
a080d420:	24060400 	li	a2,1024
a080d424:	0c2027fa 	jal	a0809fe8 <memcpy>
a080d428:	00000000 	nop
a080d42c:	3c02a081 	lui	v0,0xa081
a080d430:	24435c60 	addiu	v1,v0,23648
a080d434:	8fc20020 	lw	v0,32(s8)
a080d438:	ac430020 	sw	v1,32(v0)
a080d43c:	3c02a081 	lui	v0,0xa081
a080d440:	24435c60 	addiu	v1,v0,23648
a080d444:	3c021fff 	lui	v0,0x1fff
a080d448:	3442ffff 	ori	v0,v0,0xffff
a080d44c:	00621824 	and	v1,v1,v0
a080d450:	8fc20020 	lw	v0,32(s8)
a080d454:	ac430028 	sw	v1,40(v0)
a080d458:	8fc30020 	lw	v1,32(s8)
a080d45c:	3c02a0f0 	lui	v0,0xa0f0
a080d460:	34420400 	ori	v0,v0,0x400
a080d464:	ac620010 	sw	v0,16(v1)
a080d468:	8fc30020 	lw	v1,32(s8)
a080d46c:	3c0200f0 	lui	v0,0xf0
a080d470:	34420400 	ori	v0,v0,0x400
a080d474:	ac620018 	sw	v0,24(v1)
a080d478:	03c0e821 	move	sp,s8
a080d47c:	8fbf001c 	lw	ra,28(sp)
a080d480:	8fbe0018 	lw	s8,24(sp)
a080d484:	27bd0020 	addiu	sp,sp,32
a080d488:	03e00008 	jr	ra
a080d48c:	00000000 	nop

a080d490 <recv_desc_init>:
a080d490:	27bdffe0 	addiu	sp,sp,-32
a080d494:	afbf001c 	sw	ra,28(sp)
a080d498:	afbe0018 	sw	s8,24(sp)
a080d49c:	03a0f021 	move	s8,sp
a080d4a0:	afc40020 	sw	a0,32(s8)
a080d4a4:	3c02a0f1 	lui	v0,0xa0f1
a080d4a8:	34420400 	ori	v0,v0,0x400
a080d4ac:	afc20014 	sw	v0,20(s8)
a080d4b0:	8fc20014 	lw	v0,20(s8)
a080d4b4:	00402021 	move	a0,v0
a080d4b8:	3c050001 	lui	a1,0x1
a080d4bc:	0c202833 	jal	a080a0cc <bzero>
a080d4c0:	00000000 	nop
a080d4c4:	afc00010 	sw	zero,16(s8)
a080d4c8:	08203566 	j	a080d598 <recv_desc_init+0x108>
a080d4cc:	00000000 	nop
a080d4d0:	8fc20010 	lw	v0,16(s8)
a080d4d4:	3c03a081 	lui	v1,0xa081
a080d4d8:	00022100 	sll	a0,v0,0x4
a080d4dc:	24626160 	addiu	v0,v1,24928
a080d4e0:	00821021 	addu	v0,a0,v0
a080d4e4:	ac400000 	sw	zero,0(v0)
a080d4e8:	8fc40010 	lw	a0,16(s8)
a080d4ec:	3c02a081 	lui	v0,0xa081
a080d4f0:	24436160 	addiu	v1,v0,24928
a080d4f4:	00041100 	sll	v0,a0,0x4
a080d4f8:	00621021 	addu	v0,v1,v0
a080d4fc:	3c038100 	lui	v1,0x8100
a080d500:	34630400 	ori	v1,v1,0x400
a080d504:	ac430004 	sw	v1,4(v0)
a080d508:	8fc50010 	lw	a1,16(s8)
a080d50c:	8fc30014 	lw	v1,20(s8)
a080d510:	3c021fff 	lui	v0,0x1fff
a080d514:	3442ffff 	ori	v0,v0,0xffff
a080d518:	00623024 	and	a2,v1,v0
a080d51c:	3c04a081 	lui	a0,0xa081
a080d520:	00051040 	sll	v0,a1,0x1
a080d524:	24420001 	addiu	v0,v0,1
a080d528:	000218c0 	sll	v1,v0,0x3
a080d52c:	24826160 	addiu	v0,a0,24928
a080d530:	00621021 	addu	v0,v1,v0
a080d534:	ac460000 	sw	a2,0(v0)
a080d538:	8fc50010 	lw	a1,16(s8)
a080d53c:	8fc20010 	lw	v0,16(s8)
a080d540:	24420001 	addiu	v0,v0,1
a080d544:	00021900 	sll	v1,v0,0x4
a080d548:	3c02a081 	lui	v0,0xa081
a080d54c:	24426160 	addiu	v0,v0,24928
a080d550:	00621021 	addu	v0,v1,v0
a080d554:	00401821 	move	v1,v0
a080d558:	3c021fff 	lui	v0,0x1fff
a080d55c:	3442ffff 	ori	v0,v0,0xffff
a080d560:	00622024 	and	a0,v1,v0
a080d564:	3c03a081 	lui	v1,0xa081
a080d568:	00051040 	sll	v0,a1,0x1
a080d56c:	24420001 	addiu	v0,v0,1
a080d570:	24636160 	addiu	v1,v1,24928
a080d574:	000210c0 	sll	v0,v0,0x3
a080d578:	00621021 	addu	v0,v1,v0
a080d57c:	ac440004 	sw	a0,4(v0)
a080d580:	8fc20014 	lw	v0,20(s8)
a080d584:	24420400 	addiu	v0,v0,1024
a080d588:	afc20014 	sw	v0,20(s8)
a080d58c:	8fc20010 	lw	v0,16(s8)
a080d590:	24420001 	addiu	v0,v0,1
a080d594:	afc20010 	sw	v0,16(s8)
a080d598:	8fc20010 	lw	v0,16(s8)
a080d59c:	2842003f 	slti	v0,v0,63
a080d5a0:	1440ffcb 	bnez	v0,a080d4d0 <recv_desc_init+0x40>
a080d5a4:	00000000 	nop
a080d5a8:	3c02a081 	lui	v0,0xa081
a080d5ac:	24426160 	addiu	v0,v0,24928
a080d5b0:	ac4003f0 	sw	zero,1008(v0)
a080d5b4:	3c02a081 	lui	v0,0xa081
a080d5b8:	24436160 	addiu	v1,v0,24928
a080d5bc:	3c028300 	lui	v0,0x8300
a080d5c0:	34420400 	ori	v0,v0,0x400
a080d5c4:	ac6203f4 	sw	v0,1012(v1)
a080d5c8:	8fc30014 	lw	v1,20(s8)
a080d5cc:	3c021fff 	lui	v0,0x1fff
a080d5d0:	3442ffff 	ori	v0,v0,0xffff
a080d5d4:	00621824 	and	v1,v1,v0
a080d5d8:	3c02a081 	lui	v0,0xa081
a080d5dc:	24426160 	addiu	v0,v0,24928
a080d5e0:	ac4303f8 	sw	v1,1016(v0)
a080d5e4:	3c02a081 	lui	v0,0xa081
a080d5e8:	24436160 	addiu	v1,v0,24928
a080d5ec:	3c021fff 	lui	v0,0x1fff
a080d5f0:	3442ffff 	ori	v0,v0,0xffff
a080d5f4:	00621824 	and	v1,v1,v0
a080d5f8:	3c02a081 	lui	v0,0xa081
a080d5fc:	24426160 	addiu	v0,v0,24928
a080d600:	ac4303fc 	sw	v1,1020(v0)
a080d604:	3c02a081 	lui	v0,0xa081
a080d608:	24436160 	addiu	v1,v0,24928
a080d60c:	8fc20020 	lw	v0,32(s8)
a080d610:	ac430024 	sw	v1,36(v0)
a080d614:	3c02a081 	lui	v0,0xa081
a080d618:	24436160 	addiu	v1,v0,24928
a080d61c:	3c021fff 	lui	v0,0x1fff
a080d620:	3442ffff 	ori	v0,v0,0xffff
a080d624:	00621824 	and	v1,v1,v0
a080d628:	8fc20020 	lw	v0,32(s8)
a080d62c:	ac43002c 	sw	v1,44(v0)
a080d630:	8fc30020 	lw	v1,32(s8)
a080d634:	3c02a0f1 	lui	v0,0xa0f1
a080d638:	34420400 	ori	v0,v0,0x400
a080d63c:	ac620014 	sw	v0,20(v1)
a080d640:	8fc30020 	lw	v1,32(s8)
a080d644:	3c0200f1 	lui	v0,0xf1
a080d648:	34420400 	ori	v0,v0,0x400
a080d64c:	ac62001c 	sw	v0,28(v1)
a080d650:	03c0e821 	move	sp,s8
a080d654:	8fbf001c 	lw	ra,28(sp)
a080d658:	8fbe0018 	lw	s8,24(sp)
a080d65c:	27bd0020 	addiu	sp,sp,32
a080d660:	03e00008 	jr	ra
a080d664:	00000000 	nop

a080d668 <mii_dul_force>:
a080d668:	27bdffd8 	addiu	sp,sp,-40
a080d66c:	afbf0024 	sw	ra,36(sp)
a080d670:	afbe0020 	sw	s8,32(sp)
a080d674:	afb0001c 	sw	s0,28(sp)
a080d678:	03a0f021 	move	s8,sp
a080d67c:	afc40028 	sw	a0,40(s8)
a080d680:	8fc20028 	lw	v0,40(s8)
a080d684:	8c42000c 	lw	v0,12(v0)
a080d688:	00402021 	move	a0,v0
a080d68c:	24050080 	li	a1,128
a080d690:	0c2004e5 	jal	a0801394 <reg_write_32>
a080d694:	00000000 	nop
a080d698:	3402c800 	li	v0,0xc800
a080d69c:	afc20010 	sw	v0,16(s8)
a080d6a0:	8fc20028 	lw	v0,40(s8)
a080d6a4:	8c500008 	lw	s0,8(v0)
a080d6a8:	8fc20028 	lw	v0,40(s8)
a080d6ac:	8c420008 	lw	v0,8(v0)
a080d6b0:	00402021 	move	a0,v0
a080d6b4:	0c2004c8 	jal	a0801320 <reg_read_32>
a080d6b8:	00000000 	nop
a080d6bc:	00401821 	move	v1,v0
a080d6c0:	8fc20010 	lw	v0,16(s8)
a080d6c4:	00621025 	or	v0,v1,v0
a080d6c8:	34420100 	ori	v0,v0,0x100
a080d6cc:	02002021 	move	a0,s0
a080d6d0:	00402821 	move	a1,v0
a080d6d4:	0c2004e5 	jal	a0801394 <reg_write_32>
a080d6d8:	00000000 	nop
a080d6dc:	8fc20028 	lw	v0,40(s8)
a080d6e0:	8c420008 	lw	v0,8(v0)
a080d6e4:	24500004 	addiu	s0,v0,4
a080d6e8:	8fc20028 	lw	v0,40(s8)
a080d6ec:	8c420008 	lw	v0,8(v0)
a080d6f0:	24420004 	addiu	v0,v0,4
a080d6f4:	00402021 	move	a0,v0
a080d6f8:	0c2004c8 	jal	a0801320 <reg_read_32>
a080d6fc:	00000000 	nop
a080d700:	00401821 	move	v1,v0
a080d704:	3c028000 	lui	v0,0x8000
a080d708:	34420001 	ori	v0,v0,0x1
a080d70c:	00621025 	or	v0,v1,v0
a080d710:	02002021 	move	a0,s0
a080d714:	00402821 	move	a1,v0
a080d718:	0c2004e5 	jal	a0801394 <reg_write_32>
a080d71c:	00000000 	nop
a080d720:	03c0e821 	move	sp,s8
a080d724:	8fbf0024 	lw	ra,36(sp)
a080d728:	8fbe0020 	lw	s8,32(sp)
a080d72c:	8fb0001c 	lw	s0,28(sp)
a080d730:	27bd0028 	addiu	sp,sp,40
a080d734:	03e00008 	jr	ra
a080d738:	00000000 	nop

a080d73c <start_tran>:
a080d73c:	27bdfff8 	addiu	sp,sp,-8
a080d740:	afbe0004 	sw	s8,4(sp)
a080d744:	03a0f021 	move	s8,sp
a080d748:	afc40008 	sw	a0,8(s8)
a080d74c:	03c0e821 	move	sp,s8
a080d750:	8fbe0004 	lw	s8,4(sp)
a080d754:	27bd0008 	addiu	sp,sp,8
a080d758:	03e00008 	jr	ra
a080d75c:	00000000 	nop

a080d760 <dma_control_init>:
a080d760:	27bdffe8 	addiu	sp,sp,-24
a080d764:	afbf0014 	sw	ra,20(sp)
a080d768:	afbe0010 	sw	s8,16(sp)
a080d76c:	03a0f021 	move	s8,sp
a080d770:	afc40018 	sw	a0,24(s8)
a080d774:	afc5001c 	sw	a1,28(s8)
a080d778:	8fc20018 	lw	v0,24(s8)
a080d77c:	8c42000c 	lw	v0,12(v0)
a080d780:	24420018 	addiu	v0,v0,24
a080d784:	00402021 	move	a0,v0
a080d788:	8fc5001c 	lw	a1,28(s8)
a080d78c:	0c2004e5 	jal	a0801394 <reg_write_32>
a080d790:	00000000 	nop
a080d794:	03c0e821 	move	sp,s8
a080d798:	8fbf0014 	lw	ra,20(sp)
a080d79c:	8fbe0010 	lw	s8,16(sp)
a080d7a0:	27bd0018 	addiu	sp,sp,24
a080d7a4:	03e00008 	jr	ra
a080d7a8:	00000000 	nop

a080d7ac <phy_regs_task1>:
a080d7ac:	27bdffa8 	addiu	sp,sp,-88
a080d7b0:	afbf0054 	sw	ra,84(sp)
a080d7b4:	afbe0050 	sw	s8,80(sp)
a080d7b8:	03a0f021 	move	s8,sp
a080d7bc:	24020002 	li	v0,2
a080d7c0:	afc20014 	sw	v0,20(s8)
a080d7c4:	3c02bfe1 	lui	v0,0xbfe1
a080d7c8:	afc20024 	sw	v0,36(s8)
a080d7cc:	3c02bfe1 	lui	v0,0xbfe1
a080d7d0:	34421000 	ori	v0,v0,0x1000
a080d7d4:	afc20028 	sw	v0,40(s8)
a080d7d8:	24020400 	li	v0,1024
a080d7dc:	afc2001c 	sw	v0,28(s8)
a080d7e0:	24020040 	li	v0,64
a080d7e4:	afc20020 	sw	v0,32(s8)
a080d7e8:	27c2001c 	addiu	v0,s8,28
a080d7ec:	00402021 	move	a0,v0
a080d7f0:	0c2034a0 	jal	a080d280 <send_desc_init>
a080d7f4:	00000000 	nop
a080d7f8:	27c2001c 	addiu	v0,s8,28
a080d7fc:	00402021 	move	a0,v0
a080d800:	3c020020 	lui	v0,0x20
a080d804:	3445001c 	ori	a1,v0,0x1c
a080d808:	0c2035d8 	jal	a080d760 <dma_control_init>
a080d80c:	00000000 	nop
a080d810:	0c20348c 	jal	a080d230 <clear_interrupt>
a080d814:	00000000 	nop
a080d818:	27c2001c 	addiu	v0,s8,28
a080d81c:	00402021 	move	a0,v0
a080d820:	0c20359a 	jal	a080d668 <mii_dul_force>
a080d824:	00000000 	nop
a080d828:	24040023 	li	a0,35
a080d82c:	0c200752 	jal	a0801d48 <irq_enable>
a080d830:	00000000 	nop
a080d834:	8fc20014 	lw	v0,20(s8)
a080d838:	24040001 	li	a0,1
a080d83c:	00402821 	move	a1,v0
a080d840:	0c2022e7 	jal	a0808b9c <sys_move_cursor>
a080d844:	00000000 	nop
a080d848:	3c02a081 	lui	v0,0xa081
a080d84c:	2444f5e0 	addiu	a0,v0,-2592
a080d850:	0c202b2b 	jal	a080acac <printf>
a080d854:	00000000 	nop
a080d858:	afc00010 	sw	zero,16(s8)
a080d85c:	24020004 	li	v0,4
a080d860:	afc20018 	sw	v0,24(s8)
a080d864:	08203631 	j	a080d8c4 <phy_regs_task1+0x118>
a080d868:	00000000 	nop
a080d86c:	8fc2003c 	lw	v0,60(s8)
a080d870:	8fc30044 	lw	v1,68(s8)
a080d874:	00402021 	move	a0,v0
a080d878:	00602821 	move	a1,v1
a080d87c:	0c202469 	jal	a08091a4 <sys_net_send>
a080d880:	00000000 	nop
a080d884:	8fc20010 	lw	v0,16(s8)
a080d888:	24420040 	addiu	v0,v0,64
a080d88c:	afc20010 	sw	v0,16(s8)
a080d890:	8fc20014 	lw	v0,20(s8)
a080d894:	24040001 	li	a0,1
a080d898:	00402821 	move	a1,v0
a080d89c:	0c2022e7 	jal	a0808b9c <sys_move_cursor>
a080d8a0:	00000000 	nop
a080d8a4:	3c02a081 	lui	v0,0xa081
a080d8a8:	2444f614 	addiu	a0,v0,-2540
a080d8ac:	8fc50010 	lw	a1,16(s8)
a080d8b0:	0c202b2b 	jal	a080acac <printf>
a080d8b4:	00000000 	nop
a080d8b8:	8fc20018 	lw	v0,24(s8)
a080d8bc:	2442ffff 	addiu	v0,v0,-1
a080d8c0:	afc20018 	sw	v0,24(s8)
a080d8c4:	8fc20018 	lw	v0,24(s8)
a080d8c8:	1440ffe8 	bnez	v0,a080d86c <phy_regs_task1+0xc0>
a080d8cc:	00000000 	nop
a080d8d0:	0c20235c 	jal	a0808d70 <sys_exit>
a080d8d4:	00000000 	nop
a080d8d8:	03c0e821 	move	sp,s8
a080d8dc:	8fbf0054 	lw	ra,84(sp)
a080d8e0:	8fbe0050 	lw	s8,80(sp)
a080d8e4:	27bd0058 	addiu	sp,sp,88
a080d8e8:	03e00008 	jr	ra
a080d8ec:	00000000 	nop

a080d8f0 <phy_regs_task2>:
a080d8f0:	27bdffa0 	addiu	sp,sp,-96
a080d8f4:	afbf005c 	sw	ra,92(sp)
a080d8f8:	afbe0058 	sw	s8,88(sp)
a080d8fc:	03a0f021 	move	s8,sp
a080d900:	24020001 	li	v0,1
a080d904:	afc20018 	sw	v0,24(s8)
a080d908:	3c02bfe1 	lui	v0,0xbfe1
a080d90c:	afc2002c 	sw	v0,44(s8)
a080d910:	3c02bfe1 	lui	v0,0xbfe1
a080d914:	34421000 	ori	v0,v0,0x1000
a080d918:	afc20030 	sw	v0,48(s8)
a080d91c:	24020400 	li	v0,1024
a080d920:	afc20024 	sw	v0,36(s8)
a080d924:	24020040 	li	v0,64
a080d928:	afc20028 	sw	v0,40(s8)
a080d92c:	27c20024 	addiu	v0,s8,36
a080d930:	00402021 	move	a0,v0
a080d934:	0c203524 	jal	a080d490 <recv_desc_init>
a080d938:	00000000 	nop
a080d93c:	27c20024 	addiu	v0,s8,36
a080d940:	00402021 	move	a0,v0
a080d944:	3c020020 	lui	v0,0x20
a080d948:	3445001c 	ori	a1,v0,0x1c
a080d94c:	0c2035d8 	jal	a080d760 <dma_control_init>
a080d950:	00000000 	nop
a080d954:	0c20348c 	jal	a080d230 <clear_interrupt>
a080d958:	00000000 	nop
a080d95c:	27c20024 	addiu	v0,s8,36
a080d960:	00402021 	move	a0,v0
a080d964:	0c20359a 	jal	a080d668 <mii_dul_force>
a080d968:	00000000 	nop
a080d96c:	3c02a081 	lui	v0,0xa081
a080d970:	24440110 	addiu	a0,v0,272
a080d974:	0c202140 	jal	a0808500 <queue_init>
a080d978:	00000000 	nop
a080d97c:	8fc20018 	lw	v0,24(s8)
a080d980:	24040001 	li	a0,1
a080d984:	00402821 	move	a1,v0
a080d988:	0c2022e7 	jal	a0808b9c <sys_move_cursor>
a080d98c:	00000000 	nop
a080d990:	3c02a081 	lui	v0,0xa081
a080d994:	2444f648 	addiu	a0,v0,-2488
a080d998:	0c202b2b 	jal	a080acac <printf>
a080d99c:	00000000 	nop
a080d9a0:	8fc20048 	lw	v0,72(s8)
a080d9a4:	8fc30050 	lw	v1,80(s8)
a080d9a8:	8fc60038 	lw	a2,56(s8)
a080d9ac:	00402021 	move	a0,v0
a080d9b0:	00602821 	move	a1,v1
a080d9b4:	0c20247d 	jal	a08091f4 <sys_net_recv>
a080d9b8:	00000000 	nop
a080d9bc:	afc2001c 	sw	v0,28(s8)
a080d9c0:	3c02a081 	lui	v0,0xa081
a080d9c4:	ac400118 	sw	zero,280(v0)
a080d9c8:	afc00020 	sw	zero,32(s8)
a080d9cc:	0820367e 	j	a080d9f8 <phy_regs_task2+0x108>
a080d9d0:	00000000 	nop
a080d9d4:	8fc20020 	lw	v0,32(s8)
a080d9d8:	3c03a081 	lui	v1,0xa081
a080d9dc:	00022080 	sll	a0,v0,0x2
a080d9e0:	24626060 	addiu	v0,v1,24672
a080d9e4:	00821021 	addu	v0,a0,v0
a080d9e8:	ac400000 	sw	zero,0(v0)
a080d9ec:	8fc20020 	lw	v0,32(s8)
a080d9f0:	24420001 	addiu	v0,v0,1
a080d9f4:	afc20020 	sw	v0,32(s8)
a080d9f8:	8fc20020 	lw	v0,32(s8)
a080d9fc:	2c420040 	sltiu	v0,v0,64
a080da00:	1440fff4 	bnez	v0,a080d9d4 <phy_regs_task2+0xe4>
a080da04:	00000000 	nop
a080da08:	afc00014 	sw	zero,20(s8)
a080da0c:	8fc20048 	lw	v0,72(s8)
a080da10:	244203f0 	addiu	v0,v0,1008
a080da14:	afc20010 	sw	v0,16(s8)
a080da18:	8fc20010 	lw	v0,16(s8)
a080da1c:	8c420000 	lw	v0,0(v0)
a080da20:	0441000c 	bgez	v0,a080da54 <phy_regs_task2+0x164>
a080da24:	00000000 	nop
a080da28:	8fc20018 	lw	v0,24(s8)
a080da2c:	24040001 	li	a0,1
a080da30:	00402821 	move	a1,v0
a080da34:	0c2022e7 	jal	a0808b9c <sys_move_cursor>
a080da38:	00000000 	nop
a080da3c:	3c02a081 	lui	v0,0xa081
a080da40:	2444f674 	addiu	a0,v0,-2444
a080da44:	0c202b2b 	jal	a080acac <printf>
a080da48:	00000000 	nop
a080da4c:	0c202492 	jal	a0809248 <sys_wait_recv_package>
a080da50:	00000000 	nop
a080da54:	27c20024 	addiu	v0,s8,36
a080da58:	00402021 	move	a0,v0
a080da5c:	0c200762 	jal	a0801d88 <check_recv>
a080da60:	00000000 	nop
a080da64:	0c20235c 	jal	a0808d70 <sys_exit>
a080da68:	00000000 	nop
a080da6c:	03c0e821 	move	sp,s8
a080da70:	8fbf005c 	lw	ra,92(sp)
a080da74:	8fbe0058 	lw	s8,88(sp)
a080da78:	27bd0060 	addiu	sp,sp,96
a080da7c:	03e00008 	jr	ra
a080da80:	00000000 	nop

a080da84 <phy_regs_task3>:
a080da84:	27bdffe0 	addiu	sp,sp,-32
a080da88:	afbf001c 	sw	ra,28(sp)
a080da8c:	afbe0018 	sw	s8,24(sp)
a080da90:	03a0f021 	move	s8,sp
a080da94:	afc00010 	sw	zero,16(s8)
a080da98:	8fc20010 	lw	v0,16(s8)
a080da9c:	24040001 	li	a0,1
a080daa0:	00402821 	move	a1,v0
a080daa4:	0c2022e7 	jal	a0808b9c <sys_move_cursor>
a080daa8:	00000000 	nop
a080daac:	3c02a081 	lui	v0,0xa081
a080dab0:	2444f69c 	addiu	a0,v0,-2404
a080dab4:	0c202b2b 	jal	a080acac <printf>
a080dab8:	00000000 	nop
a080dabc:	0c202459 	jal	a0809164 <sys_init_mac>
a080dac0:	00000000 	nop
a080dac4:	8fc20010 	lw	v0,16(s8)
a080dac8:	24040001 	li	a0,1
a080dacc:	00402821 	move	a1,v0
a080dad0:	0c2022e7 	jal	a0808b9c <sys_move_cursor>
a080dad4:	00000000 	nop
a080dad8:	3c02a081 	lui	v0,0xa081
a080dadc:	2444f6c8 	addiu	a0,v0,-2360
a080dae0:	0c202b2b 	jal	a080acac <printf>
a080dae4:	00000000 	nop
a080dae8:	0c20235c 	jal	a0808d70 <sys_exit>
a080daec:	00000000 	nop
a080daf0:	03c0e821 	move	sp,s8
a080daf4:	8fbf001c 	lw	ra,28(sp)
a080daf8:	8fbe0018 	lw	s8,24(sp)
a080dafc:	27bd0020 	addiu	sp,sp,32
a080db00:	03e00008 	jr	ra
a080db04:	00000000 	nop
	...

a080db10 <test_fs>:
a080db10:	27bdffd8 	addiu	sp,sp,-40
a080db14:	afbf0024 	sw	ra,36(sp)
a080db18:	afbe0020 	sw	s8,32(sp)
a080db1c:	03a0f021 	move	s8,sp
a080db20:	3c02a081 	lui	v0,0xa081
a080db24:	2444f700 	addiu	a0,v0,-2304
a080db28:	0c202b2b 	jal	a080acac <printf>
a080db2c:	00000000 	nop
a080db30:	3c02a081 	lui	v0,0xa081
a080db34:	2444f71c 	addiu	a0,v0,-2276
a080db38:	24050002 	li	a1,2
a080db3c:	0c20252e 	jal	a08094b8 <sys_fopen>
a080db40:	00000000 	nop
a080db44:	afc20010 	sw	v0,16(s8)
a080db48:	afc00018 	sw	zero,24(s8)
a080db4c:	082036de 	j	a080db78 <test_fs+0x68>
a080db50:	00000000 	nop
a080db54:	8fc40010 	lw	a0,16(s8)
a080db58:	3c02a081 	lui	v0,0xa081
a080db5c:	2445f724 	addiu	a1,v0,-2268
a080db60:	2406000d 	li	a2,13
a080db64:	0c202555 	jal	a0809554 <sys_fwrite>
a080db68:	00000000 	nop
a080db6c:	8fc20018 	lw	v0,24(s8)
a080db70:	24420001 	addiu	v0,v0,1
a080db74:	afc20018 	sw	v0,24(s8)
a080db78:	8fc20018 	lw	v0,24(s8)
a080db7c:	2842000a 	slti	v0,v0,10
a080db80:	1440fff4 	bnez	v0,a080db54 <test_fs+0x44>
a080db84:	00000000 	nop
a080db88:	afc00018 	sw	zero,24(s8)
a080db8c:	08203703 	j	a080dc0c <test_fs+0xfc>
a080db90:	00000000 	nop
a080db94:	8fc40010 	lw	a0,16(s8)
a080db98:	3c02a081 	lui	v0,0xa081
a080db9c:	24452a30 	addiu	a1,v0,10800
a080dba0:	2406000d 	li	a2,13
a080dba4:	0c202541 	jal	a0809504 <sys_fread>
a080dba8:	00000000 	nop
a080dbac:	afc00014 	sw	zero,20(s8)
a080dbb0:	082036fc 	j	a080dbf0 <test_fs+0xe0>
a080dbb4:	00000000 	nop
a080dbb8:	8fc30014 	lw	v1,20(s8)
a080dbbc:	3c02a081 	lui	v0,0xa081
a080dbc0:	24422a30 	addiu	v0,v0,10800
a080dbc4:	00621021 	addu	v0,v1,v0
a080dbc8:	80420000 	lb	v0,0(v0)
a080dbcc:	00401821 	move	v1,v0
a080dbd0:	3c02a081 	lui	v0,0xa081
a080dbd4:	2444f734 	addiu	a0,v0,-2252
a080dbd8:	00602821 	move	a1,v1
a080dbdc:	0c202b2b 	jal	a080acac <printf>
a080dbe0:	00000000 	nop
a080dbe4:	8fc20014 	lw	v0,20(s8)
a080dbe8:	24420001 	addiu	v0,v0,1
a080dbec:	afc20014 	sw	v0,20(s8)
a080dbf0:	8fc20014 	lw	v0,20(s8)
a080dbf4:	2842000d 	slti	v0,v0,13
a080dbf8:	1440ffef 	bnez	v0,a080dbb8 <test_fs+0xa8>
a080dbfc:	00000000 	nop
a080dc00:	8fc20018 	lw	v0,24(s8)
a080dc04:	24420001 	addiu	v0,v0,1
a080dc08:	afc20018 	sw	v0,24(s8)
a080dc0c:	8fc20018 	lw	v0,24(s8)
a080dc10:	2842000a 	slti	v0,v0,10
a080dc14:	1440ffdf 	bnez	v0,a080db94 <test_fs+0x84>
a080dc18:	00000000 	nop
a080dc1c:	8fc40010 	lw	a0,16(s8)
a080dc20:	0c202569 	jal	a08095a4 <sys_close>
a080dc24:	00000000 	nop
a080dc28:	0c20235c 	jal	a0808d70 <sys_exit>
a080dc2c:	00000000 	nop
a080dc30:	03c0e821 	move	sp,s8
a080dc34:	8fbf0024 	lw	ra,36(sp)
a080dc38:	8fbe0020 	lw	s8,32(sp)
a080dc3c:	27bd0028 	addiu	sp,sp,40
a080dc40:	03e00008 	jr	ra
a080dc44:	00000000 	nop
	...

a080dc58 <.pic.sdwrite>:
a080dc58:	3c19a081 	lui	t9,0xa081
a080dc5c:	2739dc60 	addiu	t9,t9,-9120

a080dc60 <sdwrite>:
a080dc60:	27bdffb8 	addiu	sp,sp,-72
a080dc64:	afbf0044 	sw	ra,68(sp)
a080dc68:	afbe0040 	sw	s8,64(sp)
a080dc6c:	03a0f021 	move	s8,sp
a080dc70:	3c1ca082 	lui	gp,0xa082
a080dc74:	279c8080 	addiu	gp,gp,-32640
a080dc78:	afbc0010 	sw	gp,16(sp)
a080dc7c:	afc40048 	sw	a0,72(s8)
a080dc80:	afc5004c 	sw	a1,76(s8)
a080dc84:	afc60050 	sw	a2,80(s8)
a080dc88:	3c028005 	lui	v0,0x8005
a080dc8c:	3442f65c 	ori	v0,v0,0xf65c
a080dc90:	afc20034 	sw	v0,52(s8)
a080dc94:	8f99801c 	lw	t9,-32740(gp)
a080dc98:	00000000 	nop
a080dc9c:	0320f809 	jalr	t9
a080dca0:	00000000 	nop
a080dca4:	8fdc0010 	lw	gp,16(s8)
a080dca8:	1040000d 	beqz	v0,a080dce0 <sdwrite+0x80>
a080dcac:	00000000 	nop
a080dcb0:	3c028007 	lui	v0,0x8007
a080dcb4:	3442aba4 	ori	v0,v0,0xaba4
a080dcb8:	afc20030 	sw	v0,48(s8)
a080dcbc:	8fd90030 	lw	t9,48(s8)
a080dcc0:	8fc4004c 	lw	a0,76(s8)
a080dcc4:	8fc50050 	lw	a1,80(s8)
a080dcc8:	8fc60048 	lw	a2,72(s8)
a080dccc:	0320f809 	jalr	t9
a080dcd0:	00000000 	nop
a080dcd4:	8fdc0010 	lw	gp,16(s8)
a080dcd8:	10000052 	b	a080de24 <sdwrite+0x1c4>
a080dcdc:	00000000 	nop
a080dce0:	3c028007 	lui	v0,0x8007
a080dce4:	34429cd8 	ori	v0,v0,0x9cd8
a080dce8:	afc20028 	sw	v0,40(s8)
a080dcec:	8fc2004c 	lw	v0,76(s8)
a080dcf0:	00000000 	nop
a080dcf4:	afc20024 	sw	v0,36(s8)
a080dcf8:	8fc20050 	lw	v0,80(s8)
a080dcfc:	00000000 	nop
a080dd00:	afc20020 	sw	v0,32(s8)
a080dd04:	3c02a010 	lui	v0,0xa010
a080dd08:	34420400 	ori	v0,v0,0x400
a080dd0c:	afc20018 	sw	v0,24(s8)
a080dd10:	1000003d 	b	a080de08 <sdwrite+0x1a8>
a080dd14:	00000000 	nop
a080dd18:	8fc20024 	lw	v0,36(s8)
a080dd1c:	00000000 	nop
a080dd20:	304301ff 	andi	v1,v0,0x1ff
a080dd24:	24020200 	li	v0,512
a080dd28:	00431023 	subu	v0,v0,v1
a080dd2c:	8fc30020 	lw	v1,32(s8)
a080dd30:	00000000 	nop
a080dd34:	afc3003c 	sw	v1,60(s8)
a080dd38:	afc20038 	sw	v0,56(s8)
a080dd3c:	8fc40038 	lw	a0,56(s8)
a080dd40:	8fc3003c 	lw	v1,60(s8)
a080dd44:	00000000 	nop
a080dd48:	0064102b 	sltu	v0,v1,a0
a080dd4c:	10400004 	beqz	v0,a080dd60 <sdwrite+0x100>
a080dd50:	00000000 	nop
a080dd54:	8fc4003c 	lw	a0,60(s8)
a080dd58:	00000000 	nop
a080dd5c:	afc40038 	sw	a0,56(s8)
a080dd60:	8fc20038 	lw	v0,56(s8)
a080dd64:	00000000 	nop
a080dd68:	afc2001c 	sw	v0,28(s8)
a080dd6c:	8fc20024 	lw	v0,36(s8)
a080dd70:	00000000 	nop
a080dd74:	304301ff 	andi	v1,v0,0x1ff
a080dd78:	8fc20018 	lw	v0,24(s8)
a080dd7c:	00000000 	nop
a080dd80:	00431021 	addu	v0,v0,v1
a080dd84:	00402021 	move	a0,v0
a080dd88:	8fc50048 	lw	a1,72(s8)
a080dd8c:	8fc6001c 	lw	a2,28(s8)
a080dd90:	8f998020 	lw	t9,-32736(gp)
a080dd94:	00000000 	nop
a080dd98:	0320f809 	jalr	t9
a080dd9c:	00000000 	nop
a080dda0:	8fdc0010 	lw	gp,16(s8)
a080dda4:	8fc20024 	lw	v0,36(s8)
a080dda8:	00000000 	nop
a080ddac:	00021242 	srl	v0,v0,0x9
a080ddb0:	00402021 	move	a0,v0
a080ddb4:	8fc50018 	lw	a1,24(s8)
a080ddb8:	8f998018 	lw	t9,-32744(gp)
a080ddbc:	00000000 	nop
a080ddc0:	0320f809 	jalr	t9
a080ddc4:	00000000 	nop
a080ddc8:	8fdc0010 	lw	gp,16(s8)
a080ddcc:	8fc30048 	lw	v1,72(s8)
a080ddd0:	8fc2001c 	lw	v0,28(s8)
a080ddd4:	00000000 	nop
a080ddd8:	00621021 	addu	v0,v1,v0
a080dddc:	afc20048 	sw	v0,72(s8)
a080dde0:	8fc30024 	lw	v1,36(s8)
a080dde4:	8fc2001c 	lw	v0,28(s8)
a080dde8:	00000000 	nop
a080ddec:	00621021 	addu	v0,v1,v0
a080ddf0:	afc20024 	sw	v0,36(s8)
a080ddf4:	8fc30020 	lw	v1,32(s8)
a080ddf8:	8fc2001c 	lw	v0,28(s8)
a080ddfc:	00000000 	nop
a080de00:	00621023 	subu	v0,v1,v0
a080de04:	afc20020 	sw	v0,32(s8)
a080de08:	8fc20020 	lw	v0,32(s8)
a080de0c:	00000000 	nop
a080de10:	1440ffc1 	bnez	v0,a080dd18 <sdwrite+0xb8>
a080de14:	00000000 	nop
a080de18:	8fc20024 	lw	v0,36(s8)
a080de1c:	00000000 	nop
a080de20:	afc2004c 	sw	v0,76(s8)
a080de24:	8fc20050 	lw	v0,80(s8)
a080de28:	03c0e821 	move	sp,s8
a080de2c:	8fbf0044 	lw	ra,68(sp)
a080de30:	8fbe0040 	lw	s8,64(sp)
a080de34:	27bd0048 	addiu	sp,sp,72
a080de38:	03e00008 	jr	ra
a080de3c:	00000000 	nop
	...

a080de48 <.pic.sdread>:
a080de48:	3c19a081 	lui	t9,0xa081
a080de4c:	2739de50 	addiu	t9,t9,-8624

a080de50 <sdread>:
a080de50:	27bdffb8 	addiu	sp,sp,-72
a080de54:	afbf0044 	sw	ra,68(sp)
a080de58:	afbe0040 	sw	s8,64(sp)
a080de5c:	03a0f021 	move	s8,sp
a080de60:	3c1ca082 	lui	gp,0xa082
a080de64:	279c8080 	addiu	gp,gp,-32640
a080de68:	afbc0010 	sw	gp,16(sp)
a080de6c:	afc40048 	sw	a0,72(s8)
a080de70:	afc5004c 	sw	a1,76(s8)
a080de74:	afc60050 	sw	a2,80(s8)
a080de78:	3c028005 	lui	v0,0x8005
a080de7c:	3442f65c 	ori	v0,v0,0xf65c
a080de80:	afc20034 	sw	v0,52(s8)
a080de84:	8f99801c 	lw	t9,-32740(gp)
a080de88:	00000000 	nop
a080de8c:	0320f809 	jalr	t9
a080de90:	00000000 	nop
a080de94:	8fdc0010 	lw	gp,16(s8)
a080de98:	1040000d 	beqz	v0,a080ded0 <sdread+0x80>
a080de9c:	00000000 	nop
a080dea0:	3c028007 	lui	v0,0x8007
a080dea4:	3442b1cc 	ori	v0,v0,0xb1cc
a080dea8:	afc20030 	sw	v0,48(s8)
a080deac:	8fd90030 	lw	t9,48(s8)
a080deb0:	8fc40048 	lw	a0,72(s8)
a080deb4:	8fc5004c 	lw	a1,76(s8)
a080deb8:	8fc60050 	lw	a2,80(s8)
a080debc:	0320f809 	jalr	t9
a080dec0:	00000000 	nop
a080dec4:	8fdc0010 	lw	gp,16(s8)
a080dec8:	10000051 	b	a080e010 <sdread+0x1c0>
a080decc:	00000000 	nop
a080ded0:	3c028007 	lui	v0,0x8007
a080ded4:	34429cd8 	ori	v0,v0,0x9cd8
a080ded8:	afc20028 	sw	v0,40(s8)
a080dedc:	8fc2004c 	lw	v0,76(s8)
a080dee0:	00000000 	nop
a080dee4:	afc20024 	sw	v0,36(s8)
a080dee8:	8fc20050 	lw	v0,80(s8)
a080deec:	00000000 	nop
a080def0:	afc20020 	sw	v0,32(s8)
a080def4:	3c02a010 	lui	v0,0xa010
a080def8:	34420200 	ori	v0,v0,0x200
a080defc:	afc20018 	sw	v0,24(s8)
a080df00:	1000003c 	b	a080dff4 <sdread+0x1a4>
a080df04:	00000000 	nop
a080df08:	8fc20024 	lw	v0,36(s8)
a080df0c:	00000000 	nop
a080df10:	00021242 	srl	v0,v0,0x9
a080df14:	8fd90028 	lw	t9,40(s8)
a080df18:	00402021 	move	a0,v0
a080df1c:	8fc50018 	lw	a1,24(s8)
a080df20:	0320f809 	jalr	t9
a080df24:	00000000 	nop
a080df28:	8fdc0010 	lw	gp,16(s8)
a080df2c:	8fc20024 	lw	v0,36(s8)
a080df30:	00000000 	nop
a080df34:	304301ff 	andi	v1,v0,0x1ff
a080df38:	24020200 	li	v0,512
a080df3c:	00431023 	subu	v0,v0,v1
a080df40:	8fc30020 	lw	v1,32(s8)
a080df44:	00000000 	nop
a080df48:	afc3003c 	sw	v1,60(s8)
a080df4c:	afc20038 	sw	v0,56(s8)
a080df50:	8fc40038 	lw	a0,56(s8)
a080df54:	8fc3003c 	lw	v1,60(s8)
a080df58:	00000000 	nop
a080df5c:	0064102b 	sltu	v0,v1,a0
a080df60:	10400004 	beqz	v0,a080df74 <sdread+0x124>
a080df64:	00000000 	nop
a080df68:	8fc4003c 	lw	a0,60(s8)
a080df6c:	00000000 	nop
a080df70:	afc40038 	sw	a0,56(s8)
a080df74:	8fc20038 	lw	v0,56(s8)
a080df78:	00000000 	nop
a080df7c:	afc2001c 	sw	v0,28(s8)
a080df80:	8fc20024 	lw	v0,36(s8)
a080df84:	00000000 	nop
a080df88:	304301ff 	andi	v1,v0,0x1ff
a080df8c:	8fc20018 	lw	v0,24(s8)
a080df90:	00000000 	nop
a080df94:	00431021 	addu	v0,v0,v1
a080df98:	8fc40048 	lw	a0,72(s8)
a080df9c:	00402821 	move	a1,v0
a080dfa0:	8fc6001c 	lw	a2,28(s8)
a080dfa4:	8f998020 	lw	t9,-32736(gp)
a080dfa8:	00000000 	nop
a080dfac:	0320f809 	jalr	t9
a080dfb0:	00000000 	nop
a080dfb4:	8fdc0010 	lw	gp,16(s8)
a080dfb8:	8fc30048 	lw	v1,72(s8)
a080dfbc:	8fc2001c 	lw	v0,28(s8)
a080dfc0:	00000000 	nop
a080dfc4:	00621021 	addu	v0,v1,v0
a080dfc8:	afc20048 	sw	v0,72(s8)
a080dfcc:	8fc30024 	lw	v1,36(s8)
a080dfd0:	8fc2001c 	lw	v0,28(s8)
a080dfd4:	00000000 	nop
a080dfd8:	00621021 	addu	v0,v1,v0
a080dfdc:	afc20024 	sw	v0,36(s8)
a080dfe0:	8fc30020 	lw	v1,32(s8)
a080dfe4:	8fc2001c 	lw	v0,28(s8)
a080dfe8:	00000000 	nop
a080dfec:	00621023 	subu	v0,v1,v0
a080dff0:	afc20020 	sw	v0,32(s8)
a080dff4:	8fc20020 	lw	v0,32(s8)
a080dff8:	00000000 	nop
a080dffc:	1440ffc2 	bnez	v0,a080df08 <sdread+0xb8>
a080e000:	00000000 	nop
a080e004:	8fc20024 	lw	v0,36(s8)
a080e008:	00000000 	nop
a080e00c:	afc2004c 	sw	v0,76(s8)
a080e010:	8fc20050 	lw	v0,80(s8)
a080e014:	03c0e821 	move	sp,s8
a080e018:	8fbf0044 	lw	ra,68(sp)
a080e01c:	8fbe0040 	lw	s8,64(sp)
a080e020:	27bd0048 	addiu	sp,sp,72
a080e024:	03e00008 	jr	ra
a080e028:	00000000 	nop
a080e02c:	00000000 	nop

a080e030 <memcopy>:
a080e030:	27bdffe8 	addiu	sp,sp,-24
a080e034:	afbe0014 	sw	s8,20(sp)
a080e038:	03a0f021 	move	s8,sp
a080e03c:	afbc0000 	sw	gp,0(sp)
a080e040:	afc40018 	sw	a0,24(s8)
a080e044:	afc5001c 	sw	a1,28(s8)
a080e048:	afc60020 	sw	a2,32(s8)
a080e04c:	8fc2001c 	lw	v0,28(s8)
a080e050:	00000000 	nop
a080e054:	afc2000c 	sw	v0,12(s8)
a080e058:	8fc20018 	lw	v0,24(s8)
a080e05c:	00000000 	nop
a080e060:	afc20008 	sw	v0,8(s8)
a080e064:	8fc3000c 	lw	v1,12(s8)
a080e068:	8fc20008 	lw	v0,8(s8)
a080e06c:	00000000 	nop
a080e070:	0062102b 	sltu	v0,v1,v0
a080e074:	10400035 	beqz	v0,a080e14c <memcopy+0x11c>
a080e078:	00000000 	nop
a080e07c:	8fc30020 	lw	v1,32(s8)
a080e080:	8fc2000c 	lw	v0,12(s8)
a080e084:	00000000 	nop
a080e088:	00431021 	addu	v0,v0,v1
a080e08c:	afc2000c 	sw	v0,12(s8)
a080e090:	8fc30020 	lw	v1,32(s8)
a080e094:	8fc20008 	lw	v0,8(s8)
a080e098:	00000000 	nop
a080e09c:	00431021 	addu	v0,v0,v1
a080e0a0:	afc20008 	sw	v0,8(s8)
a080e0a4:	1000000f 	b	a080e0e4 <memcopy+0xb4>
a080e0a8:	00000000 	nop
a080e0ac:	8fc20008 	lw	v0,8(s8)
a080e0b0:	00000000 	nop
a080e0b4:	2442ffff 	addiu	v0,v0,-1
a080e0b8:	afc20008 	sw	v0,8(s8)
a080e0bc:	8fc2000c 	lw	v0,12(s8)
a080e0c0:	00000000 	nop
a080e0c4:	2442ffff 	addiu	v0,v0,-1
a080e0c8:	afc2000c 	sw	v0,12(s8)
a080e0cc:	8fc2000c 	lw	v0,12(s8)
a080e0d0:	00000000 	nop
a080e0d4:	80430000 	lb	v1,0(v0)
a080e0d8:	8fc20008 	lw	v0,8(s8)
a080e0dc:	00000000 	nop
a080e0e0:	a0430000 	sb	v1,0(v0)
a080e0e4:	8fc20020 	lw	v0,32(s8)
a080e0e8:	00000000 	nop
a080e0ec:	0002102a 	slt	v0,zero,v0
a080e0f0:	304300ff 	andi	v1,v0,0xff
a080e0f4:	8fc20020 	lw	v0,32(s8)
a080e0f8:	00000000 	nop
a080e0fc:	2442ffff 	addiu	v0,v0,-1
a080e100:	afc20020 	sw	v0,32(s8)
a080e104:	1460ffe9 	bnez	v1,a080e0ac <memcopy+0x7c>
a080e108:	00000000 	nop
a080e10c:	10000019 	b	a080e174 <memcopy+0x144>
a080e110:	00000000 	nop
a080e114:	8fc2000c 	lw	v0,12(s8)
a080e118:	00000000 	nop
a080e11c:	80430000 	lb	v1,0(v0)
a080e120:	8fc20008 	lw	v0,8(s8)
a080e124:	00000000 	nop
a080e128:	a0430000 	sb	v1,0(v0)
a080e12c:	8fc20008 	lw	v0,8(s8)
a080e130:	00000000 	nop
a080e134:	24420001 	addiu	v0,v0,1
a080e138:	afc20008 	sw	v0,8(s8)
a080e13c:	8fc2000c 	lw	v0,12(s8)
a080e140:	00000000 	nop
a080e144:	24420001 	addiu	v0,v0,1
a080e148:	afc2000c 	sw	v0,12(s8)
a080e14c:	8fc20020 	lw	v0,32(s8)
a080e150:	00000000 	nop
a080e154:	0002102a 	slt	v0,zero,v0
a080e158:	304300ff 	andi	v1,v0,0xff
a080e15c:	8fc20020 	lw	v0,32(s8)
a080e160:	00000000 	nop
a080e164:	2442ffff 	addiu	v0,v0,-1
a080e168:	afc20020 	sw	v0,32(s8)
a080e16c:	1460ffe9 	bnez	v1,a080e114 <memcopy+0xe4>
a080e170:	00000000 	nop
a080e174:	8fc20018 	lw	v0,24(s8)
a080e178:	03c0e821 	move	sp,s8
a080e17c:	8fbe0014 	lw	s8,20(sp)
a080e180:	27bd0018 	addiu	sp,sp,24
a080e184:	03e00008 	jr	ra
a080e188:	00000000 	nop
a080e18c:	00000000 	nop

a080e190 <Write_Single_Block>:
a080e190:	27bdffc0 	addiu	sp,sp,-64
a080e194:	afbf003c 	sw	ra,60(sp)
a080e198:	afbe0038 	sw	s8,56(sp)
a080e19c:	03a0f021 	move	s8,sp
a080e1a0:	afbc0010 	sw	gp,16(sp)
a080e1a4:	afc40040 	sw	a0,64(s8)
a080e1a8:	afc50044 	sw	a1,68(s8)
a080e1ac:	3c028007 	lui	v0,0x8007
a080e1b0:	344294c0 	ori	v0,v0,0x94c0
a080e1b4:	afc20034 	sw	v0,52(s8)
a080e1b8:	3c028007 	lui	v0,0x8007
a080e1bc:	344294f8 	ori	v0,v0,0x94f8
a080e1c0:	afc20030 	sw	v0,48(s8)
a080e1c4:	3c028007 	lui	v0,0x8007
a080e1c8:	34429528 	ori	v0,v0,0x9528
a080e1cc:	afc2002c 	sw	v0,44(s8)
a080e1d0:	3c028007 	lui	v0,0x8007
a080e1d4:	34429564 	ori	v0,v0,0x9564
a080e1d8:	afc20028 	sw	v0,40(s8)
a080e1dc:	3c028007 	lui	v0,0x8007
a080e1e0:	34429588 	ori	v0,v0,0x9588
a080e1e4:	afc20024 	sw	v0,36(s8)
a080e1e8:	2402000a 	li	v0,10
a080e1ec:	afc20018 	sw	v0,24(s8)
a080e1f0:	afc00020 	sw	zero,32(s8)
a080e1f4:	10000012 	b	a080e240 <Write_Single_Block+0xb0>
a080e1f8:	00000000 	nop
a080e1fc:	8fd90024 	lw	t9,36(s8)
a080e200:	24040018 	li	a0,24
a080e204:	8fc50040 	lw	a1,64(s8)
a080e208:	24060001 	li	a2,1
a080e20c:	24070001 	li	a3,1
a080e210:	0320f809 	jalr	t9
a080e214:	00000000 	nop
a080e218:	8fdc0010 	lw	gp,16(s8)
a080e21c:	afc2001c 	sw	v0,28(s8)
a080e220:	8fc3001c 	lw	v1,28(s8)
a080e224:	3402ff00 	li	v0,0xff00
a080e228:	1062000b 	beq	v1,v0,a080e258 <Write_Single_Block+0xc8>
a080e22c:	00000000 	nop
a080e230:	8fc20020 	lw	v0,32(s8)
a080e234:	00000000 	nop
a080e238:	24420001 	addiu	v0,v0,1
a080e23c:	afc20020 	sw	v0,32(s8)
a080e240:	8fc20020 	lw	v0,32(s8)
a080e244:	8fc30018 	lw	v1,24(s8)
a080e248:	00000000 	nop
a080e24c:	0043102b 	sltu	v0,v0,v1
a080e250:	1440ffea 	bnez	v0,a080e1fc <Write_Single_Block+0x6c>
a080e254:	00000000 	nop
a080e258:	8fd90034 	lw	t9,52(s8)
a080e25c:	240400ff 	li	a0,255
a080e260:	0320f809 	jalr	t9
a080e264:	00000000 	nop
a080e268:	8fdc0010 	lw	gp,16(s8)
a080e26c:	8fd9002c 	lw	t9,44(s8)
a080e270:	240400fe 	li	a0,254
a080e274:	0320f809 	jalr	t9
a080e278:	00000000 	nop
a080e27c:	8fdc0010 	lw	gp,16(s8)
a080e280:	afc00020 	sw	zero,32(s8)
a080e284:	1000001d 	b	a080e2fc <Write_Single_Block+0x16c>
a080e288:	00000000 	nop
a080e28c:	8fc20020 	lw	v0,32(s8)
a080e290:	00000000 	nop
a080e294:	00021840 	sll	v1,v0,0x1
a080e298:	8fc20044 	lw	v0,68(s8)
a080e29c:	00000000 	nop
a080e2a0:	00431021 	addu	v0,v0,v1
a080e2a4:	90420000 	lbu	v0,0(v0)
a080e2a8:	00000000 	nop
a080e2ac:	00022200 	sll	a0,v0,0x8
a080e2b0:	8fc20020 	lw	v0,32(s8)
a080e2b4:	00000000 	nop
a080e2b8:	00021040 	sll	v0,v0,0x1
a080e2bc:	24430001 	addiu	v1,v0,1
a080e2c0:	8fc20044 	lw	v0,68(s8)
a080e2c4:	00000000 	nop
a080e2c8:	00431021 	addu	v0,v0,v1
a080e2cc:	90420000 	lbu	v0,0(v0)
a080e2d0:	00000000 	nop
a080e2d4:	00821025 	or	v0,a0,v0
a080e2d8:	8fd90030 	lw	t9,48(s8)
a080e2dc:	00402021 	move	a0,v0
a080e2e0:	0320f809 	jalr	t9
a080e2e4:	00000000 	nop
a080e2e8:	8fdc0010 	lw	gp,16(s8)
a080e2ec:	8fc20020 	lw	v0,32(s8)
a080e2f0:	00000000 	nop
a080e2f4:	24420001 	addiu	v0,v0,1
a080e2f8:	afc20020 	sw	v0,32(s8)
a080e2fc:	8fc20020 	lw	v0,32(s8)
a080e300:	00000000 	nop
a080e304:	2c420100 	sltiu	v0,v0,256
a080e308:	1440ffe0 	bnez	v0,a080e28c <Write_Single_Block+0xfc>
a080e30c:	00000000 	nop
a080e310:	8fd90030 	lw	t9,48(s8)
a080e314:	3404ffff 	li	a0,0xffff
a080e318:	0320f809 	jalr	t9
a080e31c:	00000000 	nop
a080e320:	8fdc0010 	lw	gp,16(s8)
a080e324:	8fd90028 	lw	t9,40(s8)
a080e328:	00000000 	nop
a080e32c:	0320f809 	jalr	t9
a080e330:	00000000 	nop
a080e334:	8fdc0010 	lw	gp,16(s8)
a080e338:	afc2001c 	sw	v0,28(s8)
a080e33c:	8fd90028 	lw	t9,40(s8)
a080e340:	00000000 	nop
a080e344:	0320f809 	jalr	t9
a080e348:	00000000 	nop
a080e34c:	8fdc0010 	lw	gp,16(s8)
a080e350:	00401821 	move	v1,v0
a080e354:	3402ffff 	li	v0,0xffff
a080e358:	1462fff8 	bne	v1,v0,a080e33c <Write_Single_Block+0x1ac>
a080e35c:	00000000 	nop
a080e360:	3c02bfe8 	lui	v0,0xbfe8
a080e364:	34430005 	ori	v1,v0,0x5
a080e368:	2402ffff 	li	v0,-1
a080e36c:	a0620000 	sb	v0,0(v1)
a080e370:	8fd90034 	lw	t9,52(s8)
a080e374:	240400ff 	li	a0,255
a080e378:	0320f809 	jalr	t9
a080e37c:	00000000 	nop
a080e380:	8fdc0010 	lw	gp,16(s8)
a080e384:	8fc2001c 	lw	v0,28(s8)
a080e388:	03c0e821 	move	sp,s8
a080e38c:	8fbf003c 	lw	ra,60(sp)
a080e390:	8fbe0038 	lw	s8,56(sp)
a080e394:	27bd0040 	addiu	sp,sp,64
a080e398:	03e00008 	jr	ra
a080e39c:	00000000 	nop

a080e3a0 <isQEMU>:
a080e3a0:	27bdffe0 	addiu	sp,sp,-32
a080e3a4:	afbe001c 	sw	s8,28(sp)
a080e3a8:	03a0f021 	move	s8,sp
a080e3ac:	afbc0000 	sw	gp,0(sp)
a080e3b0:	3c028005 	lui	v0,0x8005
a080e3b4:	3442f65c 	ori	v0,v0,0xf65c
a080e3b8:	afc20008 	sw	v0,8(s8)
a080e3bc:	8fc20008 	lw	v0,8(s8)
a080e3c0:	00000000 	nop
a080e3c4:	8c430000 	lw	v1,0(v0)
a080e3c8:	3c0227bd 	lui	v0,0x27bd
a080e3cc:	3442ffa8 	ori	v0,v0,0xffa8
a080e3d0:	14620005 	bne	v1,v0,a080e3e8 <isQEMU+0x48>
a080e3d4:	00000000 	nop
a080e3d8:	24020001 	li	v0,1
a080e3dc:	afc20010 	sw	v0,16(s8)
a080e3e0:	10000002 	b	a080e3ec <isQEMU+0x4c>
a080e3e4:	00000000 	nop
a080e3e8:	afc00010 	sw	zero,16(s8)
a080e3ec:	8fc20010 	lw	v0,16(s8)
a080e3f0:	03c0e821 	move	sp,s8
a080e3f4:	8fbe001c 	lw	s8,28(sp)
a080e3f8:	27bd0020 	addiu	sp,sp,32
a080e3fc:	03e00008 	jr	ra
a080e400:	00000000 	nop
	...
a080e410:	255b6325 	addiu	k1,t2,25381
a080e414:	64253b64 	daddiu	a1,at,15204
a080e418:	00000048 	0x48
a080e41c:	325b6325 	andi	k1,s2,0x6325
a080e420:	0000004a 	0x4a
a080e424:	3f5b6325 	0x3f5b6325
a080e428:	006c3532 	tlt	v1,t4,0xd4
a080e42c:	00000000 	nop
a080e430:	445b3e3e 	0x445b3e3e
a080e434:	5220414d 	beqzl	s1,a081e96c <_gp+0x68ec>
a080e438:	73696765 	0x73696765
a080e43c:	5d726574 	0x5d726574
a080e440:	0000000a 	0xa
a080e444:	305b2020 	andi	k1,v0,0x2020
a080e448:	7542205d 	jalx	a5088174 <_gp+0x48700f4>
a080e44c:	6f4d2073 	ldr	t5,8307(k0)
a080e450:	3a206564 	xori	zero,s1,0x6564
a080e454:	25783020 	addiu	t8,t3,12320
a080e458:	00202c78 	0x202c78
a080e45c:	335b2020 	andi	k1,k0,0x2020
a080e460:	205d342d 	addi	sp,v0,13357
a080e464:	522f5854 	beql	s1,t7,a08245b8 <_gp+0xc538>
a080e468:	203a2058 	addi	k0,at,8280
a080e46c:	78257830 	0x78257830
a080e470:	2578302f 	addiu	t8,t3,12335
a080e474:	00000a78 	dsll	at,zero,0x9
a080e478:	355b2020 	ori	k1,t2,0x2020
a080e47c:	7453205d 	jalx	a14c8174 <_gp+0xcb00f4>
a080e480:	73757461 	0x73757461
a080e484:	30203a20 	andi	zero,at,0x3a20
a080e488:	2c782578 	sltiu	t8,v1,9592
a080e48c:	00000020 	add	zero,zero,zero
a080e490:	365b2020 	ori	k1,s2,0x2020
a080e494:	6f43205d 	ldr	v1,8285(k0)
a080e498:	6f72746e 	ldr	s2,29806(k1)
a080e49c:	203a206c 	addi	k0,at,8300
a080e4a0:	78257830 	0x78257830
a080e4a4:	0000000a 	0xa
a080e4a8:	375b2020 	ori	k1,k0,0x2020
a080e4ac:	6e49205d 	ldr	t1,8285(s2)
a080e4b0:	72726574 	0x72726574
a080e4b4:	20747075 	addi	s4,v1,28789
a080e4b8:	7830203a 	0x7830203a
a080e4bc:	202c7825 	addi	t4,at,30757
a080e4c0:	00000000 	nop
a080e4c4:	385b2020 	xori	k1,v0,0x2020
a080e4c8:	694d205d 	ldl	t5,8285(t2)
a080e4cc:	64657373 	daddiu	a1,v1,29555
a080e4d0:	30203a20 	andi	zero,at,0x3a20
a080e4d4:	0a782578 	j	a9e095e0 <_gp+0x95f1560>
a080e4d8:	00000000 	nop
a080e4dc:	315b2020 	andi	k1,t2,0x2020
a080e4e0:	39312d38 	xori	s1,t1,0x2d38
a080e4e4:	7543205d 	jalx	a50c8174 <_gp+0x48b00f4>
a080e4e8:	6e657272 	ldr	a1,29298(s3)
a080e4ec:	6f482074 	ldr	t0,8308(k0)
a080e4f0:	54207473 	bnezl	at,a082b6c0 <_gp+0x13640>
a080e4f4:	58522f58 	0x58522f58
a080e4f8:	73654420 	0x73654420
a080e4fc:	70697263 	0x70697263
a080e500:	6e6f6974 	ldr	t7,26996(s3)
a080e504:	30203a20 	andi	zero,at,0x3a20
a080e508:	2f782578 	sltiu	t8,k1,9592
a080e50c:	78257830 	0x78257830
a080e510:	0000000a 	0xa
a080e514:	325b2020 	andi	k1,s2,0x2020
a080e518:	31322d30 	andi	s2,t1,0x2d30
a080e51c:	7543205d 	jalx	a50c8174 <_gp+0x48b00f4>
a080e520:	6e657272 	ldr	a1,29298(s3)
a080e524:	6f482074 	ldr	t0,8308(k0)
a080e528:	54207473 	bnezl	at,a082b6f8 <_gp+0x13678>
a080e52c:	58522f58 	0x58522f58
a080e530:	66754220 	daddiu	s5,s3,16928
a080e534:	20726566 	addi	s2,v1,25958
a080e538:	72646441 	0x72646441
a080e53c:	20737365 	addi	s3,v1,29541
a080e540:	7830203a 	0x7830203a
a080e544:	302f7825 	andi	t7,at,0x7825
a080e548:	0a782578 	j	a9e095e0 <_gp+0x95f1560>
a080e54c:	00000000 	nop
a080e550:	4d5b3e3e 	0x4d5b3e3e
a080e554:	52204341 	beqzl	s1,a081f25c <_gp+0x71dc>
a080e558:	73696765 	0x73696765
a080e55c:	5d726574 	0x5d726574
a080e560:	0000000a 	0xa
a080e564:	305b2020 	andi	k1,v0,0x2020
a080e568:	6f43205d 	ldr	v1,8285(k0)
a080e56c:	6769666e 	daddiu	t1,k1,26222
a080e570:	20657275 	addi	a1,v1,29301
a080e574:	7830203a 	0x7830203a
a080e578:	202c7825 	addi	t4,at,30757
a080e57c:	00000000 	nop
a080e580:	315b2020 	andi	k1,t2,0x2020
a080e584:	7246205d 	0x7246205d
a080e588:	20656d61 	addi	a1,v1,28001
a080e58c:	746c6946 	jalx	a1b1a518 <_gp+0x1302498>
a080e590:	3a207265 	xori	zero,s1,0x7265
a080e594:	25783020 	addiu	t8,t3,12320
a080e598:	00000a78 	dsll	at,zero,0x9
a080e59c:	325b2020 	andi	k1,s2,0x2020
a080e5a0:	205d332d 	addi	sp,v0,13101
a080e5a4:	68736148 	ldl	s3,24904(v1)
a080e5a8:	62615420 	daddi	at,s3,21536
a080e5ac:	4820656c 	0x4820656c
a080e5b0:	2f686769 	sltiu	t0,k1,26473
a080e5b4:	20776f4c 	addi	s7,v1,28492
a080e5b8:	7830203a 	0x7830203a
a080e5bc:	302d7825 	andi	t5,at,0x7825
a080e5c0:	0a782578 	j	a9e095e0 <_gp+0x95f1560>
a080e5c4:	00000000 	nop
a080e5c8:	365b2020 	ori	k1,s2,0x2020
a080e5cc:	6c46205d 	ldr	a2,8285(v0)
a080e5d0:	4320776f 	c0	0x120776f
a080e5d4:	72746e6f 	0x72746e6f
a080e5d8:	3a206c6f 	xori	zero,s1,0x6c6f
a080e5dc:	25783020 	addiu	t8,t3,12320
a080e5e0:	00202c78 	0x202c78
a080e5e4:	385b2020 	xori	k1,v0,0x2020
a080e5e8:	6556205d 	daddiu	s6,t2,8285
a080e5ec:	6f697372 	ldr	t1,29554(k1)
a080e5f0:	203a206e 	addi	k0,at,8302
a080e5f4:	78257830 	0x78257830
a080e5f8:	0000000a 	0xa
a080e5fc:	315b2020 	andi	k1,t2,0x2020
a080e600:	35312d34 	ori	s1,t1,0x2d34
a080e604:	6e49205d 	ldr	t1,8285(s2)
a080e608:	72726574 	0x72726574
a080e60c:	20747075 	addi	s4,v1,28789
a080e610:	74617453 	jalx	a185d14c <_gp+0x10450cc>
a080e614:	4d2f7375 	0x4d2f7375
a080e618:	206b7361 	addi	t3,v1,29537
a080e61c:	7830203a 	0x7830203a
a080e620:	302f7825 	andi	t7,at,0x7825
a080e624:	0a782578 	j	a9e095e0 <_gp+0x95f1560>
a080e628:	00000000 	nop
a080e62c:	315b2020 	andi	k1,t2,0x2020
a080e630:	37312d36 	ori	s1,t9,0x2d36
a080e634:	614d205d 	daddi	t5,t2,8285
a080e638:	64412063 	daddiu	at,v0,8291
a080e63c:	3a207264 	xori	zero,s1,0x7264
a080e640:	3a582520 	xori	t8,s2,0x2520
a080e644:	253a5825 	addiu	k0,t1,22565
a080e648:	58253a58 	0x58253a58
a080e64c:	3a58253a 	xori	t8,s2,0x253a
a080e650:	000a5825 	or	t3,zero,t2
a080e654:	335b2020 	andi	k1,k0,0x2020
a080e658:	205d342d 	addi	sp,v0,13357
a080e65c:	542f5852 	bnel	at,t7,a08247a8 <_gp+0xc728>
a080e660:	203a2058 	addi	k0,at,8280
a080e664:	78257830 	0x78257830
a080e668:	2578302f 	addiu	t8,t3,12335
a080e66c:	00000a78 	dsll	at,zero,0x9
a080e670:	646e6573 	daddiu	t6,v1,25971
a080e674:	66756220 	daddiu	s5,s3,25120
a080e678:	20726566 	addi	s2,v1,25958
a080e67c:	2d63616d 	sltiu	v1,t3,24941
a080e680:	6461733e 	daddiu	at,v1,29502
a080e684:	303d7264 	andi	sp,at,0x7264
a080e688:	20782578 	addi	t8,v1,9592
a080e68c:	00000000 	nop
a080e690:	2d63616d 	sltiu	v1,t3,24941
a080e694:	6461733e 	daddiu	at,v1,29502
a080e698:	705f7264 	0x705f7264
a080e69c:	303d7968 	andi	sp,at,0x7968
a080e6a0:	20782578 	addi	t8,v1,9592
a080e6a4:	00000000 	nop
a080e6a8:	646e6573 	daddiu	t6,v1,25971
a080e6ac:	73696420 	0x73696420
a080e6b0:	20627263 	addi	v0,v1,29283
a080e6b4:	2d63616d 	sltiu	v1,t3,24941
a080e6b8:	5f64743e 	0x5f64743e
a080e6bc:	3d796870 	0x3d796870
a080e6c0:	78257830 	0x78257830
a080e6c4:	0000000a 	0xa
a080e6c8:	69636572 	ldl	v1,25970(t3)
a080e6cc:	20657665 	addi	a1,v1,30309
a080e6d0:	66667562 	daddiu	a2,s3,30050
a080e6d4:	61207265 	daddi	zero,t1,29285
a080e6d8:	6d206464 	ldr	zero,25700(t1)
a080e6dc:	3e2d6361 	0x3e2d6361
a080e6e0:	64646164 	daddiu	a0,v1,24932
a080e6e4:	78303d72 	0x78303d72
a080e6e8:	00207825 	move	t7,at
a080e6ec:	2d63616d 	sltiu	v1,t3,24941
a080e6f0:	6461643e 	daddiu	at,v1,25662
a080e6f4:	705f7264 	0x705f7264
a080e6f8:	303d7968 	andi	sp,at,0x7968
a080e6fc:	20782578 	addi	t8,v1,9592
a080e700:	00000000 	nop
a080e704:	69636572 	ldl	v1,25970(t3)
a080e708:	20657665 	addi	a1,v1,30309
a080e70c:	63736964 	daddi	s3,k1,26980
a080e710:	61206272 	daddi	zero,t1,25202
a080e714:	6d206464 	ldr	zero,25700(t1)
a080e718:	3e2d6361 	0x3e2d6361
a080e71c:	705f6472 	0x705f6472
a080e720:	303d7968 	andi	sp,at,0x7968
a080e724:	0a782578 	j	a9e095e0 <_gp+0x95f1560>
a080e728:	00000000 	nop
a080e72c:	65523e3e 	daddiu	s2,t2,15934
a080e730:	76696563 	jalx	a9a5958c <_gp+0x924150c>
a080e734:	64252065 	daddiu	a1,at,8293
a080e738:	6c615620 	ldr	at,22048(v1)
a080e73c:	50206469 	beqzl	at,a08278e4 <_gp+0xf864>
a080e740:	616b6361 	daddi	t3,t3,25441
a080e744:	0a736567 	j	a9cd959c <_gp+0x94c151c>
a080e748:	00000000 	nop

a080e74c <C.47.1731>:
a080e74c:	b57b5500 0000f77d 00000000 00000000     .U{.}...........
a080e75c:	00000000 495b203e 5d54494e 746e4920     ....> [INIT] Int
a080e76c:	75727265 70207470 65636f72 6e697373     errupt processin
a080e77c:	6e692067 61697469 617a696c 6e6f6974     g initialization
a080e78c:	63757320 64656563 0a2e6465 00000000      succeeded......
a080e79c:	495b203e 5d54494e 73795320 206d6574     > [INIT] System 
a080e7ac:	6c6c6163 696e6920 6c616974 64657a69     call initialized
a080e7bc:	63757320 73736563 6c6c7566 000a2e79      successfully...
a080e7cc:	495b203e 5d54494e 42435020 696e6920     > [INIT] PCB ini
a080e7dc:	6c616974 74617a69 206e6f69 63637573     tialization succ
a080e7ec:	65646565 000a2e64 495b203e 5d54494e     eeded...> [INIT]
a080e7fc:	206f4e20 656c6946 73795320 2e6d6574      No File System.
a080e80c:	0000000a 495b203e 5d54494e 6c694620     ....> [INIT] Fil
a080e81c:	79532065 6d657473 696e6920 6c616974     e System initial
a080e82c:	74617a69 206e6f69 63637573 65646565     ization succeede
a080e83c:	000a2e64 495b203e 5d54494e 52435320     d...> [INIT] SCR
a080e84c:	204e4545 74696e69 696c6169 6974617a     EEN initializati
a080e85c:	73206e6f 65636375 64656465 00000a2e     on succeeded....
a080e86c:	00000000 0000002e 00002e2e 5d53465b     ............[FS]
a080e87c:	61745320 69207472 6974696e 7a696c61      Start initializ
a080e88c:	69662065 7973656c 6d657473 20202021     e filesystem!   
a080e89c:	20202020 0a202020 00000000 5d53465b            .....[FS]
a080e8ac:	74655320 676e6974 70757320 6c627265      Setting superbl
a080e8bc:	2e6b636f 20202e2e 20202020 20202020     ock...          
a080e8cc:	20202020 0a202020 00000000 5d53465b            .....[FS]
a080e8dc:	74655320 676e6974 6f6e6920 6d2d6564      Setting inode-m
a080e8ec:	2e2e7061 2020202e 20202020 20202020     ap...           
a080e8fc:	20202020 0a202020 00000000 5d53465b            .....[FS]
a080e90c:	74655320 676e6974 6f6c6220 6d2d6b63      Setting block-m
a080e91c:	2e2e7061 2020202e 20202020 20202020     ap...           
a080e92c:	20202020 0a202020 00000000 5d53465b            .....[FS]
a080e93c:	74655320 676e6974 6f6e6920 2e2e6564      Setting inode..
a080e94c:	2020202e 20202020 20202020 20202020     .               
a080e95c:	20202020 0a202020 00000000 5d53465b            .....[FS]
a080e96c:	696e4920 6c616974 20657a69 656c6966      Initialize file
a080e97c:	74737973 66206d65 73696e69 21646568     system finished!
a080e98c:	20202020 0a202020 00000000 5252455b            .....[ERR
a080e99c:	205d524f 46206f4e 20656c69 74737953     OR] No File Syst
a080e9ac:	0a216d65 00000000 6967614d 754e2063     em!.....Magic Nu
a080e9bc:	7265626d 7830203a 4b287825 0a295346     mber: 0x%x(KFS).
a080e9cc:	00000000 72617473 65732074 726f7463     ....start sector
a080e9dc:	6425203a 78302820 2c297825 65737520     : %d (0x%x), use
a080e9ec:	6c622064 3a6b636f 2f642520 000a6425     d block: %d/%d..
a080e9fc:	636f6c62 616d206b 666f2070 74657366     block map offset
a080ea0c:	6425203a 636f202c 69707563 62206465     : %d, occupied b
a080ea1c:	6b636f6c 6425203a 0000000a 646f6e69     lock: %d....inod
a080ea2c:	616d2065 666f2070 74657366 6425203a     e map offset: %d
a080ea3c:	636f202c 69707563 73206465 6f746365     , occupied secto
a080ea4c:	25203a72 75202c64 3a646573 0a642520     r: %d, used: %d.
a080ea5c:	00000000 646f6e69 666f2065 74657366     ....inode offset
a080ea6c:	6425203a 636f202c 69707563 62206465     : %d, occupied b
a080ea7c:	6b636f6c 6425203a 0000000a 61746164     lock: %d....data
a080ea8c:	66666f20 3a746573 2c642520 63636f20      offset: %d, occ
a080ea9c:	65697075 6c622064 3a6b636f 0a642520     upied block: %d.
a080eaac:	00000000 72746e65 69732079 203a657a     ....entry size: 
a080eabc:	0a426425 00000000 00207325 0000000a     %dB.....%s .....
a080eacc:	00006325 20656854 656c6966 73797320     %c..The file sys
a080eadc:	206d6574 20736177 6f6d6572 21646576     tem was removed!
a080eaec:	0000000a 4f52505b 53534543 42415420     ....[PROCESS TAB
a080eafc:	0a5d454c 00000000 205d305b 20444950     LE].....[0] PID 
a080eb0c:	6425203a 41545320 20535554 5552203a     : %d STATUS : RU
a080eb1c:	4e494e4e 00000a47 5d64255b 44495020     NNING...[%d] PID
a080eb2c:	25203a20 54532064 53555441 52203a20      : %d STATUS : R
a080eb3c:	494e4e55 000a474e 5d64255b 44495020     UNNING..[%d] PID
a080eb4c:	25203a20 54532064 53555441 53203a20      : %d STATUS : S
a080eb5c:	5045454c 0000000a 2d2d2d2d 2d2d2d2d     LEEP....--------
a080eb6c:	2d2d2d2d 2d2d2d2d 2d2d2d2d 4d4f4320     ------------ COM
a080eb7c:	444e414d 2d2d2d20 2d2d2d2d 2d2d2d2d     MAND -----------
a080eb8c:	2d2d2d2d 2d2d2d2d 00000a2d 6961570a     ---------....Wai
a080eb9c:	676e6974 73617420 7369206b 746f6e20     ting task is not
a080ebac:	69786520 20217473 20202020 20202020      exist!         
a080ebbc:	20202020 20202020 0000000a 00000000             ........
a080ebcc:	00000000 6b736174 00000031 6b736174     ....task1...task
a080ebdc:	00000034 6b736174 00000035 6b736174     4...task5...task
a080ebec:	00000036 6b736174 00000037 6b736174     6...task7...task
a080ebfc:	00000038 6b736174 00000039 6b736174     8...task9...task
a080ec0c:	00003031 6d612049 73615420 2e41206b     10..I am Task A.
a080ec1c:	29642528 20202020 20202020 0a202020     (%d)           .
a080ec2c:	00000000 6d612049 69617720 676e6974     ....I am waiting
a080ec3c:	73615420 2041206b 65206f74 2e746978      Task A to exit.
a080ec4c:	0000000a 6d612049 73615420 2e42206b     ....I am Task B.
a080ec5c:	29642528 20202020 20202020 0a202020     (%d)           .
a080ec6c:	00000000 6d612049 69617720 676e6974     ....I am waiting
a080ec7c:	73615420 2042206b 65206f74 2e746978      Task B to exit.
a080ec8c:	0000000a 6d612049 73615420 2e43206b     ....I am Task C.
a080ec9c:	29642528 20202020 20202020 0a202020     (%d)           .
a080ecac:	00000000 6b736174 00000031 6b736174     ....task1...task
a080ecbc:	00000032 6b736174 00000033 6b736174     2...task3...task
a080eccc:	00000034 6b736174 00000035 6b736174     4...task5...task
a080ecdc:	00000036 6b736174 00000037 6b736174     6...task7...task
a080ecec:	00000038 6b736174 00000039 6b736174     8...task9...task
a080ecfc:	00003031 6b736174 00003131 6b736174     10..task11..task
a080ed0c:	00003231 516e7553 006e6175 4275694c     12..SunQuan.LiuB
a080ed1c:	00006965 436f6143 00006f61 646e6573     ei..CaoCao..send
a080ed2c:	00000000 00007370 61656c63 00000072     ....ps..clear...
a080ed3c:	73666b6d 00000000 5252455b 205d524f     mkfs....[ERROR] 
a080ed4c:	656c6946 73795320 206d6574 73697865     File System exis
a080ed5c:	0a217374 00000000 74617473 00007366     ts!.....statfs..
a080ed6c:	0000736c 5252455b 205d524f 64206f4e     ls..[ERROR] No d
a080ed7c:	63657269 79726f74 00000a21 00736663     irectory!...cfs.
a080ed8c:	6e6b6e55 206e776f 6d6d6f63 21646e61     Unknown command!
a080ed9c:	0000000a 63657865 00000000 63657865     ....exec....exec
a080edac:	6f727020 73736563 5d64255b 0000000a      process[%d]....
a080edbc:	6c6c696b 00000000 6c6c696b 6f727020     kill....kill pro
a080edcc:	73736563 64697020 25203d20 00000a64     cess pid = %d...
a080eddc:	00006463 69646b6d 00000072 5252455b     cd..mkdir...[ERR
a080edec:	205d524f 65726944 726f7463 78652079     OR] Directory ex
a080edfc:	73747369 00000a21 69646d72 00000072     ists!...rmdir...
a080ee0c:	63756f74 00000068 5252455b 205d524f     touch...[ERROR] 
a080ee1c:	656c6946 69786520 21737473 0000000a     File exists!....
a080ee2c:	00746163 5252455b 205d524f 53206f4e     cat.[ERROR] No S
a080ee3c:	20686375 656c6946 00000a21 006c6c61     uch File!...all.
a080ee4c:	2d2d2d2d 2d2d2d2d 2d2d2d2d 2d2d2d2d     ----------------
a080ee5c:	2d2d2d2d 4d4f4320 444e414d 2d2d2d20     ---- COMMAND ---
a080ee6c:	2d2d2d2d 2d2d2d2d 2d2d2d2d 2d2d2d2d     ----------------
a080ee7c:	00000a2d 6f6f723e 4a444074 534f5f46     -...>root@DJF_OS
a080ee8c:	0020243a 00006325 6f6f723e 4a444074     :$ .%c..>root@DJ
a080ee9c:	534f5f46 0000003a 0073252f 00002024     F_OS:.../%s.$ ..
a080eeac:	00000000 545b203e 5d4b5341 69685420     ....> [TASK] Thi
a080eebc:	61742073 69206b73 6f742073 73657420     s task is to tes
a080eecc:	63732074 75646568 2e72656c 64252820     t scheduler. (%d
a080eedc:	00000029 00007325 00000000 00000000     )...%s..........
a080eeec:	00000000 545b203e 5d4b5341 69685420     ....> [TASK] Thi
a080eefc:	61742073 69206b73 6f742073 73657420     s task is to tes
a080ef0c:	63732074 75646568 2e72656c 64252820     t scheduler. (%d
a080ef1c:	00000029 00007325 00000000 00000000     )...%s..........
a080ef2c:	00000000 00007325 545b203e 5d4b5341     ....%s..> [TASK]
a080ef3c:	70704120 6e69796c 6f662067 20612072      Applying for a 
a080ef4c:	6b636f6c 00000a2e 545b203e 5d4b5341     lock....> [TASK]
a080ef5c:	73614820 71636120 65726975 6f6c2064      Has acquired lo
a080ef6c:	61206b63 7220646e 696e6e75 282e676e     ck and running.(
a080ef7c:	0a296425 00000000 545b203e 5d4b5341     %d).....> [TASK]
a080ef8c:	73614820 71636120 65726975 6f6c2064      Has acquired lo
a080ef9c:	61206b63 6520646e 65746978 000a2e64     ck and exited...
a080efac:	00000000 545b203e 5d4b5341 69685420     ....> [TASK] Thi
a080efbc:	61742073 69206b73 6f742073 73657420     s task is to tes
a080efcc:	6c732074 28706565 28202e29 0a296425     t sleep(). (%d).
a080efdc:	00000000 545b203e 5d4b5341 69685420     ....> [TASK] Thi
a080efec:	61742073 69206b73 6c732073 69706565     s task is sleepi
a080effc:	202c676e 65656c73 69742070 6920656d     ng, sleep time i
a080f00c:	64252073 00000a2e 00007325 00000000     s %d....%s......
a080f01c:	00000000 545b203e 5d4b5341 69685420     ....> [TASK] Thi
a080f02c:	73692073 74206120 61657268 6f742064     s is a thread to
a080f03c:	6d697420 21676e69 75252820 2075252f      timing! (%u/%u 
a080f04c:	6f636573 2973646e 00000a2e 00000000     seconds)........
a080f05c:	00000000 545b203e 5d4b5341 61204920     ....> [TASK] I a
a080f06c:	6174206d 77206b73 20687469 20646970     m task with pid 
a080f07c:	202c6425 61682049 61206576 69757163     %d, I have acqui
a080f08c:	20646572 206f7774 6574756d 6f6c2078     red two mutex lo
a080f09c:	202e6b63 29642528 00000000 545b203e     ck. (%d)....> [T
a080f0ac:	5d4b5341 77204920 20746e61 61206f74     ASK] I want to a
a080f0bc:	69757163 61206572 74756d20 6c207865     cquire a mutex l
a080f0cc:	206b636f 6d6f7266 73617420 6970286b     ock from task(pi
a080f0dc:	29323d64 0000002e 545b203e 5d4b5341     d=2)....> [TASK]
a080f0ec:	68204920 20657661 75716361 64657269      I have acquired
a080f0fc:	6d206120 78657475 636f6c20 7266206b      a mutex lock fr
a080f10c:	74206d6f 286b7361 3d646970 002e2932     om task(pid=2)..
a080f11c:	545b203e 5d4b5341 77204920 20746e61     > [TASK] I want 
a080f12c:	77206f74 20746961 6b736174 69702820     to wait task (pi
a080f13c:	29323d64 206f7420 74697865 0000002e     d=2) to exit....
a080f14c:	545b203e 5d4b5341 73615420 7028206b     > [TASK] Task (p
a080f15c:	323d6469 61682029 78652073 64657469     id=2) has exited
a080f16c:	2020202e 20202020 20202020 20202020     .               
a080f17c:	00000020 545b203e 5d4b5341 61655220      ...> [TASK] Rea
a080f18c:	74207964 6e65206f 20726574 20656874     dy to enter the 
a080f19c:	72726162 2e726569 29642528 00000000     barrier.(%d)....
a080f1ac:	545b203e 5d4b5341 69784520 20646574     > [TASK] Exited 
a080f1bc:	72726162 20726569 29642528 2020202e     barrier (%d).   
a080f1cc:	20202020 20202020 00000000 00000000             ........
a080f1dc:	00000000 545b203e 5d4b5341 746f5420     ....> [TASK] Tot
a080f1ec:	70206c61 75646f72 20646563 70206425     al produced %d p
a080f1fc:	75646f72 2e737463 00000000 545b203e     roducts.....> [T
a080f20c:	5d4b5341 746f5420 63206c61 75736e6f     ASK] Total consu
a080f21c:	2064656d 70206425 75646f72 2e737463     med %d products.
a080f22c:	00000000 545b203e 5d4b5341 72756320     ....> [TASK] cur
a080f23c:	746e6572 6f6c6720 206c6162 756c6176     rent global valu
a080f24c:	64252065 2528202e 00002964 00000000     e %d. (%d)......
a080f25c:	00000000 516e7553 006e6175 4275694c     ....SunQuan.LiuB
a080f26c:	00006965 436f6143 00006f61 516e7553     ei..CaoCao..SunQ
a080f27c:	2d6e6175 6c627550 2d687369 00444950     uan-Publish-PID.
a080f28c:	516e7553 286e6175 3a296425 6c654820     SunQuan(%d): Hel
a080f29c:	202c6f6c 6d612049 6e755320 6e617551     lo, I am SunQuan
a080f2ac:	20202020 20202020 00002020 4275694c               ..LiuB
a080f2bc:	502d6965 696c6275 502d6873 00004449     ei-Publish-PID..
a080f2cc:	6e75535b 6e617551 6425285d 57203a29     [SunQuan](%d): W
a080f2dc:	65726568 65726120 756f7920 75694c20     here are you Liu
a080f2ec:	3f696562 20202020 20202020 20202020     bei?            
a080f2fc:	20202020 00000000 6e75535b 6e617551         ....[SunQuan
a080f30c:	6425285d 49203a29 77206d27 69746961     ](%d): I'm waiti
a080f31c:	6620676e 4c20726f 65627569 25282069     ng for Liubei (%
a080f32c:	20202964 20202020 20202020 00000000     d)          ....
a080f33c:	6e75535b 6e617551 6425285d 49203a29     [SunQuan](%d): I
a080f34c:	63206d27 6e696d6f 6f742067 76617320     'm coming to sav
a080f35c:	6f792065 4c202c75 65427569 00002169     e you, LiuBei!..
a080f36c:	6e75535b 6e617551 6425285d 49203a29     [SunQuan](%d): I
a080f37c:	63206d27 6e696d6f 6f742067 6e657320     'm coming to sen
a080f38c:	656d2064 67617373 20202165 20202020     d message!      
a080f39c:	00202020 4275694c 25286965 203a2964        .LiuBei(%d): 
a080f3ac:	6c6c6548 49202c6f 206d6120 6275694c     Hello, I am Liub
a080f3bc:	20206965 20202020 20202020 00000000     ei          ....
a080f3cc:	75694c5b 5d696542 29642528 6857203a     [LiuBei](%d): Wh
a080f3dc:	20657265 20657261 20756f79 516e7553     ere are you SunQ
a080f3ec:	3f6e6175 20202020 20202020 00002020     uan?          ..
a080f3fc:	75694c5b 5d696542 29642528 2749203a     [LiuBei](%d): I'
a080f40c:	6177206d 6e697469 6f662067 75532072     m waiting for Su
a080f41c:	6175516e 2528206e 20202964 00002020     nQuan (%d)    ..
a080f42c:	75694c5b 5d696542 29642528 2749203a     [LiuBei](%d): I'
a080f43c:	6f63206d 676e696d 206f7420 65766173     m coming to save
a080f44c:	756f7920 7553202c 6175516e 0000216e      you, SunQuan!..
a080f45c:	6f61435b 5d6f6143 29642528 2049203a     [CaoCao](%d): I 
a080f46c:	77206d61 696b726f 2e2e676e 756d202e     am working... mu
a080f47c:	68616861 64252861 00002029 6f61435b     ahaha(%d) ..[Cao
a080f48c:	5d6f6143 29642528 2049203a 65766168     Cao](%d): I have
a080f49c:	20796d20 69636564 6e6f6973 64252821      my decision!(%d
a080f4ac:	00002029 6f61435b 5d6f6143 29642528     ) ..[CaoCao](%d)
a080f4bc:	2049203a 6c6c6977 6c696b20 7553206c     : I will kill Su
a080f4cc:	6175516e 2528206e 20212964 00000020     nQuan (%d)!  ...
a080f4dc:	6f61435b 5d6f6143 20756962 20756962     [CaoCao]biu biu 
a080f4ec:	20756962 7e7e7e7e 41207e7e 41414141     biu ~~~~~~ AAAAA
a080f4fc:	20414141 516e7553 206e6175 64207369     AAA SunQuan is d
a080f50c:	20646165 2e514151 00000000 6f61435b     ead QAQ.....[Cao
a080f51c:	5d6f6143 29642528 6f4f203a 20217370     Cao](%d): Oops! 
a080f52c:	516e7553 286e6175 20296425 6576696c     SunQuan(%d) live
a080f53c:	20202173 20202020 20202020 20202020     s!              
a080f54c:	00202020 6f61435b 5d6f6143 29642528        .[CaoCao](%d)
a080f55c:	2049203a 6c6c6977 6c696b20 694c206c     : I will kill Li
a080f56c:	69654275 29642528 00002021 6f61435b     uBei(%d)! ..[Cao
a080f57c:	5d6f6143 20756962 20756962 20756962     Cao]biu biu biu 
a080f58c:	7e7e7e7e 41207e7e 41414141 20414141     ~~~~~~ AAAAAAAA 
a080f59c:	6275694c 69206965 65642073 51206461     Liubei is dead Q
a080f5ac:	002e5141 6f61435b 5d6f6143 29642528     AQ..[CaoCao](%d)
a080f5bc:	6f4f203a 20217370 4275694c 25286965     : Oops! LiuBei(%
a080f5cc:	69202964 6c612073 20657669 69616761     d) is alive agai
a080f5dc:	0020216e 535b203e 20444e45 4b534154     n! .> [SEND TASK
a080f5ec:	7473205d 20747261 646e6573 63617020     ] start send pac
a080f5fc:	6567616b 2020202e 20202020 20202020     kage.           
a080f60c:	20202020 0000000a 535b203e 20444e45         ....> [SEND 
a080f61c:	4b534154 6f74205d 6c6c6174 65732079     TASK] totally se
a080f62c:	7020646e 616b6361 25206567 20212064     nd package %d ! 
a080f63c:	20202020 0a202020 00000000 4345525b            .....[REC
a080f64c:	41542056 205d4b53 72617473 65722074     V TASK] start re
a080f65c:	203a7663 20202020 20202020 20202020     cv:             
a080f66c:	20202020 00202020 525b203e 20564345            .> [RECV 
a080f67c:	4b534154 6177205d 6e697469 65722067     TASK] waiting re
a080f68c:	76696563 61702065 67616b63 000a2e65     ceive package...
a080f69c:	495b203e 5d54494e 69615720 676e6974     > [INIT] Waiting
a080f6ac:	726f6620 43414d20 696e6920 6c616974      for MAC initial
a080f6bc:	74617a69 206e6f69 00000a2e 495b203e     ization ....> [I
a080f6cc:	5d54494e 43414d20 696e6920 6c616974     NIT] MAC initial
a080f6dc:	74617a69 206e6f69 63637573 65646565     ization succeede
a080f6ec:	20202e64 20202020 20202020 00000a20     d.           ...
a080f6fc:	00000000 7365545b 46205d74 77203a53     ....[Test] FS: w
a080f70c:	65746972 646e6120 61657220 000a2e64     rite and read...
a080f71c:	78742e31 00000074 6c6c6568 6f77206f     1.txt...hello wo
a080f72c:	21646c72 0000000a 00006325 00000000     rld!....%c......
a080f73c:	00000000 fffffffe 00000000 00000000     ................
	...
